
AB.elf:     file format elf32-littlearm


Disassembly of section BASIC$$Code:

00000000 <BASIC$$Code>:
       0:	ea000009 	b	2c <BASIC$$Code+0x2c>
       4:	e1a0b08b 	lsl	fp, fp, #1
       8:	e20bb080 	and	fp, fp, #128	; 0x80
       c:	e3a0c906 	mov	ip, #98304	; 0x18000
      10:	e5ccb290 	strb	fp, [ip, #656]	; 0x290
      14:	e1a0f00e 	mov	pc, lr
      18:	e3a0e906 	mov	lr, #98304	; 0x18000
      1c:	e28eec03 	add	lr, lr, #768	; 0x300
      20:	e28ee004 	add	lr, lr, #4
      24:	ea000347 	b	d48 <BASIC$$Code+0xd48>
      28:	21575241 	cmpcs	r7, r1, asr #4
      2c:	e3a08906 	mov	r8, #98304	; 0x18000
      30:	e24f0020 	sub	r0, pc, #32
      34:	e2881c03 	add	r1, r8, #768	; 0x300
      38:	e24f203c 	sub	r2, pc, #60	; 0x3c
      3c:	e3a03000 	mov	r3, #0
      40:	ef00000f 	svc	0x0000000f
      44:	e2880c07 	add	r0, r8, #1792	; 0x700
      48:	e5880160 	str	r0, [r8, #352]	; 0x160
      4c:	ef000010 	svc	0x00000010
      50:	e1a0d001 	mov	sp, r1
      54:	e588d16c 	str	sp, [r8, #364]	; 0x16c
      58:	e588d2a8 	str	sp, [r8, #680]	; 0x2a8
      5c:	e3a00000 	mov	r0, #0
      60:	e588028c 	str	r0, [r8, #652]	; 0x28c
      64:	e5880298 	str	r0, [r8, #664]	; 0x298
      68:	e5880290 	str	r0, [r8, #656]	; 0x290
      6c:	e588029c 	str	r0, [r8, #668]	; 0x29c
      70:	e58802a0 	str	r0, [r8, #672]	; 0x2a0
      74:	e5c802fe 	strb	r0, [r8, #766]	; 0x2fe
      78:	e5c80280 	strb	r0, [r8, #640]	; 0x280
      7c:	e3e00000 	mvn	r0, #0
      80:	e588017c 	str	r0, [r8, #380]	; 0x17c
      84:	e3a0000a 	mov	r0, #10
      88:	e3800c09 	orr	r0, r0, #2304	; 0x900
      8c:	e58800f4 	str	r0, [r8, #244]	; 0xf4
      90:	e59802f9 	ldr	r0, [r8, #761]	; 0x2f9
      94:	e5d812fd 	ldrb	r1, [r8, #765]	; 0x2fd
      98:	e1900f81 	orrs	r0, r0, r1, lsl #31
      9c:	051f007c 	ldreq	r0, [pc, #-124]	; 28 <BASIC$$Code+0x28>
      a0:	058802f9 	streq	r0, [r8, #761]	; 0x2f9
      a4:	ef000001 	svc	0x00000001
      a8:	324d5241 	subcc	r5, sp, #268435460	; 0x10000004
      ac:	43424220 	movtmi	r4, #8736	; 0x2220
      b0:	73614220 	cmnvc	r1, #32, 4
      b4:	56206369 	strtpl	r6, [r0], -r9, ror #6
      b8:	72657620 	rsbvc	r7, r5, #32, 12	; 0x2000000
      bc:	6e6f6973 			; <UNDEFINED> instruction: 0x6e6f6973
      c0:	302e3120 	eorcc	r3, lr, r0, lsr #2
      c4:	43282030 			; <UNDEFINED> instruction: 0x43282030
      c8:	63412029 	movtvs	r2, #4137	; 0x1029
      cc:	206e726f 	rsbcs	r7, lr, pc, ror #4
      d0:	37383931 			; <UNDEFINED> instruction: 0x37383931
      d4:	0d0a0d0a 	stceq	13, cr0, [sl, #-40]	; 0xffffffd8
      d8:	00000000 	andeq	r0, r0, r0
      dc:	e24f003c 	sub	r0, pc, #60	; 0x3c
      e0:	e2882c06 	add	r2, r8, #1536	; 0x600
      e4:	e4d01001 	ldrb	r1, [r0], #1
      e8:	e4c21001 	strb	r1, [r2], #1
      ec:	e3310000 	teq	r1, #0
      f0:	1afffffb 	bne	e4 <BASIC$$Code+0xe4>
      f4:	e5881290 	str	r1, [r8, #656]	; 0x290
      f8:	eb0002e7 	bl	c9c <BASIC$$Code+0xc9c>
      fc:	eb0002ef 	bl	cc0 <BASIC$$Code+0xcc0>
     100:	eb000342 	bl	e10 <BASIC$$Code+0xe10>
     104:	e288cc03 	add	ip, r8, #768	; 0x300
     108:	e598d16c 	ldr	sp, [r8, #364]	; 0x16c
     10c:	e3a00000 	mov	r0, #0
     110:	e92d03ff 	push	{r0, r1, r2, r3, r4, r5, r6, r7, r8, r9}
     114:	e588d288 	str	sp, [r8, #648]	; 0x288
     118:	ef000010 	svc	0x00000010
     11c:	e2883fab 	add	r3, r8, #684	; 0x2ac
     120:	e4d02001 	ldrb	r2, [r0], #1
     124:	e4c32001 	strb	r2, [r3], #1
     128:	e3320000 	teq	r2, #0
     12c:	0a0000ff 	beq	530 <BASIC$$Code+0x530>
     130:	e3520020 	cmp	r2, #32
     134:	8afffff9 	bhi	120 <BASIC$$Code+0x120>
     138:	e3a02000 	mov	r2, #0
     13c:	e5432001 	strb	r2, [r3, #-1]
     140:	e4d02001 	ldrb	r2, [r0], #1
     144:	e3520020 	cmp	r2, #32
     148:	0afffffc 	beq	140 <BASIC$$Code+0x140>
     14c:	e3a09002 	mov	r9, #2
     150:	e352002d 	cmp	r2, #45	; 0x2d
     154:	0a00002e 	beq	214 <BASIC$$Code+0x214>
     158:	e3320000 	teq	r2, #0
     15c:	0a0000f3 	beq	530 <BASIC$$Code+0x530>
     160:	e3320040 	teq	r2, #64	; 0x40
     164:	1a0000b5 	bne	440 <BASIC$$Code+0x440>
     168:	e3a09000 	mov	r9, #0
     16c:	eb0000d5 	bl	4c8 <BASIC$$Code+0x4c8>
     170:	e1a06005 	mov	r6, r5
     174:	e332002c 	teq	r2, #44	; 0x2c
     178:	1a0000ec 	bne	530 <BASIC$$Code+0x530>
     17c:	eb0000d1 	bl	4c8 <BASIC$$Code+0x4c8>
     180:	e3320000 	teq	r2, #0
     184:	1a0000e9 	bne	530 <BASIC$$Code+0x530>
     188:	e1550006 	cmp	r5, r6
     18c:	9a0000e7 	bls	530 <BASIC$$Code+0x530>
     190:	e1a01006 	mov	r1, r6
     194:	e3a04009 	mov	r4, #9
     198:	e92d0030 	push	{r4, r5}
     19c:	eb0003f2 	bl	116c <BASIC$$Code+0x116c>
     1a0:	e8bd0010 	ldmfd	sp!, {r4}
     1a4:	e92d0002 	stmfd	sp!, {r1}
     1a8:	e288cb01 	add	ip, r8, #1024	; 0x400
     1ac:	eb000392 	bl	ffc <BASIC$$Code+0xffc>
     1b0:	0a000003 	beq	1c4 <BASIC$$Code+0x1c4>
     1b4:	e3899001 	orr	r9, r9, #1
     1b8:	e288cb01 	add	ip, r8, #1024	; 0x400
     1bc:	eb000333 	bl	e90 <BASIC$$Code+0xe90>
     1c0:	ea000001 	b	1cc <BASIC$$Code+0x1cc>
     1c4:	e1a04000 	mov	r4, r0
     1c8:	eb000334 	bl	ea0 <BASIC$$Code+0xea0>
     1cc:	e8bd0022 	pop	{r1, r5}
     1d0:	e1510005 	cmp	r1, r5
     1d4:	3affffef 	bcc	198 <BASIC$$Code+0x198>
     1d8:	e3190001 	tst	r9, #1
     1dc:	0a000009 	beq	208 <BASIC$$Code+0x208>
     1e0:	e3a0400a 	mov	r4, #10
     1e4:	e3a0500a 	mov	r5, #10
     1e8:	eb000362 	bl	f78 <BASIC$$Code+0xf78>
     1ec:	676f7250 			; <UNDEFINED> instruction: 0x676f7250
     1f0:	206d6172 	rsbcs	r6, sp, r2, ror r1
     1f4:	756e6572 	strbvc	r6, [lr, #-1394]!	; 0xfffffa8e
     1f8:	7265626d 	rsbvc	r6, r5, #-805306362	; 0xd0000006
     1fc:	0d0a6465 	cfstrseq	mvf6, [sl, #-404]	; 0xfffffe6c
     200:	00000000 	andeq	r0, r0, r0
     204:	eb00090d 	bl	2640 <BASIC$$Code+0x2640>
     208:	e3190002 	tst	r9, #2
     20c:	0a0000c6 	beq	52c <BASIC$$Code+0x52c>
     210:	ea000da9 	b	38bc <BASIC$$Code+0x38bc>
     214:	eb0000be 	bl	514 <BASIC$$Code+0x514>
     218:	e3520048 	cmp	r2, #72	; 0x48
     21c:	0a00002a 	beq	2cc <BASIC$$Code+0x2cc>
     220:	e352004c 	cmp	r2, #76	; 0x4c
     224:	0a00001d 	beq	2a0 <BASIC$$Code+0x2a0>
     228:	e3520051 	cmp	r2, #81	; 0x51
     22c:	0a00000f 	beq	270 <BASIC$$Code+0x270>
     230:	e3520043 	cmp	r2, #67	; 0x43
     234:	eb0000b5 	bl	510 <BASIC$$Code+0x510>
     238:	e3520048 	cmp	r2, #72	; 0x48
     23c:	eb0000b3 	bl	510 <BASIC$$Code+0x510>
     240:	e3520041 	cmp	r2, #65	; 0x41
     244:	eb0000b1 	bl	510 <BASIC$$Code+0x510>
     248:	e3520049 	cmp	r2, #73	; 0x49
     24c:	eb0000af 	bl	510 <BASIC$$Code+0x510>
     250:	e352004e 	cmp	r2, #78	; 0x4e
     254:	eb0000ad 	bl	510 <BASIC$$Code+0x510>
     258:	e3520020 	cmp	r2, #32
     25c:	1a000033 	bne	330 <BASIC$$Code+0x330>
     260:	e3520020 	cmp	r2, #32
     264:	1affffbb 	bne	158 <BASIC$$Code+0x158>
     268:	e4d02001 	ldrb	r2, [r0], #1
     26c:	eafffffb 	b	260 <BASIC$$Code+0x260>
     270:	eb0000a7 	bl	514 <BASIC$$Code+0x514>
     274:	e3520055 	cmp	r2, #85	; 0x55
     278:	eb0000a5 	bl	514 <BASIC$$Code+0x514>
     27c:	e3520049 	cmp	r2, #73	; 0x49
     280:	eb0000a3 	bl	514 <BASIC$$Code+0x514>
     284:	e3520054 	cmp	r2, #84	; 0x54
     288:	eb0000a1 	bl	514 <BASIC$$Code+0x514>
     28c:	e3520020 	cmp	r2, #32
     290:	1a000026 	bne	330 <BASIC$$Code+0x330>
     294:	e3a01000 	mov	r1, #0
     298:	e5c812ac 	strb	r1, [r8, #684]	; 0x2ac
     29c:	eaffffef 	b	260 <BASIC$$Code+0x260>
     2a0:	eb00009b 	bl	514 <BASIC$$Code+0x514>
     2a4:	e352004f 	cmp	r2, #79	; 0x4f
     2a8:	eb000099 	bl	514 <BASIC$$Code+0x514>
     2ac:	e3520041 	cmp	r2, #65	; 0x41
     2b0:	eb000097 	bl	514 <BASIC$$Code+0x514>
     2b4:	e3520044 	cmp	r2, #68	; 0x44
     2b8:	eb000095 	bl	514 <BASIC$$Code+0x514>
     2bc:	e3520020 	cmp	r2, #32
     2c0:	1a00001a 	bne	330 <BASIC$$Code+0x330>
     2c4:	e3a09000 	mov	r9, #0
     2c8:	eaffffe4 	b	260 <BASIC$$Code+0x260>
     2cc:	eb000090 	bl	514 <BASIC$$Code+0x514>
     2d0:	e3520045 	cmp	r2, #69	; 0x45
     2d4:	eb00008e 	bl	514 <BASIC$$Code+0x514>
     2d8:	e352004c 	cmp	r2, #76	; 0x4c
     2dc:	eb00008c 	bl	514 <BASIC$$Code+0x514>
     2e0:	e3520050 	cmp	r2, #80	; 0x50
     2e4:	eb00008a 	bl	514 <BASIC$$Code+0x514>
     2e8:	eb000322 	bl	f78 <BASIC$$Code+0xf78>
     2ec:	2d206261 	sfmcs	f6, 4, [r0, #-388]!	; 0xfffffe7c
     2f0:	706c6568 	rsbvc	r6, ip, r8, ror #10
     2f4:	74636120 	strbtvc	r6, [r3], #-288	; 0xfffffee0
     2f8:	74617669 	strbtvc	r7, [r1], #-1641	; 0xfffff997
     2fc:	28206465 	stmdacs	r0!, {r0, r2, r5, r6, sl, sp, lr}
     300:	20657375 	rsbcs	r7, r5, r5, ror r3
     304:	504c4548 	subpl	r4, ip, r8, asr #10
     308:	20746120 	rsbscs	r6, r4, r0, lsr #2
     30c:	20656874 	rsbcs	r6, r5, r4, ror r8
     310:	7270203e 	rsbsvc	r2, r0, #62	; 0x3e
     314:	74706d6f 	ldrbtvc	r6, [r0], #-3439	; 0xfffff291
     318:	726f6620 	rsbvc	r6, pc, #32, 12	; 0x2000000
     31c:	726f6d20 	rsbvc	r6, pc, #32, 26	; 0x800
     320:	65682065 	strbvs	r2, [r8, #-101]!	; 0xffffff9b
     324:	3a29706c 	bcc	a5c4dc <BASIC$$Code+0xa5c4dc>
     328:	00000d0a 	andeq	r0, r0, sl, lsl #26
     32c:	ea000005 	b	348 <BASIC$$Code+0x348>
     330:	eb000310 	bl	f78 <BASIC$$Code+0xf78>
     334:	6e6b6e55 	mcrvs	14, 3, r6, cr11, cr5, {2}
     338:	206e776f 	rsbcs	r7, lr, pc, ror #14
     33c:	7779656b 	ldrbvc	r6, [r9, -fp, ror #10]!
     340:	2e64726f 	cdpcs	2, 6, cr7, cr4, cr15, {3}
     344:	00000d0a 	andeq	r0, r0, sl, lsl #26
     348:	eb00030a 	bl	f78 <BASIC$$Code+0xf78>
     34c:	5b206261 	blpl	818cd8 <BASIC$$Code+0x818cd8>
     350:	6168632d 	cmnvs	r8, sp, lsr #6
     354:	205d6e69 	subscs	r6, sp, r9, ror #28
     358:	6c69663c 	stclvs	6, cr6, [r9], #-240	; 0xffffff10
     35c:	6d616e65 	stclvs	14, cr6, [r1, #-404]!	; 0xfffffe6c
     360:	74203e65 	strtvc	r3, [r0], #-3685	; 0xfffff19b
     364:	7572206f 	ldrbvc	r2, [r2, #-111]!	; 0xffffff91
     368:	2061206e 	rsbcs	r2, r1, lr, rrx
     36c:	656c6966 	strbvs	r6, [ip, #-2406]!	; 0xfffff69a
     370:	65742820 	ldrbvs	r2, [r4, #-2080]!	; 0xfffff7e0
     374:	742f7478 	strtvc	r7, [pc], #-1144	; 37c <BASIC$$Code+0x37c>
     378:	6e656b6f 	vnmulvs.f64	d22, d5, d31
     37c:	64657369 	strbtvs	r7, [r5], #-873	; 0xfffffc97
     380:	0d0a2e29 	stceq	14, cr2, [sl, #-164]	; 0xffffff5c
     384:	2d206261 	sfmcs	f6, 4, [r0, #-388]!	; 0xfffffe7c
     388:	74697571 	strbtvc	r7, [r9], #-1393	; 0xfffffa8f
     38c:	69663c20 	stmdbvs	r6!, {r5, sl, fp, ip, sp}^
     390:	616e656c 	cmnvs	lr, ip, ror #10
     394:	203e656d 	eorscs	r6, lr, sp, ror #10
     398:	72206f74 	eorvc	r6, r0, #116, 30	; 0x1d0
     39c:	61206e75 			; <UNDEFINED> instruction: 0x61206e75
     3a0:	6c696620 	stclvs	6, cr6, [r9], #-128	; 0xffffff80
     3a4:	74282065 	strtvc	r2, [r8], #-101	; 0xffffff9b
     3a8:	2f747865 	svccs	0x00747865
     3ac:	656b6f74 	strbvs	r6, [fp, #-3956]!	; 0xfffff08c
     3b0:	6573696e 	ldrbvs	r6, [r3, #-2414]!	; 0xfffff692
     3b4:	61202964 			; <UNDEFINED> instruction: 0x61202964
     3b8:	7120646e 			; <UNDEFINED> instruction: 0x7120646e
     3bc:	20746975 	rsbscs	r6, r4, r5, ror r9
     3c0:	6e656877 	mcrvs	8, 3, r6, cr5, cr7, {3}
     3c4:	6e6f6420 	cdpvs	4, 6, cr6, cr15, cr0, {1}
     3c8:	0d0a2e65 	stceq	14, cr2, [sl, #-404]	; 0xfffffe6c
     3cc:	2d206261 	sfmcs	f6, 4, [r0, #-388]!	; 0xfffffe7c
     3d0:	64616f6c 	strbtvs	r6, [r1], #-3948	; 0xfffff094
     3d4:	69663c20 	stmdbvs	r6!, {r5, sl, fp, ip, sp}^
     3d8:	616e656c 	cmnvs	lr, ip, ror #10
     3dc:	203e656d 	eorscs	r6, lr, sp, ror #10
     3e0:	73206f74 			; <UNDEFINED> instruction: 0x73206f74
     3e4:	74726174 	ldrbtvc	r6, [r2], #-372	; 0xfffffe8c
     3e8:	74697720 	strbtvc	r7, [r9], #-1824	; 0xfffff8e0
     3ec:	20612068 	rsbcs	r2, r1, r8, rrx
     3f0:	656c6966 	strbvs	r6, [ip, #-2406]!	; 0xfffff69a
     3f4:	65742820 	ldrbvs	r2, [r4, #-2080]!	; 0xfffff7e0
     3f8:	742f7478 	strtvc	r7, [pc], #-1144	; 400 <BASIC$$Code+0x400>
     3fc:	6e656b6f 	vnmulvs.f64	d22, d5, d31
     400:	64657369 	strbtvs	r7, [r5], #-873	; 0xfffffc97
     404:	0d0a2e29 	stceq	14, cr2, [sl, #-164]	; 0xffffff5c
     408:	40206261 	eormi	r6, r0, r1, ror #4
     40c:	78787878 	ldmdavc	r8!, {r3, r4, r5, r6, fp, ip, sp, lr}^
     410:	78787878 	ldmdavc	r8!, {r3, r4, r5, r6, fp, ip, sp, lr}^
     414:	7878782c 	ldmdavc	r8!, {r2, r3, r5, fp, ip, sp, lr}^
     418:	78787878 	ldmdavc	r8!, {r3, r4, r5, r6, fp, ip, sp, lr}^
     41c:	6f742078 	svcvs	0x00742078
     420:	61747320 	cmnvs	r4, r0, lsr #6
     424:	77207472 			; <UNDEFINED> instruction: 0x77207472
     428:	20687469 	rsbcs	r7, r8, r9, ror #8
     42c:	632d6e69 			; <UNDEFINED> instruction: 0x632d6e69
     430:	2065726f 	rsbcs	r7, r5, pc, ror #4
     434:	74786574 	ldrbtvc	r6, [r8], #-1396	; 0xfffffa8c
     438:	000d0a2e 	andeq	r0, sp, lr, lsr #20
     43c:	ea00003a 	b	52c <BASIC$$Code+0x52c>
     440:	e2884c03 	add	r4, r8, #768	; 0x300
     444:	e4c42001 	strb	r2, [r4], #1
     448:	e4d02001 	ldrb	r2, [r0], #1
     44c:	e3520020 	cmp	r2, #32
     450:	8afffffb 	bhi	444 <BASIC$$Code+0x444>
     454:	e3a0500d 	mov	r5, #13
     458:	e4c45001 	strb	r5, [r4], #1
     45c:	e3a000ff 	mov	r0, #255	; 0xff
     460:	e2881c03 	add	r1, r8, #768	; 0x300
     464:	e5987160 	ldr	r7, [r8, #352]	; 0x160
     468:	e2877a01 	add	r7, r7, #4096	; 0x1000
     46c:	e1a02007 	mov	r2, r7
     470:	e3a03000 	mov	r3, #0
     474:	ef000008 	svc	0x00000008
     478:	e1a01007 	mov	r1, r7
     47c:	e0815004 	add	r5, r1, r4
     480:	e5d76000 	ldrb	r6, [r7]
     484:	e336000d 	teq	r6, #13
     488:	1affff41 	bne	194 <BASIC$$Code+0x194>
     48c:	e5d76001 	ldrb	r6, [r7, #1]
     490:	e35600ff 	cmp	r6, #255	; 0xff
     494:	0a000004 	beq	4ac <BASIC$$Code+0x4ac>
     498:	e5d76003 	ldrb	r6, [r7, #3]
     49c:	e3560004 	cmp	r6, #4
     4a0:	3affff3b 	bcc	194 <BASIC$$Code+0x194>
     4a4:	e0877006 	add	r7, r7, r6
     4a8:	eafffff4 	b	480 <BASIC$$Code+0x480>
     4ac:	e5980160 	ldr	r0, [r8, #352]	; 0x160
     4b0:	e4917004 	ldr	r7, [r1], #4
     4b4:	e4807004 	str	r7, [r0], #4
     4b8:	e1510005 	cmp	r1, r5
     4bc:	3afffffb 	bcc	4b0 <BASIC$$Code+0x4b0>
     4c0:	eb0005df 	bl	1c44 <BASIC$$Code+0x1c44>
     4c4:	eaffff43 	b	1d8 <BASIC$$Code+0x1d8>
     4c8:	e3a05000 	mov	r5, #0
     4cc:	e3a0401c 	mov	r4, #28
     4d0:	e4d02001 	ldrb	r2, [r0], #1
     4d4:	e3520030 	cmp	r2, #48	; 0x30
     4d8:	3a000014 	bcc	530 <BASIC$$Code+0x530>
     4dc:	e352003a 	cmp	r2, #58	; 0x3a
     4e0:	3a000004 	bcc	4f8 <BASIC$$Code+0x4f8>
     4e4:	e3520041 	cmp	r2, #65	; 0x41
     4e8:	3a000010 	bcc	530 <BASIC$$Code+0x530>
     4ec:	e3520047 	cmp	r2, #71	; 0x47
     4f0:	2a00000e 	bcs	530 <BASIC$$Code+0x530>
     4f4:	e2422007 	sub	r2, r2, #7
     4f8:	e202200f 	and	r2, r2, #15
     4fc:	e1855412 	orr	r5, r5, r2, lsl r4
     500:	e2544004 	subs	r4, r4, #4
     504:	5afffff1 	bpl	4d0 <BASIC$$Code+0x4d0>
     508:	e4d02001 	ldrb	r2, [r0], #1
     50c:	e1a0f00e 	mov	pc, lr
     510:	1affff86 	bne	330 <BASIC$$Code+0x330>
     514:	e4d02001 	ldrb	r2, [r0], #1
     518:	e3520061 	cmp	r2, #97	; 0x61
     51c:	23c22020 	biccs	r2, r2, #32
     520:	e1a0f00e 	mov	pc, lr
     524:	eb0002e1 	bl	10b0 <BASIC$$Code+0x10b0>
     528:	eb0001db 	bl	c9c <BASIC$$Code+0xc9c>
     52c:	eb0001e3 	bl	cc0 <BASIC$$Code+0xcc0>
     530:	e3a08906 	mov	r8, #98304	; 0x18000
     534:	e288cc03 	add	ip, r8, #768	; 0x300
     538:	e598016c 	ldr	r0, [r8, #364]	; 0x16c
     53c:	eb000cce 	bl	387c <BASIC$$Code+0x387c>
     540:	e598d16c 	ldr	sp, [r8, #364]	; 0x16c
     544:	e3a00000 	mov	r0, #0
     548:	e92d03ff 	push	{r0, r1, r2, r3, r4, r5, r6, r7, r8, r9}
     54c:	e3e00000 	mvn	r0, #0
     550:	e5c802ff 	strb	r0, [r8, #767]	; 0x2ff
     554:	e588d288 	str	sp, [r8, #648]	; 0x288
     558:	eb00022c 	bl	e10 <BASIC$$Code+0xe10>
     55c:	e5d802ac 	ldrb	r0, [r8, #684]	; 0x2ac
     560:	e3500000 	cmp	r0, #0
     564:	0f000011 	svceq	0x00000011
     568:	ef00013e 	svc	0x0000013e
     56c:	eb00021b 	bl	de0 <BASIC$$Code+0xde0>
     570:	eb0001e8 	bl	d18 <BASIC$$Code+0xd18>
     574:	eb0002fc 	bl	116c <BASIC$$Code+0x116c>
     578:	e288cb01 	add	ip, r8, #1024	; 0x400
     57c:	e92d0020 	stmfd	sp!, {r5}
     580:	eb00029d 	bl	ffc <BASIC$$Code+0xffc>
     584:	e8bd0020 	ldmfd	sp!, {r5}
     588:	1a000078 	bne	770 <BASIC$$Code+0x770>
     58c:	e92d0020 	stmfd	sp!, {r5}
     590:	e1a04000 	mov	r4, r0
     594:	eb000241 	bl	ea0 <BASIC$$Code+0xea0>
     598:	e8bd0020 	ldmfd	sp!, {r5}
     59c:	e3550a01 	cmp	r5, #4096	; 0x1000
     5a0:	3a000006 	bcc	5c0 <BASIC$$Code+0x5c0>
     5a4:	ef000001 	svc	0x00000001
     5a8:	6e726157 	mrcvs	1, 3, r6, cr2, cr7, {2}
     5ac:	3a676e69 	bcc	19dbf58 <BASIC$$Code+0x19dbf58>
     5b0:	6d6e7520 	cfstr64vs	mvdx7, [lr, #-128]!	; 0xffffff80
     5b4:	68637461 	stmdavs	r3!, {r0, r5, r6, sl, ip, sp, lr}^
     5b8:	28206465 	stmdacs	r0!, {r0, r2, r5, r6, sl, sp, lr}
     5bc:	000d0a29 	andeq	r0, sp, r9, lsr #20
     5c0:	e3150c01 	tst	r5, #256	; 0x100
     5c4:	0a000008 	beq	5ec <BASIC$$Code+0x5ec>
     5c8:	ef000001 	svc	0x00000001
     5cc:	6e726157 	mrcvs	1, 3, r6, cr2, cr7, {2}
     5d0:	3a676e69 	bcc	19dbf7c <BASIC$$Code+0x19dbf7c>
     5d4:	6e696c20 	cdpvs	12, 6, cr6, cr9, cr0, {1}
     5d8:	756e2065 	strbvc	r2, [lr, #-101]!	; 0xffffff9b
     5dc:	7265626d 	rsbvc	r6, r5, #-805306362	; 0xd0000006
     5e0:	6f6f7420 	svcvs	0x006f7420
     5e4:	67696220 	strbvs	r6, [r9, -r0, lsr #4]!
     5e8:	00000d0a 	andeq	r0, r0, sl, lsl #26
     5ec:	e20550ff 	and	r5, r5, #255	; 0xff
     5f0:	e3350001 	teq	r5, #1
     5f4:	1affffcc 	bne	52c <BASIC$$Code+0x52c>
     5f8:	ef000001 	svc	0x00000001
     5fc:	6e726157 	mrcvs	1, 3, r6, cr2, cr7, {2}
     600:	3a676e69 	bcc	19dbfac <BASIC$$Code+0x19dbfac>
     604:	6d6e7520 	cfstr64vs	mvdx7, [lr, #-128]!	; 0xffffff80
     608:	68637461 	stmdavs	r3!, {r0, r5, r6, sl, ip, sp, lr}^
     60c:	22206465 	eorcs	r6, r0, #1694498816	; 0x65000000
     610:	00000d0a 	andeq	r0, r0, sl, lsl #26
     614:	eaffffc4 	b	52c <BASIC$$Code+0x52c>
     618:	e1a0000c 	mov	r0, ip
     61c:	eb00119d 	bl	4c98 <BASIC$$Code+0x4c98>
     620:	ef000005 	svc	0x00000005
     624:	e4dca001 	ldrb	sl, [ip], #1
     628:	e35a000d 	cmp	sl, #13
     62c:	1afffffc 	bne	624 <BASIC$$Code+0x624>
     630:	e4dca001 	ldrb	sl, [ip], #1
     634:	e35a00ff 	cmp	sl, #255	; 0xff
     638:	0affffbc 	beq	530 <BASIC$$Code+0x530>
     63c:	e28cc002 	add	ip, ip, #2
     640:	e5984290 	ldr	r4, [r8, #656]	; 0x290
     644:	e3540000 	cmp	r4, #0
     648:	0a00007a 	beq	838 <BASIC$$Code+0x838>
     64c:	eb001232 	bl	4f1c <BASIC$$Code+0x4f1c>
     650:	ea000078 	b	838 <BASIC$$Code+0x838>
     654:	e4dca001 	ldrb	sl, [ip], #1
     658:	e35a0020 	cmp	sl, #32
     65c:	0afffffc 	beq	654 <BASIC$$Code+0x654>
     660:	e35a003a 	cmp	sl, #58	; 0x3a
     664:	0a000073 	beq	838 <BASIC$$Code+0x838>
     668:	e35a000d 	cmp	sl, #13
     66c:	0affffef 	beq	630 <BASIC$$Code+0x630>
     670:	e35a008b 	cmp	sl, #139	; 0x8b
     674:	1a002968 	bne	ac1c <BASIC$$Code+0xac1c>
     678:	eaffffe9 	b	624 <BASIC$$Code+0x624>
     67c:	e35a002d 	cmp	sl, #45	; 0x2d
     680:	333a002b 	teqcc	sl, #43	; 0x2b
     684:	1a00285c 	bne	a7fc <BASIC$$Code+0xa7fc>
     688:	e4dba001 	ldrb	sl, [fp], #1
     68c:	e33a003d 	teq	sl, #61	; 0x3d
     690:	1a002859 	bne	a7fc <BASIC$$Code+0xa7fc>
     694:	3a000009 	bcc	6c0 <BASIC$$Code+0x6c0>
     698:	e3590d06 	cmp	r9, #384	; 0x180
     69c:	2a00288f 	bcs	a8e0 <BASIC$$Code+0xa8e0>
     6a0:	eb001acd 	bl	71dc <BASIC$$Code+0x71dc>
     6a4:	e3390000 	teq	r9, #0
     6a8:	0a00285b 	beq	a81c <BASIC$$Code+0xa81c>
     6ac:	52600000 	rsbpl	r0, r0, #0
     6b0:	5a000003 	bpl	6c4 <BASIC$$Code+0x6c4>
     6b4:	e3300000 	teq	r0, #0
     6b8:	12233102 	eorne	r3, r3, #-2147483648	; 0x80000000
     6bc:	ea000000 	b	6c4 <BASIC$$Code+0x6c4>
     6c0:	eb001ac5 	bl	71dc <BASIC$$Code+0x71dc>
     6c4:	eb000276 	bl	10a4 <BASIC$$Code+0x10a4>
     6c8:	e89d0030 	ldm	sp, {r4, r5}
     6cc:	e3550005 	cmp	r5, #5
     6d0:	0a00001f 	beq	754 <BASIC$$Code+0x754>
     6d4:	2a000006 	bcs	6f4 <BASIC$$Code+0x6f4>
     6d8:	eb00227b 	bl	90cc <BASIC$$Code+0x90cc>
     6dc:	e1a04000 	mov	r4, r0
     6e0:	e89d0201 	ldm	sp, {r0, r9}
     6e4:	eb001d68 	bl	7c8c <BASIC$$Code+0x7c8c>
     6e8:	e0800004 	add	r0, r0, r4
     6ec:	eb001230 	bl	4fb4 <BASIC$$Code+0x4fb4>
     6f0:	ea00004e 	b	830 <BASIC$$Code+0x830>
     6f4:	e3550c01 	cmp	r5, #256	; 0x100
     6f8:	2a001510 	bcs	5b40 <BASIC$$Code+0x5b40>
     6fc:	e3390000 	teq	r9, #0
     700:	1a002859 	bne	a86c <BASIC$$Code+0xa86c>
     704:	e1a0700d 	mov	r7, sp
     708:	eb001a32 	bl	6fd8 <BASIC$$Code+0x6fd8>
     70c:	e8970201 	ldm	r7, {r0, r9}
     710:	eb001d5d 	bl	7c8c <BASIC$$Code+0x7c8c>
     714:	e8bd0080 	ldmfd	sp!, {r7}
     718:	e2886c03 	add	r6, r8, #768	; 0x300
     71c:	e0577006 	subs	r7, r7, r6
     720:	0a000009 	beq	74c <BASIC$$Code+0x74c>
     724:	e0876002 	add	r6, r7, r2
     728:	e0466008 	sub	r6, r6, r8
     72c:	e3560b01 	cmp	r6, #1024	; 0x400
     730:	2a002947 	bcs	ac54 <BASIC$$Code+0xac54>
     734:	e4dd6001 	ldrb	r6, [sp], #1
     738:	e4c26001 	strb	r6, [r2], #1
     73c:	e2577001 	subs	r7, r7, #1
     740:	1afffffb 	bne	734 <BASIC$$Code+0x734>
     744:	e28dd003 	add	sp, sp, #3
     748:	e3cdd003 	bic	sp, sp, #3
     74c:	eb001218 	bl	4fb4 <BASIC$$Code+0x4fb4>
     750:	ea000036 	b	830 <BASIC$$Code+0x830>
     754:	eb002241 	bl	9060 <BASIC$$Code+0x9060>
     758:	eb0023b8 	bl	9640 <BASIC$$Code+0x9640>
     75c:	e8bd0a00 	pop	{r9, fp}
     760:	eb0024e7 	bl	9b04 <BASIC$$Code+0x9b04>
     764:	eb002335 	bl	9440 <BASIC$$Code+0x9440>
     768:	eb0024d4 	bl	9ac0 <BASIC$$Code+0x9ac0>
     76c:	ea00002f 	b	830 <BASIC$$Code+0x830>
     770:	e3a030ff 	mov	r3, #255	; 0xff
     774:	e5c23000 	strb	r3, [r2]
     778:	e35a00c7 	cmp	sl, #199	; 0xc7
     77c:	1a000030 	bne	844 <BASIC$$Code+0x844>
     780:	e4dca001 	ldrb	sl, [ip], #1
     784:	e25a408e 	subs	r4, sl, #142	; 0x8e
     788:	e79f4104 	ldr	r4, [pc, r4, lsl #2]
     78c:	e08ff004 	add	pc, pc, r4
     790:	00001284 	andeq	r1, r0, r4, lsl #5
     794:	00001314 	andeq	r1, r0, r4, lsl r3
     798:	00001394 	muleq	r0, r4, r3
     79c:	00001630 	andeq	r1, r0, r0, lsr r6
     7a0:	000013c0 	andeq	r1, r0, r0, asr #7
     7a4:	00001650 	andeq	r1, r0, r0, asr r6
     7a8:	00001484 	andeq	r1, r0, r4, lsl #9
     7ac:	000019b0 			; <UNDEFINED> instruction: 0x000019b0
     7b0:	fffffd90 			; <UNDEFINED> instruction: 0xfffffd90
     7b4:	00001e88 	andeq	r1, r0, r8, lsl #29
     7b8:	00001ea0 	andeq	r1, r0, r0, lsr #29
     7bc:	0000202c 	andeq	r2, r0, ip, lsr #32
     7c0:	00001678 	andeq	r1, r0, r8, ror r6
     7c4:	00001684 	andeq	r1, r0, r4, lsl #13
     7c8:	e1a0b00c 	mov	fp, ip
     7cc:	eb001922 	bl	6c5c <BASIC$$Code+0x6c5c>
     7d0:	1a000007 	bne	7f4 <BASIC$$Code+0x7f4>
     7d4:	2affff9f 	bcs	658 <BASIC$$Code+0x658>
     7d8:	e1a0000b 	mov	r0, fp
     7dc:	e4d07001 	ldrb	r7, [r0], #1
     7e0:	e3570020 	cmp	r7, #32
     7e4:	0afffffc 	beq	7dc <BASIC$$Code+0x7dc>
     7e8:	e357003d 	cmp	r7, #61	; 0x3d
     7ec:	1a002802 	bne	a7fc <BASIC$$Code+0xa7fc>
     7f0:	eb0018a2 	bl	6a80 <BASIC$$Code+0x6a80>
     7f4:	e92d0201 	push	{r0, r9}
     7f8:	e4dba001 	ldrb	sl, [fp], #1
     7fc:	e35a0020 	cmp	sl, #32
     800:	0afffffc 	beq	7f8 <BASIC$$Code+0x7f8>
     804:	e35a003d 	cmp	sl, #61	; 0x3d
     808:	1affff9b 	bne	67c <BASIC$$Code+0x67c>
     80c:	e3590c01 	cmp	r9, #256	; 0x100
     810:	2a001261 	bcs	519c <BASIC$$Code+0x519c>
     814:	eb001a70 	bl	71dc <BASIC$$Code+0x71dc>
     818:	e1a0c00b 	mov	ip, fp
     81c:	e35a003a 	cmp	sl, #58	; 0x3a
     820:	135a000d 	cmpne	sl, #13
     824:	135a008b 	cmpne	sl, #139	; 0x8b
     828:	1a0028fb 	bne	ac1c <BASIC$$Code+0xac1c>
     82c:	eb0011e0 	bl	4fb4 <BASIC$$Code+0x4fb4>
     830:	e35a003a 	cmp	sl, #58	; 0x3a
     834:	1affff7b 	bne	628 <BASIC$$Code+0x628>
     838:	e4dca001 	ldrb	sl, [ip], #1
     83c:	e35a0020 	cmp	sl, #32
     840:	0afffffc 	beq	838 <BASIC$$Code+0x838>
     844:	e79f410a 	ldr	r4, [pc, sl, lsl #2]
     848:	e08ff004 	add	pc, pc, r4
     84c:	0000a3cc 	andeq	sl, r0, ip, asr #7
     850:	0000a3cc 	andeq	sl, r0, ip, asr #7
     854:	0000a3cc 	andeq	sl, r0, ip, asr #7
     858:	0000a3cc 	andeq	sl, r0, ip, asr #7
     85c:	0000a3cc 	andeq	sl, r0, ip, asr #7
     860:	0000a3cc 	andeq	sl, r0, ip, asr #7
     864:	0000a3cc 	andeq	sl, r0, ip, asr #7
     868:	0000a3cc 	andeq	sl, r0, ip, asr #7
     86c:	0000a3cc 	andeq	sl, r0, ip, asr #7
     870:	0000a3cc 	andeq	sl, r0, ip, asr #7
     874:	0000a3cc 	andeq	sl, r0, ip, asr #7
     878:	0000a3cc 	andeq	sl, r0, ip, asr #7
     87c:	0000a3cc 	andeq	sl, r0, ip, asr #7
     880:	fffffde0 			; <UNDEFINED> instruction: 0xfffffde0
     884:	0000a3cc 	andeq	sl, r0, ip, asr #7
     888:	0000a3cc 	andeq	sl, r0, ip, asr #7
     88c:	0000a3cc 	andeq	sl, r0, ip, asr #7
     890:	0000a3cc 	andeq	sl, r0, ip, asr #7
     894:	0000a3cc 	andeq	sl, r0, ip, asr #7
     898:	0000a3cc 	andeq	sl, r0, ip, asr #7
     89c:	0000a3cc 	andeq	sl, r0, ip, asr #7
     8a0:	0000a3cc 	andeq	sl, r0, ip, asr #7
     8a4:	0000a3cc 	andeq	sl, r0, ip, asr #7
     8a8:	0000a3cc 	andeq	sl, r0, ip, asr #7
     8ac:	0000a3cc 	andeq	sl, r0, ip, asr #7
     8b0:	0000a3cc 	andeq	sl, r0, ip, asr #7
     8b4:	0000a3cc 	andeq	sl, r0, ip, asr #7
     8b8:	0000a3cc 	andeq	sl, r0, ip, asr #7
     8bc:	0000a3cc 	andeq	sl, r0, ip, asr #7
     8c0:	0000a3cc 	andeq	sl, r0, ip, asr #7
     8c4:	0000a3cc 	andeq	sl, r0, ip, asr #7
     8c8:	0000a3cc 	andeq	sl, r0, ip, asr #7
     8cc:	ffffffe8 			; <UNDEFINED> instruction: 0xffffffe8
     8d0:	ffffff78 			; <UNDEFINED> instruction: 0xffffff78
     8d4:	0000a3cc 	andeq	sl, r0, ip, asr #7
     8d8:	0000a3cc 	andeq	sl, r0, ip, asr #7
     8dc:	ffffff78 			; <UNDEFINED> instruction: 0xffffff78
     8e0:	ffffff78 			; <UNDEFINED> instruction: 0xffffff78
     8e4:	ffffff78 			; <UNDEFINED> instruction: 0xffffff78
     8e8:	ffffff78 			; <UNDEFINED> instruction: 0xffffff78
     8ec:	ffffff78 			; <UNDEFINED> instruction: 0xffffff78
     8f0:	ffffff78 			; <UNDEFINED> instruction: 0xffffff78
     8f4:	fffffdc8 			; <UNDEFINED> instruction: 0xfffffdc8
     8f8:	ffffff78 			; <UNDEFINED> instruction: 0xffffff78
     8fc:	ffffff78 			; <UNDEFINED> instruction: 0xffffff78
     900:	ffffff78 			; <UNDEFINED> instruction: 0xffffff78
     904:	ffffff78 			; <UNDEFINED> instruction: 0xffffff78
     908:	ffffff78 			; <UNDEFINED> instruction: 0xffffff78
     90c:	ffffff78 			; <UNDEFINED> instruction: 0xffffff78
     910:	ffffff78 			; <UNDEFINED> instruction: 0xffffff78
     914:	ffffff78 			; <UNDEFINED> instruction: 0xffffff78
     918:	ffffff78 			; <UNDEFINED> instruction: 0xffffff78
     91c:	ffffff78 			; <UNDEFINED> instruction: 0xffffff78
     920:	ffffff78 			; <UNDEFINED> instruction: 0xffffff78
     924:	ffffff78 			; <UNDEFINED> instruction: 0xffffff78
     928:	ffffff78 			; <UNDEFINED> instruction: 0xffffff78
     92c:	ffffff78 			; <UNDEFINED> instruction: 0xffffff78
     930:	ffffff78 			; <UNDEFINED> instruction: 0xffffff78
     934:	ffffffe8 			; <UNDEFINED> instruction: 0xffffffe8
     938:	ffffff78 			; <UNDEFINED> instruction: 0xffffff78
     93c:	ffffff78 			; <UNDEFINED> instruction: 0xffffff78
     940:	000085fc 	strdeq	r8, [r0], -ip
     944:	ffffff78 			; <UNDEFINED> instruction: 0xffffff78
     948:	ffffff78 			; <UNDEFINED> instruction: 0xffffff78
     94c:	ffffff78 			; <UNDEFINED> instruction: 0xffffff78
     950:	ffffff78 			; <UNDEFINED> instruction: 0xffffff78
     954:	ffffff78 			; <UNDEFINED> instruction: 0xffffff78
     958:	ffffff78 			; <UNDEFINED> instruction: 0xffffff78
     95c:	ffffff78 			; <UNDEFINED> instruction: 0xffffff78
     960:	ffffff78 			; <UNDEFINED> instruction: 0xffffff78
     964:	ffffff78 			; <UNDEFINED> instruction: 0xffffff78
     968:	ffffff78 			; <UNDEFINED> instruction: 0xffffff78
     96c:	ffffff78 			; <UNDEFINED> instruction: 0xffffff78
     970:	ffffff78 			; <UNDEFINED> instruction: 0xffffff78
     974:	ffffff78 			; <UNDEFINED> instruction: 0xffffff78
     978:	ffffff78 			; <UNDEFINED> instruction: 0xffffff78
     97c:	ffffff78 			; <UNDEFINED> instruction: 0xffffff78
     980:	ffffff78 			; <UNDEFINED> instruction: 0xffffff78
     984:	ffffff78 			; <UNDEFINED> instruction: 0xffffff78
     988:	ffffff78 			; <UNDEFINED> instruction: 0xffffff78
     98c:	ffffff78 			; <UNDEFINED> instruction: 0xffffff78
     990:	ffffff78 			; <UNDEFINED> instruction: 0xffffff78
     994:	ffffff78 			; <UNDEFINED> instruction: 0xffffff78
     998:	ffffff78 			; <UNDEFINED> instruction: 0xffffff78
     99c:	ffffff78 			; <UNDEFINED> instruction: 0xffffff78
     9a0:	ffffff78 			; <UNDEFINED> instruction: 0xffffff78
     9a4:	ffffff78 			; <UNDEFINED> instruction: 0xffffff78
     9a8:	ffffff78 			; <UNDEFINED> instruction: 0xffffff78
     9ac:	ffffff78 			; <UNDEFINED> instruction: 0xffffff78
     9b0:	ffffff78 			; <UNDEFINED> instruction: 0xffffff78
     9b4:	ffffff78 			; <UNDEFINED> instruction: 0xffffff78
     9b8:	00005664 	andeq	r5, r0, r4, ror #12
     9bc:	ffffff78 			; <UNDEFINED> instruction: 0xffffff78
     9c0:	ffffff78 			; <UNDEFINED> instruction: 0xffffff78
     9c4:	ffffff78 			; <UNDEFINED> instruction: 0xffffff78
     9c8:	ffffff78 			; <UNDEFINED> instruction: 0xffffff78
     9cc:	ffffff78 			; <UNDEFINED> instruction: 0xffffff78
     9d0:	ffffff78 			; <UNDEFINED> instruction: 0xffffff78
     9d4:	ffffff78 			; <UNDEFINED> instruction: 0xffffff78
     9d8:	ffffff78 			; <UNDEFINED> instruction: 0xffffff78
     9dc:	ffffff78 			; <UNDEFINED> instruction: 0xffffff78
     9e0:	ffffff78 			; <UNDEFINED> instruction: 0xffffff78
     9e4:	ffffff78 			; <UNDEFINED> instruction: 0xffffff78
     9e8:	ffffff78 			; <UNDEFINED> instruction: 0xffffff78
     9ec:	ffffff78 			; <UNDEFINED> instruction: 0xffffff78
     9f0:	ffffff78 			; <UNDEFINED> instruction: 0xffffff78
     9f4:	ffffff78 			; <UNDEFINED> instruction: 0xffffff78
     9f8:	ffffff78 			; <UNDEFINED> instruction: 0xffffff78
     9fc:	ffffff78 			; <UNDEFINED> instruction: 0xffffff78
     a00:	ffffff78 			; <UNDEFINED> instruction: 0xffffff78
     a04:	ffffff78 			; <UNDEFINED> instruction: 0xffffff78
     a08:	ffffff78 			; <UNDEFINED> instruction: 0xffffff78
     a0c:	ffffff78 			; <UNDEFINED> instruction: 0xffffff78
     a10:	ffffff78 			; <UNDEFINED> instruction: 0xffffff78
     a14:	ffffff78 			; <UNDEFINED> instruction: 0xffffff78
     a18:	ffffff78 			; <UNDEFINED> instruction: 0xffffff78
     a1c:	ffffff78 			; <UNDEFINED> instruction: 0xffffff78
     a20:	ffffff78 			; <UNDEFINED> instruction: 0xffffff78
     a24:	ffffff78 			; <UNDEFINED> instruction: 0xffffff78
     a28:	ffffff78 			; <UNDEFINED> instruction: 0xffffff78
     a2c:	ffffff78 			; <UNDEFINED> instruction: 0xffffff78
     a30:	ffffff78 			; <UNDEFINED> instruction: 0xffffff78
     a34:	ffffff78 			; <UNDEFINED> instruction: 0xffffff78
     a38:	0000a3cc 	andeq	sl, r0, ip, asr #7
     a3c:	ffffff78 			; <UNDEFINED> instruction: 0xffffff78
     a40:	0000a3cc 	andeq	sl, r0, ip, asr #7
     a44:	0000a3cc 	andeq	sl, r0, ip, asr #7
     a48:	00002174 	andeq	r2, r0, r4, ror r1
     a4c:	0000a3cc 	andeq	sl, r0, ip, asr #7
     a50:	0000a3cc 	andeq	sl, r0, ip, asr #7
     a54:	0000a3cc 	andeq	sl, r0, ip, asr #7
     a58:	0000a3cc 	andeq	sl, r0, ip, asr #7
     a5c:	0000a3cc 	andeq	sl, r0, ip, asr #7
     a60:	00003344 	andeq	r3, r0, r4, asr #6
     a64:	000038f4 	strdeq	r3, [r0], -r4
     a68:	00003830 	andeq	r3, r0, r0, lsr r8
     a6c:	0000a3cc 	andeq	sl, r0, ip, asr #7
     a70:	0000a3cc 	andeq	sl, r0, ip, asr #7
     a74:	0000a3cc 	andeq	sl, r0, ip, asr #7
     a78:	fffffdd4 			; <UNDEFINED> instruction: 0xfffffdd4
     a7c:	0000a3cc 	andeq	sl, r0, ip, asr #7
     a80:	0000a3cc 	andeq	sl, r0, ip, asr #7
     a84:	0000a3cc 	andeq	sl, r0, ip, asr #7
     a88:	00003e90 	muleq	r0, r0, lr
     a8c:	00003374 	andeq	r3, r0, r4, ror r3
     a90:	000033d4 	ldrdeq	r3, [r0], -r4
     a94:	00003438 	andeq	r3, r0, r8, lsr r4
     a98:	000034a4 	andeq	r3, r0, r4, lsr #9
     a9c:	0000a3cc 	andeq	sl, r0, ip, asr #7
     aa0:	0000a3cc 	andeq	sl, r0, ip, asr #7
     aa4:	0000a3cc 	andeq	sl, r0, ip, asr #7
     aa8:	0000a3cc 	andeq	sl, r0, ip, asr #7
     aac:	0000a3cc 	andeq	sl, r0, ip, asr #7
     ab0:	0000a3cc 	andeq	sl, r0, ip, asr #7
     ab4:	0000a3cc 	andeq	sl, r0, ip, asr #7
     ab8:	0000a3cc 	andeq	sl, r0, ip, asr #7
     abc:	0000a3cc 	andeq	sl, r0, ip, asr #7
     ac0:	0000a3cc 	andeq	sl, r0, ip, asr #7
     ac4:	0000a3cc 	andeq	sl, r0, ip, asr #7
     ac8:	0000a3cc 	andeq	sl, r0, ip, asr #7
     acc:	0000a3cc 	andeq	sl, r0, ip, asr #7
     ad0:	0000a3cc 	andeq	sl, r0, ip, asr #7
     ad4:	00003e88 	andeq	r3, r0, r8, lsl #29
     ad8:	0000a3cc 	andeq	sl, r0, ip, asr #7
     adc:	0000a3cc 	andeq	sl, r0, ip, asr #7
     ae0:	0000a3cc 	andeq	sl, r0, ip, asr #7
     ae4:	0000a3cc 	andeq	sl, r0, ip, asr #7
     ae8:	0000a3cc 	andeq	sl, r0, ip, asr #7
     aec:	0000a3cc 	andeq	sl, r0, ip, asr #7
     af0:	0000a3cc 	andeq	sl, r0, ip, asr #7
     af4:	0000a3cc 	andeq	sl, r0, ip, asr #7
     af8:	0000a3cc 	andeq	sl, r0, ip, asr #7
     afc:	0000a3cc 	andeq	sl, r0, ip, asr #7
     b00:	0000a3cc 	andeq	sl, r0, ip, asr #7
     b04:	0000a3cc 	andeq	sl, r0, ip, asr #7
     b08:	0000a3cc 	andeq	sl, r0, ip, asr #7
     b0c:	0000a3cc 	andeq	sl, r0, ip, asr #7
     b10:	0000a3cc 	andeq	sl, r0, ip, asr #7
     b14:	0000a3cc 	andeq	sl, r0, ip, asr #7
     b18:	0000a3cc 	andeq	sl, r0, ip, asr #7
     b1c:	0000a3cc 	andeq	sl, r0, ip, asr #7
     b20:	0000a3cc 	andeq	sl, r0, ip, asr #7
     b24:	0000a3cc 	andeq	sl, r0, ip, asr #7
     b28:	0000a3cc 	andeq	sl, r0, ip, asr #7
     b2c:	0000a3cc 	andeq	sl, r0, ip, asr #7
     b30:	0000a3cc 	andeq	sl, r0, ip, asr #7
     b34:	0000a3cc 	andeq	sl, r0, ip, asr #7
     b38:	0000a3cc 	andeq	sl, r0, ip, asr #7
     b3c:	0000a3cc 	andeq	sl, r0, ip, asr #7
     b40:	0000a3cc 	andeq	sl, r0, ip, asr #7
     b44:	0000a3cc 	andeq	sl, r0, ip, asr #7
     b48:	0000a3cc 	andeq	sl, r0, ip, asr #7
     b4c:	00003510 	andeq	r3, r0, r0, lsl r5
     b50:	00003548 	andeq	r3, r0, r8, asr #10
     b54:	00003624 	andeq	r3, r0, r4, lsr #12
     b58:	0000a3cc 	andeq	sl, r0, ip, asr #7
     b5c:	0000a3cc 	andeq	sl, r0, ip, asr #7
     b60:	0000a3cc 	andeq	sl, r0, ip, asr #7
     b64:	0000a3cc 	andeq	sl, r0, ip, asr #7
     b68:	0000a3cc 	andeq	sl, r0, ip, asr #7
     b6c:	000003fc 	strdeq	r0, [r0], -ip
     b70:	00002174 	andeq	r2, r0, r4, ror r1
     b74:	0000a3cc 	andeq	sl, r0, ip, asr #7
     b78:	fffffe04 			; <UNDEFINED> instruction: 0xfffffe04
     b7c:	000026f0 	strdeq	r2, [r0], -r0
     b80:	fffffe04 			; <UNDEFINED> instruction: 0xfffffe04
     b84:	00002414 	andeq	r2, r0, r4, lsl r4
     b88:	00003e90 	muleq	r0, r0, lr
     b8c:	00003374 	andeq	r3, r0, r4, ror r3
     b90:	000033d4 	ldrdeq	r3, [r0], -r4
     b94:	00003438 	andeq	r3, r0, r8, lsr r4
     b98:	000034a4 	andeq	r3, r0, r4, lsr #9
     b9c:	00003090 	muleq	r0, r0, r0
     ba0:	00003ebc 			; <UNDEFINED> instruction: 0x00003ebc
     ba4:	000043c0 	andeq	r4, r0, r0, asr #7
     ba8:	000021d0 	ldrdeq	r2, [r0], -r0
     bac:	000021d8 	ldrdeq	r2, [r0], -r8
     bb0:	00003f1c 	andeq	r3, r0, ip, lsl pc
     bb4:	000036a0 	andeq	r3, r0, r0, lsr #13
     bb8:	000036b0 			; <UNDEFINED> instruction: 0x000036b0
     bbc:	fffffdd4 			; <UNDEFINED> instruction: 0xfffffdd4
     bc0:	fffffdd4 			; <UNDEFINED> instruction: 0xfffffdd4
     bc4:	0000224c 	andeq	r2, r0, ip, asr #4
     bc8:	00003844 	andeq	r3, r0, r4, asr #16
     bcc:	000023d8 	ldrdeq	r2, [r0], -r8
     bd0:	000023e4 	andeq	r2, r0, r4, ror #7
     bd4:	00002468 	andeq	r2, r0, r8, ror #8
     bd8:	000024ac 	andeq	r2, r0, ip, lsr #9
     bdc:	00002568 	andeq	r2, r0, r8, ror #10
     be0:	0000258c 	andeq	r2, r0, ip, lsl #11
     be4:	00003854 	andeq	r3, r0, r4, asr r8
     be8:	0000260c 	andeq	r2, r0, ip, lsl #12
     bec:	00002750 	andeq	r2, r0, r0, asr r7
     bf0:	00002840 	andeq	r2, r0, r0, asr #16
     bf4:	00002884 	andeq	r2, r0, r4, lsl #17
     bf8:	00003954 	andeq	r3, r0, r4, asr r9
     bfc:	00003bb8 			; <UNDEFINED> instruction: 0x00003bb8
     c00:	0000293c 	andeq	r2, r0, ip, lsr r9
     c04:	00002b14 	andeq	r2, r0, r4, lsl fp
     c08:	00003e14 	andeq	r3, r0, r4, lsl lr
     c0c:	00003bfc 	strdeq	r3, [r0], -ip
     c10:	00002c88 	andeq	r2, r0, r8, lsl #25
     c14:	00002e88 	andeq	r2, r0, r8, lsl #29
     c18:	00002eac 	andeq	r2, r0, ip, lsr #29
     c1c:	fffffdd4 			; <UNDEFINED> instruction: 0xfffffdd4
     c20:	00002f34 	andeq	r2, r0, r4, lsr pc
     c24:	00002f44 	andeq	r2, r0, r4, asr #30
     c28:	00002f68 	andeq	r2, r0, r8, ror #30
     c2c:	00002f9c 	muleq	r0, ip, pc	; <UNPREDICTABLE>
     c30:	00003068 	andeq	r3, r0, r8, rrx
     c34:	00003114 	andeq	r3, r0, r4, lsl r1
     c38:	0000373c 	andeq	r3, r0, ip, lsr r7
     c3c:	000031dc 	ldrdeq	r3, [r0], -ip
     c40:	0000325c 	andeq	r3, r0, ip, asr r2
     c44:	00003298 	muleq	r0, r8, r2
     c48:	0000419c 	muleq	r0, ip, r1
     c4c:	e4dca001 	ldrb	sl, [ip], #1
     c50:	e25a408e 	subs	r4, sl, #142	; 0x8e
     c54:	e79f4104 	ldr	r4, [pc, r4, lsl #2]
     c58:	e08ff004 	add	pc, pc, r4
     c5c:	00001c04 	andeq	r1, r0, r4, lsl #24
     c60:	000032b0 			; <UNDEFINED> instruction: 0x000032b0
     c64:	0000343c 	andeq	r3, r0, ip, lsr r4
     c68:	000037d0 	ldrdeq	r3, [r0], -r0
     c6c:	0000382c 	andeq	r3, r0, ip, lsr #16
     c70:	00003870 	andeq	r3, r0, r0, ror r8
     c74:	00002d0c 	andeq	r2, r0, ip, lsl #26
     c78:	00002e98 	muleq	r0, r8, lr
     c7c:	00003a68 	andeq	r3, r0, r8, ror #20
     c80:	00003558 	andeq	r3, r0, r8, asr r5
     c84:	00004260 	andeq	r4, r0, r0, ror #4
     c88:	00003dd4 	ldrdeq	r3, [r0], -r4
     c8c:	00003cbc 			; <UNDEFINED> instruction: 0x00003cbc
     c90:	00003d0c 	andeq	r3, r0, ip, lsl #26
     c94:	000039b8 			; <UNDEFINED> instruction: 0x000039b8
     c98:	00009fbc 			; <UNDEFINED> instruction: 0x00009fbc
     c9c:	e3a0000d 	mov	r0, #13
     ca0:	e5981160 	ldr	r1, [r8, #352]	; 0x160
     ca4:	e4c10001 	strb	r0, [r1], #1
     ca8:	e3a000ff 	mov	r0, #255	; 0xff
     cac:	e4c10001 	strb	r0, [r1], #1
     cb0:	e5881164 	str	r1, [r8, #356]	; 0x164
     cb4:	e3a00000 	mov	r0, #0
     cb8:	e5880294 	str	r0, [r8, #660]	; 0x294
     cbc:	e1a0f00e 	mov	pc, lr
     cc0:	e5980164 	ldr	r0, [r8, #356]	; 0x164
     cc4:	e2800003 	add	r0, r0, #3
     cc8:	e3c00003 	bic	r0, r0, #3
     ccc:	e5880168 	str	r0, [r8, #360]	; 0x168
     cd0:	e5880170 	str	r0, [r8, #368]	; 0x170
     cd4:	e3a06000 	mov	r6, #0
     cd8:	e2881d06 	add	r1, r8, #384	; 0x180
     cdc:	e2812c01 	add	r2, r1, #256	; 0x100
     ce0:	e4816004 	str	r6, [r1], #4
     ce4:	e1510002 	cmp	r1, r2
     ce8:	3afffffc 	bcc	ce0 <BASIC$$Code+0xce0>
     cec:	e1a0600e 	mov	r6, lr
     cf0:	eb000008 	bl	d18 <BASIC$$Code+0xd18>
     cf4:	e1a0e006 	mov	lr, r6
     cf8:	e2881000 	add	r1, r8, #0
     cfc:	e28120f4 	add	r2, r1, #244	; 0xf4
     d00:	e3a00000 	mov	r0, #0
     d04:	e58802a4 	str	r0, [r8, #676]	; 0x2a4
     d08:	e4810004 	str	r0, [r1], #4
     d0c:	e1310002 	teq	r1, r2
     d10:	1afffffc 	bne	d08 <BASIC$$Code+0xd08>
     d14:	e1a0f00e 	mov	pc, lr
     d18:	e5980160 	ldr	r0, [r8, #352]	; 0x160
     d1c:	e5880174 	str	r0, [r8, #372]	; 0x174
     d20:	e1a0f00e 	mov	pc, lr
     d24:	e3ce033f 	bic	r0, lr, #-67108864	; 0xfc000000
     d28:	e2881c03 	add	r1, r8, #768	; 0x300
     d2c:	e1a0e001 	mov	lr, r1
     d30:	e4d02001 	ldrb	r2, [r0], #1
     d34:	e4812004 	str	r2, [r1], #4
     d38:	e4d02001 	ldrb	r2, [r0], #1
     d3c:	e4c12001 	strb	r2, [r1], #1
     d40:	e3520000 	cmp	r2, #0
     d44:	1afffffb 	bne	d38 <BASIC$$Code+0xd38>
     d48:	e3a08906 	mov	r8, #98304	; 0x18000
     d4c:	e3a000d0 	mov	r0, #208	; 0xd0
     d50:	e3a01000 	mov	r1, #0
     d54:	e3a02000 	mov	r2, #0
     d58:	ef000006 	svc	0x00000006
     d5c:	e3a0007e 	mov	r0, #126	; 0x7e
     d60:	ef000006 	svc	0x00000006
     d64:	e3a00000 	mov	r0, #0
     d68:	e5c80291 	strb	r0, [r8, #657]	; 0x291
     d6c:	e24cc002 	sub	ip, ip, #2
     d70:	e5981160 	ldr	r1, [r8, #352]	; 0x160
     d74:	e151000c 	cmp	r1, ip
     d78:	8a000007 	bhi	d9c <BASIC$$Code+0xd9c>
     d7c:	e5d12001 	ldrb	r2, [r1, #1]
     d80:	e35200ff 	cmp	r2, #255	; 0xff
     d84:	0a000004 	beq	d9c <BASIC$$Code+0xd9c>
     d88:	e5d10002 	ldrb	r0, [r1, #2]
     d8c:	e0800402 	add	r0, r0, r2, lsl #8
     d90:	e5d12003 	ldrb	r2, [r1, #3]
     d94:	e0811002 	add	r1, r1, r2
     d98:	eafffff5 	b	d74 <BASIC$$Code+0xd74>
     d9c:	e588028c 	str	r0, [r8, #652]	; 0x28c
     da0:	e2881c06 	add	r1, r8, #1536	; 0x600
     da4:	e28fc070 	add	ip, pc, #112	; 0x70
     da8:	e49e0004 	ldr	r0, [lr], #4
     dac:	e5880280 	str	r0, [r8, #640]	; 0x280
     db0:	e3300000 	teq	r0, #0
     db4:	1598c284 	ldrne	ip, [r8, #644]	; 0x284
     db8:	0588c284 	streq	ip, [r8, #644]	; 0x284
     dbc:	e4de0001 	ldrb	r0, [lr], #1
     dc0:	e4c10001 	strb	r0, [r1], #1
     dc4:	e3300000 	teq	r0, #0
     dc8:	1afffffb 	bne	dbc <BASIC$$Code+0xdbc>
     dcc:	ebffffd1 	bl	d18 <BASIC$$Code+0xd18>
     dd0:	e5980288 	ldr	r0, [r8, #648]	; 0x288
     dd4:	eb000aa8 	bl	387c <BASIC$$Code+0x387c>
     dd8:	e598d288 	ldr	sp, [r8, #648]	; 0x288
     ddc:	eafffe95 	b	838 <BASIC$$Code+0x838>
     de0:	e2880c03 	add	r0, r8, #768	; 0x300
     de4:	e3a010ee 	mov	r1, #238	; 0xee
     de8:	e3a02020 	mov	r2, #32
     dec:	e3a030ff 	mov	r3, #255	; 0xff
     df0:	ef00000e 	svc	0x0000000e
     df4:	2a00278d 	bcs	ac30 <BASIC$$Code+0xac30>
     df8:	e2881c03 	add	r1, r8, #768	; 0x300
     dfc:	ea000000 	b	e04 <BASIC$$Code+0xe04>
     e00:	ef000003 	svc	0x00000003
     e04:	e3a02000 	mov	r2, #0
     e08:	e5882178 	str	r2, [r8, #376]	; 0x178
     e0c:	e1a0f00e 	mov	pc, lr
     e10:	e28f0004 	add	r0, pc, #4
     e14:	e5880284 	str	r0, [r8, #644]	; 0x284
     e18:	e1a0f00e 	mov	pc, lr
     e1c:	2d932821 	ldccs	8, cr2, [r3, #132]	; 0x84
     e20:	403d2934 	eorsmi	r2, sp, r4, lsr r9
     e24:	25403a25 	strbcs	r3, [r0, #-2597]	; 0xfffff5db
     e28:	3039263d 	eorscc	r2, r9, sp, lsr r6
     e2c:	3af63a30 	bcc	ffd8f6f4 <BASIC$$Code+0xffd8f6f4>
     e30:	22f19ee7 	rscscs	r9, r1, #3696	; 0xe70
     e34:	20746120 	rsbscs	r6, r4, r0, lsr #2
     e38:	656e696c 	strbvs	r6, [lr, #-2412]!	; 0xfffff694
     e3c:	8b9e2220 	blhi	fe7896c4 <BASIC$$Code+0xfe7896c4>
     e40:	00000df1 	strdeq	r0, [r0], -r1
     e44:	3d254000 	stccc	0, cr4, [r5, #-0]
     e48:	2d932821 	ldccs	8, cr2, [r3, #132]	; 0x84
     e4c:	e03a2934 	eors	r2, sl, r4, lsr r9
     e50:	0000000d 	andeq	r0, r0, sp
     e54:	e1a00004 	mov	r0, r4
     e58:	e92d4000 	stmfd	sp!, {lr}
     e5c:	eb0007f1 	bl	2e28 <BASIC$$Code+0x2e28>
     e60:	e1a06001 	mov	r6, r1
     e64:	e2850001 	add	r0, r5, #1
     e68:	eb0007ef 	bl	2e2c <BASIC$$Code+0x2e2c>
     e6c:	e1510006 	cmp	r1, r6
     e70:	98bd8000 	ldmfdls	sp!, {pc}
     e74:	e5980164 	ldr	r0, [r8, #356]	; 0x164
     e78:	e4d12001 	ldrb	r2, [r1], #1
     e7c:	e4c62001 	strb	r2, [r6], #1
     e80:	e1510000 	cmp	r1, r0
     e84:	1afffffb 	bne	e78 <BASIC$$Code+0xe78>
     e88:	e5886164 	str	r6, [r8, #356]	; 0x164
     e8c:	e8bd8000 	ldmfd	sp!, {pc}
     e90:	e92d4000 	stmfd	sp!, {lr}
     e94:	e5981164 	ldr	r1, [r8, #356]	; 0x164
     e98:	e2411002 	sub	r1, r1, #2
     e9c:	ea00000c 	b	ed4 <BASIC$$Code+0xed4>
     ea0:	e92d4000 	stmfd	sp!, {lr}
     ea4:	e1a05004 	mov	r5, r4
     ea8:	ebffffe9 	bl	e54 <BASIC$$Code+0xe54>
     eac:	e5dc0000 	ldrb	r0, [ip]
     eb0:	e350000d 	cmp	r0, #13
     eb4:	08bd8000 	ldmfdeq	sp!, {pc}
     eb8:	e1a00004 	mov	r0, r4
     ebc:	eb0007d9 	bl	2e28 <BASIC$$Code+0x2e28>
     ec0:	e5d802fe 	ldrb	r0, [r8, #766]	; 0x2fe
     ec4:	e3300000 	teq	r0, #0
     ec8:	0a000001 	beq	ed4 <BASIC$$Code+0xed4>
     ecc:	eb000059 	bl	1038 <BASIC$$Code+0x1038>
     ed0:	e24cc001 	sub	ip, ip, #1
     ed4:	e1a0b00c 	mov	fp, ip
     ed8:	e4db0001 	ldrb	r0, [fp], #1
     edc:	e350000d 	cmp	r0, #13
     ee0:	1afffffc 	bne	ed8 <BASIC$$Code+0xed8>
     ee4:	e24bb001 	sub	fp, fp, #1
     ee8:	e57b0001 	ldrb	r0, [fp, #-1]!
     eec:	e15b000c 	cmp	fp, ip
     ef0:	9a000001 	bls	efc <BASIC$$Code+0xefc>
     ef4:	e3500020 	cmp	r0, #32
     ef8:	0afffffa 	beq	ee8 <BASIC$$Code+0xee8>
     efc:	e3a0000d 	mov	r0, #13
     f00:	e5eb0001 	strb	r0, [fp, #1]!
     f04:	e04b600c 	sub	r6, fp, ip
     f08:	e2866004 	add	r6, r6, #4
     f0c:	e3560c01 	cmp	r6, #256	; 0x100
     f10:	2a0025b2 	bcs	a5e0 <BASIC$$Code+0xa5e0>
     f14:	e5982164 	ldr	r2, [r8, #356]	; 0x164
     f18:	e0823006 	add	r3, r2, r6
     f1c:	e5883164 	str	r3, [r8, #356]	; 0x164
     f20:	e5720001 	ldrb	r0, [r2, #-1]!
     f24:	e5630001 	strb	r0, [r3, #-1]!
     f28:	e1320001 	teq	r2, r1
     f2c:	1afffffb 	bne	f20 <BASIC$$Code+0xf20>
     f30:	e5c14002 	strb	r4, [r1, #2]
     f34:	e1a05424 	lsr	r5, r4, #8
     f38:	e5c15001 	strb	r5, [r1, #1]
     f3c:	e5e16003 	strb	r6, [r1, #3]!
     f40:	e4dc0001 	ldrb	r0, [ip], #1
     f44:	e5e10001 	strb	r0, [r1, #1]!
     f48:	e3500020 	cmp	r0, #32
     f4c:	0afffffb 	beq	f40 <BASIC$$Code+0xf40>
     f50:	e330000d 	teq	r0, #13
     f54:	08bd8000 	ldmfdeq	sp!, {pc}
     f58:	e330008b 	teq	r0, #139	; 0x8b
     f5c:	03a000cc 	moveq	r0, #204	; 0xcc
     f60:	05c10000 	strbeq	r0, [r1]
     f64:	e4dc0001 	ldrb	r0, [ip], #1
     f68:	e5e10001 	strb	r0, [r1, #1]!
     f6c:	e330000d 	teq	r0, #13
     f70:	1afffffb 	bne	f64 <BASIC$$Code+0xf64>
     f74:	e8bd8000 	ldmfd	sp!, {pc}
     f78:	e3ce03ff 	bic	r0, lr, #-67108861	; 0xfc000003
     f7c:	ef000002 	svc	0x00000002
     f80:	e2800003 	add	r0, r0, #3
     f84:	e3c0f003 	bic	pc, r0, #3
     f88:	ef000100 	svc	0x00000100
     f8c:	ef000100 	svc	0x00000100
     f90:	ef000100 	svc	0x00000100
     f94:	ef000100 	svc	0x00000100
     f98:	ef000100 	svc	0x00000100
     f9c:	ef000100 	svc	0x00000100
     fa0:	ef000100 	svc	0x00000100
     fa4:	ef000100 	svc	0x00000100
     fa8:	e1a0f00e 	mov	pc, lr
     fac:	e4920004 	ldr	r0, [r2], #4
     fb0:	ef000117 	svc	0x00000117
     fb4:	ef000120 	svc	0x00000120
     fb8:	ef000000 	svc	0x00000000
     fbc:	e1a00460 	ror	r0, r0, #8
     fc0:	ef000000 	svc	0x00000000
     fc4:	e1a00460 	ror	r0, r0, #8
     fc8:	ef000000 	svc	0x00000000
     fcc:	e1a00460 	ror	r0, r0, #8
     fd0:	ef000000 	svc	0x00000000
     fd4:	e4920004 	ldr	r0, [r2], #4
     fd8:	ef000000 	svc	0x00000000
     fdc:	e1a00460 	ror	r0, r0, #8
     fe0:	ef000000 	svc	0x00000000
     fe4:	e1a00460 	ror	r0, r0, #8
     fe8:	ef000000 	svc	0x00000000
     fec:	e1a00460 	ror	r0, r0, #8
     ff0:	ef000000 	svc	0x00000000
     ff4:	ef000120 	svc	0x00000120
     ff8:	e1a0f00e 	mov	pc, lr
     ffc:	e4dca001 	ldrb	sl, [ip], #1
    1000:	e35a0020 	cmp	sl, #32
    1004:	0afffffc 	beq	ffc <BASIC$$Code+0xffc>
    1008:	e35a008d 	cmp	sl, #141	; 0x8d
    100c:	11a0f00e 	movne	pc, lr
    1010:	e4dca001 	ldrb	sl, [ip], #1
    1014:	e1a0010a 	lsl	r0, sl, #2
    1018:	e20010c0 	and	r1, r0, #192	; 0xc0
    101c:	e4dca001 	ldrb	sl, [ip], #1
    1020:	e021100a 	eor	r1, r1, sl
    1024:	e4dca001 	ldrb	sl, [ip], #1
    1028:	e02a0100 	eor	r0, sl, r0, lsl #2
    102c:	e20000ff 	and	r0, r0, #255	; 0xff
    1030:	e1810400 	orr	r0, r1, r0, lsl #8
    1034:	e1a0f00e 	mov	pc, lr
    1038:	e4dca001 	ldrb	sl, [ip], #1
    103c:	e35a0020 	cmp	sl, #32
    1040:	0afffffc 	beq	1038 <BASIC$$Code+0x1038>
    1044:	e1a0f00e 	mov	pc, lr
    1048:	e4dba001 	ldrb	sl, [fp], #1
    104c:	e35a0020 	cmp	sl, #32
    1050:	0afffffc 	beq	1048 <BASIC$$Code+0x1048>
    1054:	e1a0f00e 	mov	pc, lr
    1058:	e1a0b00c 	mov	fp, ip
    105c:	e92d4000 	stmfd	sp!, {lr}
    1060:	eb00185d 	bl	71dc <BASIC$$Code+0x71dc>
    1064:	0a0025ec 	beq	a81c <BASIC$$Code+0xa81c>
    1068:	4b00201a 	blmi	90d8 <BASIC$$Code+0x90d8>
    106c:	e35a002c 	cmp	sl, #44	; 0x2c
    1070:	08bd8000 	ldmfdeq	sp!, {pc}
    1074:	ea0025e4 	b	a80c <BASIC$$Code+0xa80c>
    1078:	e4dca001 	ldrb	sl, [ip], #1
    107c:	e35a0020 	cmp	sl, #32
    1080:	0afffffc 	beq	1078 <BASIC$$Code+0x1078>
    1084:	e35a003d 	cmp	sl, #61	; 0x3d
    1088:	1a0025cf 	bne	a7cc <BASIC$$Code+0xa7cc>
    108c:	e1a0b00c 	mov	fp, ip
    1090:	e92d4000 	stmfd	sp!, {lr}
    1094:	eb001850 	bl	71dc <BASIC$$Code+0x71dc>
    1098:	0a0025df 	beq	a81c <BASIC$$Code+0xa81c>
    109c:	4b00200d 	blmi	90d8 <BASIC$$Code+0x90d8>
    10a0:	e8bd4000 	ldmfd	sp!, {lr}
    10a4:	e1a0c00b 	mov	ip, fp
    10a8:	ea000001 	b	10b4 <BASIC$$Code+0x10b4>
    10ac:	e1a0c00b 	mov	ip, fp
    10b0:	e4dca001 	ldrb	sl, [ip], #1
    10b4:	e35a0020 	cmp	sl, #32
    10b8:	0afffffc 	beq	10b0 <BASIC$$Code+0x10b0>
    10bc:	e35a003a 	cmp	sl, #58	; 0x3a
    10c0:	135a000d 	cmpne	sl, #13
    10c4:	01a0f00e 	moveq	pc, lr
    10c8:	e35a008b 	cmp	sl, #139	; 0x8b
    10cc:	01a0f00e 	moveq	pc, lr
    10d0:	ea0026d1 	b	ac1c <BASIC$$Code+0xac1c>
    10d4:	1a0025e4 	bne	a86c <BASIC$$Code+0xa86c>
    10d8:	e3a0000d 	mov	r0, #13
    10dc:	e4c20001 	strb	r0, [r2], #1
    10e0:	e2881c03 	add	r1, r8, #768	; 0x300
    10e4:	e1a0f00e 	mov	pc, lr
    10e8:	e350007a 	cmp	r0, #122	; 0x7a
    10ec:	83def202 	bicshi	pc, lr, #536870912	; 0x20000000
    10f0:	e350005f 	cmp	r0, #95	; 0x5f
    10f4:	21a0f00e 	movcs	pc, lr
    10f8:	e350005a 	cmp	r0, #90	; 0x5a
    10fc:	83def202 	bicshi	pc, lr, #536870912	; 0x20000000
    1100:	e3500041 	cmp	r0, #65	; 0x41
    1104:	21a0f00e 	movcs	pc, lr
    1108:	e3500039 	cmp	r0, #57	; 0x39
    110c:	83def202 	bicshi	pc, lr, #536870912	; 0x20000000
    1110:	e3500030 	cmp	r0, #48	; 0x30
    1114:	e1a0f00e 	mov	pc, lr
    1118:	e350002e 	cmp	r0, #46	; 0x2e
    111c:	1afffff9 	bne	1108 <BASIC$$Code+0x1108>
    1120:	e1a0f00e 	mov	pc, lr
    1124:	e1a04425 	lsr	r4, r5, #8
    1128:	e204403f 	and	r4, r4, #63	; 0x3f
    112c:	e3844040 	orr	r4, r4, #64	; 0x40
    1130:	e5c24002 	strb	r4, [r2, #2]
    1134:	e205403f 	and	r4, r5, #63	; 0x3f
    1138:	e3844040 	orr	r4, r4, #64	; 0x40
    113c:	e5c24001 	strb	r4, [r2, #1]
    1140:	e1a04625 	lsr	r4, r5, #12
    1144:	e204400c 	and	r4, r4, #12
    1148:	e20550c0 	and	r5, r5, #192	; 0xc0
    114c:	e1844125 	orr	r4, r4, r5, lsr #2
    1150:	e2244054 	eor	r4, r4, #84	; 0x54
    1154:	e4c24003 	strb	r4, [r2], #3
    1158:	e1a0f00e 	mov	pc, lr
    115c:	e1a0200d 	mov	r2, sp
    1160:	e92d4000 	stmfd	sp!, {lr}
    1164:	e3a05000 	mov	r5, #0
    1168:	ea000036 	b	1248 <BASIC$$Code+0x1248>
    116c:	e92d4000 	stmfd	sp!, {lr}
    1170:	e3a05000 	mov	r5, #0
    1174:	e2882b01 	add	r2, r8, #1024	; 0x400
    1178:	e3a0408d 	mov	r4, #141	; 0x8d
    117c:	ea000006 	b	119c <BASIC$$Code+0x119c>
    1180:	e92d4000 	stmfd	sp!, {lr}
    1184:	e3a05000 	mov	r5, #0
    1188:	ea000004 	b	11a0 <BASIC$$Code+0x11a0>
    118c:	e92d4000 	stmfd	sp!, {lr}
    1190:	e2882b01 	add	r2, r8, #1024	; 0x400
    1194:	e3a05000 	mov	r5, #0
    1198:	e3a04000 	mov	r4, #0
    119c:	e3a03000 	mov	r3, #0
    11a0:	e4d10001 	ldrb	r0, [r1], #1
    11a4:	e4c20001 	strb	r0, [r2], #1
    11a8:	e3500020 	cmp	r0, #32
    11ac:	0afffffb 	beq	11a0 <BASIC$$Code+0x11a0>
    11b0:	e330000a 	teq	r0, #10
    11b4:	03a0000d 	moveq	r0, #13
    11b8:	05420001 	strbeq	r0, [r2, #-1]
    11bc:	e350000d 	cmp	r0, #13
    11c0:	08bd8000 	ldmfdeq	sp!, {pc}
    11c4:	e3500022 	cmp	r0, #34	; 0x22
    11c8:	02255001 	eoreq	r5, r5, #1
    11cc:	e31500ff 	tst	r5, #255	; 0xff
    11d0:	1afffff2 	bne	11a0 <BASIC$$Code+0x11a0>
    11d4:	e3350000 	teq	r5, #0
    11d8:	4a000003 	bmi	11ec <BASIC$$Code+0x11ec>
    11dc:	e3500028 	cmp	r0, #40	; 0x28
    11e0:	02855a01 	addeq	r5, r5, #4096	; 0x1000
    11e4:	e3500029 	cmp	r0, #41	; 0x29
    11e8:	02455a01 	subeq	r5, r5, #4096	; 0x1000
    11ec:	e3500026 	cmp	r0, #38	; 0x26
    11f0:	1a00000b 	bne	1224 <BASIC$$Code+0x1224>
    11f4:	e4d10001 	ldrb	r0, [r1], #1
    11f8:	e4c20001 	strb	r0, [r2], #1
    11fc:	ebffffc1 	bl	1108 <BASIC$$Code+0x1108>
    1200:	2afffffb 	bcs	11f4 <BASIC$$Code+0x11f4>
    1204:	e3500041 	cmp	r0, #65	; 0x41
    1208:	3affffe6 	bcc	11a8 <BASIC$$Code+0x11a8>
    120c:	e3500047 	cmp	r0, #71	; 0x47
    1210:	3afffff7 	bcc	11f4 <BASIC$$Code+0x11f4>
    1214:	e3500061 	cmp	r0, #97	; 0x61
    1218:	3a000001 	bcc	1224 <BASIC$$Code+0x1224>
    121c:	e3500067 	cmp	r0, #103	; 0x67
    1220:	3afffff3 	bcc	11f4 <BASIC$$Code+0x11f4>
    1224:	e350003a 	cmp	r0, #58	; 0x3a
    1228:	0affffda 	beq	1198 <BASIC$$Code+0x1198>
    122c:	e350002c 	cmp	r0, #44	; 0x2c
    1230:	0affffda 	beq	11a0 <BASIC$$Code+0x11a0>
    1234:	e350002a 	cmp	r0, #42	; 0x2a
    1238:	1a000005 	bne	1254 <BASIC$$Code+0x1254>
    123c:	e3330000 	teq	r3, #0
    1240:	03855004 	orreq	r5, r5, #4
    1244:	0affffd5 	beq	11a0 <BASIC$$Code+0x11a0>
    1248:	e3a04000 	mov	r4, #0
    124c:	e3a03001 	mov	r3, #1
    1250:	eaffffd2 	b	11a0 <BASIC$$Code+0x11a0>
    1254:	e350002e 	cmp	r0, #46	; 0x2e
    1258:	0a00000f 	beq	129c <BASIC$$Code+0x129c>
    125c:	ebffffa9 	bl	1108 <BASIC$$Code+0x1108>
    1260:	3a000023 	bcc	12f4 <BASIC$$Code+0x12f4>
    1264:	e3340000 	teq	r4, #0
    1268:	0a00000b 	beq	129c <BASIC$$Code+0x129c>
    126c:	e92d003a 	push	{r1, r3, r4, r5}
    1270:	e200500f 	and	r5, r0, #15
    1274:	e4d10001 	ldrb	r0, [r1], #1
    1278:	ebffffa2 	bl	1108 <BASIC$$Code+0x1108>
    127c:	3a00000d 	bcc	12b8 <BASIC$$Code+0x12b8>
    1280:	e200000f 	and	r0, r0, #15
    1284:	e0855105 	add	r5, r5, r5, lsl #2
    1288:	e0805085 	add	r5, r0, r5, lsl #1
    128c:	e3550cff 	cmp	r5, #65280	; 0xff00
    1290:	3afffff7 	bcc	1274 <BASIC$$Code+0x1274>
    1294:	e8bd003a 	pop	{r1, r3, r4, r5}
    1298:	e3855c01 	orr	r5, r5, #256	; 0x100
    129c:	e4d10001 	ldrb	r0, [r1], #1
    12a0:	e4c20001 	strb	r0, [r2], #1
    12a4:	ebffff9b 	bl	1118 <BASIC$$Code+0x1118>
    12a8:	2afffffb 	bcs	129c <BASIC$$Code+0x129c>
    12ac:	e3a04000 	mov	r4, #0
    12b0:	e3a03001 	mov	r3, #1
    12b4:	eaffffbb 	b	11a8 <BASIC$$Code+0x11a8>
    12b8:	e5424001 	strb	r4, [r2, #-1]
    12bc:	ebffff98 	bl	1124 <BASIC$$Code+0x1124>
    12c0:	e4c20001 	strb	r0, [r2], #1
    12c4:	e28dd004 	add	sp, sp, #4
    12c8:	e8bd0038 	pop	{r3, r4, r5}
    12cc:	eaffffb5 	b	11a8 <BASIC$$Code+0x11a8>
    12d0:	ebffff84 	bl	10e8 <BASIC$$Code+0x10e8>
    12d4:	3affffdb 	bcc	1248 <BASIC$$Code+0x1248>
    12d8:	ea000000 	b	12e0 <BASIC$$Code+0x12e0>
    12dc:	e8bd01e0 	pop	{r5, r6, r7, r8}
    12e0:	e4d10001 	ldrb	r0, [r1], #1
    12e4:	e4c20001 	strb	r0, [r2], #1
    12e8:	ebffff7e 	bl	10e8 <BASIC$$Code+0x10e8>
    12ec:	2afffffb 	bcs	12e0 <BASIC$$Code+0x12e0>
    12f0:	eaffffed 	b	12ac <BASIC$$Code+0x12ac>
    12f4:	e3500041 	cmp	r0, #65	; 0x41
    12f8:	3affffd2 	bcc	1248 <BASIC$$Code+0x1248>
    12fc:	e3500057 	cmp	r0, #87	; 0x57
    1300:	8afffff2 	bhi	12d0 <BASIC$$Code+0x12d0>
    1304:	e92d01e0 	push	{r5, r6, r7, r8}
    1308:	e28f601c 	add	r6, pc, #28
    130c:	e7966100 	ldr	r6, [r6, r0, lsl #2]
    1310:	e08f5006 	add	r5, pc, r6
    1314:	e4d56001 	ldrb	r6, [r5], #1
    1318:	e1500006 	cmp	r0, r6
    131c:	1affffee 	bne	12dc <BASIC$$Code+0x12dc>
    1320:	e1a08001 	mov	r8, r1
    1324:	e4d56001 	ldrb	r6, [r5], #1
    1328:	e356007f 	cmp	r6, #127	; 0x7f
    132c:	2a00000f 	bcs	1370 <BASIC$$Code+0x1370>
    1330:	e4d17001 	ldrb	r7, [r1], #1
    1334:	e1560007 	cmp	r6, r7
    1338:	0afffff9 	beq	1324 <BASIC$$Code+0x1324>
    133c:	e357002e 	cmp	r7, #46	; 0x2e
    1340:	0a000007 	beq	1364 <BASIC$$Code+0x1364>
    1344:	e1a01008 	mov	r1, r8
    1348:	e4d56001 	ldrb	r6, [r5], #1
    134c:	e356007f 	cmp	r6, #127	; 0x7f
    1350:	3afffffc 	bcc	1348 <BASIC$$Code+0x1348>
    1354:	e35600fe 	cmp	r6, #254	; 0xfe
    1358:	0affffdf 	beq	12dc <BASIC$$Code+0x12dc>
    135c:	e2855001 	add	r5, r5, #1
    1360:	eaffffeb 	b	1314 <BASIC$$Code+0x1314>
    1364:	e4d56001 	ldrb	r6, [r5], #1
    1368:	e356007f 	cmp	r6, #127	; 0x7f
    136c:	3afffffc 	bcc	1364 <BASIC$$Code+0x1364>
    1370:	e5d55000 	ldrb	r5, [r5]
    1374:	e11500a5 	tst	r5, r5, lsr #1
    1378:	3a000005 	bcc	1394 <BASIC$$Code+0x1394>
    137c:	e92d0001 	stmfd	sp!, {r0}
    1380:	e5d10000 	ldrb	r0, [r1]
    1384:	ebffff57 	bl	10e8 <BASIC$$Code+0x10e8>
    1388:	e8bd0001 	ldmfd	sp!, {r0}
    138c:	21a01008 	movcs	r1, r8
    1390:	2affffd1 	bcs	12dc <BASIC$$Code+0x12dc>
    1394:	e1150225 	tst	r5, r5, lsr #4
    1398:	3a000008 	bcc	13c0 <BASIC$$Code+0x13c0>
    139c:	e3a070c7 	mov	r7, #199	; 0xc7
    13a0:	e11503a5 	tst	r5, r5, lsr #7
    13a4:	23a070c8 	movcs	r7, #200	; 0xc8
    13a8:	e11501a5 	tst	r5, r5, lsr #3
    13ac:	23a070c6 	movcs	r7, #198	; 0xc6
    13b0:	23c55004 	biccs	r5, r5, #4
    13b4:	e5427001 	strb	r7, [r2, #-1]
    13b8:	e2822001 	add	r2, r2, #1
    13bc:	ea000003 	b	13d0 <BASIC$$Code+0x13d0>
    13c0:	e11503a5 	tst	r5, r5, lsr #7
    13c4:	3a000001 	bcc	13d0 <BASIC$$Code+0x13d0>
    13c8:	e3330000 	teq	r3, #0
    13cc:	02866040 	addeq	r6, r6, #64	; 0x40
    13d0:	e5426001 	strb	r6, [r2, #-1]
    13d4:	e1150125 	tst	r5, r5, lsr #2
    13d8:	23a03001 	movcs	r3, #1
    13dc:	23a04000 	movcs	r4, #0
    13e0:	e11501a5 	tst	r5, r5, lsr #3
    13e4:	23a03000 	movcs	r3, #0
    13e8:	23a04000 	movcs	r4, #0
    13ec:	e33600a4 	teq	r6, #164	; 0xa4
    13f0:	133600f2 	teqne	r6, #242	; 0xf2
    13f4:	1a000005 	bne	1410 <BASIC$$Code+0x1410>
    13f8:	e4d10001 	ldrb	r0, [r1], #1
    13fc:	e4c20001 	strb	r0, [r2], #1
    1400:	ebffff38 	bl	10e8 <BASIC$$Code+0x10e8>
    1404:	2afffffb 	bcs	13f8 <BASIC$$Code+0x13f8>
    1408:	e2411001 	sub	r1, r1, #1
    140c:	e2422001 	sub	r2, r2, #1
    1410:	e11502a5 	tst	r5, r5, lsr #5
    1414:	23a0408d 	movcs	r4, #141	; 0x8d
    1418:	e1150325 	tst	r5, r5, lsr #6
    141c:	e3150080 	tst	r5, #128	; 0x80
    1420:	e8bd01e0 	pop	{r5, r6, r7, r8}
    1424:	23855004 	orrcs	r5, r5, #4
    1428:	12855a01 	addne	r5, r5, #4096	; 0x1000
    142c:	eaffff5b 	b	11a0 <BASIC$$Code+0x11a0>
    1430:	00000344 	andeq	r0, r0, r4, asr #6
    1434:	00000377 	andeq	r0, r0, r7, ror r3
    1438:	00000383 	andeq	r0, r0, r3, lsl #7
    143c:	000003d7 	ldrdeq	r0, [r0], -r7
    1440:	000003ff 	strdeq	r0, [r0], -pc	; <UNPREDICTABLE>
    1444:	00000468 	andeq	r0, r0, r8, ror #8
    1448:	0000047e 	andeq	r0, r0, lr, ror r4
    144c:	0000049c 	muleq	r0, ip, r4
    1450:	000004a9 	andeq	r0, r0, r9, lsr #9
    1454:	000004d9 	ldrdeq	r0, [r0], -r9
    1458:	000004d9 	ldrdeq	r0, [r0], -r9
    145c:	000004d9 	ldrdeq	r0, [r0], -r9
    1460:	00000523 	andeq	r0, r0, r3, lsr #10
    1464:	00000542 	andeq	r0, r0, r2, asr #10
    1468:	00000552 	andeq	r0, r0, r2, asr r5
    146c:	0000059b 	muleq	r0, fp, r5
    1470:	000005d1 	ldrdeq	r0, [r0], -r1
    1474:	000005d7 	ldrdeq	r0, [r0], -r7
    1478:	00000630 	andeq	r0, r0, r0, lsr r6
    147c:	0000067d 	andeq	r0, r0, sp, ror r6
    1480:	000006b8 			; <UNDEFINED> instruction: 0x000006b8
    1484:	000006c4 	andeq	r0, r0, r4, asr #13
    1488:	000006d4 	ldrdeq	r0, [r0], -r4
    148c:	e28f2f72 	add	r2, pc, #456	; 0x1c8
    1490:	e1a0f00e 	mov	pc, lr
    1494:	e350007f 	cmp	r0, #127	; 0x7f
    1498:	3a000228 	bcc	1d40 <BASIC$$Code+0x1d40>
    149c:	e92d4000 	stmfd	sp!, {lr}
    14a0:	eb00000a 	bl	14d0 <BASIC$$Code+0x14d0>
    14a4:	e4d10001 	ldrb	r0, [r1], #1
    14a8:	e350007f 	cmp	r0, #127	; 0x7f
    14ac:	28bd8000 	ldmfdcs	sp!, {pc}
    14b0:	e3170010 	tst	r7, #16
    14b4:	0a000003 	beq	14c8 <BASIC$$Code+0x14c8>
    14b8:	e3500041 	cmp	r0, #65	; 0x41
    14bc:	3a000001 	bcc	14c8 <BASIC$$Code+0x14c8>
    14c0:	e350005a 	cmp	r0, #90	; 0x5a
    14c4:	93800020 	orrls	r0, r0, #32
    14c8:	eb00021c 	bl	1d40 <BASIC$$Code+0x1d40>
    14cc:	eafffff4 	b	14a4 <BASIC$$Code+0x14a4>
    14d0:	e28f1040 	add	r1, pc, #64	; 0x40
    14d4:	e33000c6 	teq	r0, #198	; 0xc6
    14d8:	0281101c 	addeq	r1, r1, #28
    14dc:	133000c7 	teqne	r0, #199	; 0xc7
    14e0:	02811020 	addeq	r1, r1, #32
    14e4:	133000c8 	teqne	r0, #200	; 0xc8
    14e8:	04dc0001 	ldrbeq	r0, [ip], #1
    14ec:	02811f41 	addeq	r1, r1, #260	; 0x104
    14f0:	0240008e 	subeq	r0, r0, #142	; 0x8e
    14f4:	1240007f 	subne	r0, r0, #127	; 0x7f
    14f8:	e3100001 	tst	r0, #1
    14fc:	e3c00001 	bic	r0, r0, #1
    1500:	e7911080 	ldr	r1, [r1, r0, lsl #1]
    1504:	01a01801 	lsleq	r1, r1, #16
    1508:	e1a01821 	lsr	r1, r1, #16
    150c:	e28f0f52 	add	r0, pc, #328	; 0x148
    1510:	e0811000 	add	r1, r1, r0
    1514:	e1a0f00e 	mov	pc, lr
    1518:	0000024c 	andeq	r0, r0, ip, asr #4
    151c:	011000ab 	tsteq	r0, fp, lsr #1
    1520:	022801ec 	eoreq	r0, r8, #236, 2	; 0x3b
    1524:	019b0104 	orrseq	r0, fp, r4, lsl #2
    1528:	02ec0217 	rsceq	r0, ip, #1879048193	; 0x70000001
    152c:	03480307 	movteq	r0, #33543	; 0x8307
    1530:	033e00f3 	teqeq	lr, #243	; 0xf3
    1534:	022c03aa 	eoreq	r0, ip, #-1476395006	; 0xa8000002
    1538:	025e0264 	subseq	r0, lr, #100, 4	; 0x40000006
    153c:	01a70355 			; <UNDEFINED> instruction: 0x01a70355
    1540:	00050158 	andeq	r0, r5, r8, asr r1
    1544:	000f000a 	andeq	r0, pc, sl
    1548:	001b0016 	andseq	r0, fp, r6, lsl r0
    154c:	00330020 	eorseq	r0, r3, r0, lsr #32
    1550:	007d0078 	rsbseq	r0, sp, r8, ror r0
    1554:	00ff0099 	smlalseq	r0, pc, r9, r0	; <UNPREDICTABLE>
    1558:	00f90115 	rscseq	r0, r9, r5, lsl r1
    155c:	011f011a 	tsteq	pc, sl, lsl r1	; <UNPREDICTABLE>
    1560:	01360129 	teqeq	r6, r9, lsr #2
    1564:	01780146 	cmneq	r8, r6, asr #2
    1568:	017f0184 	cmneq	pc, r4, lsl #3
    156c:	01cc01bd 	strheq	r0, [ip, #29]
    1570:	020901c7 	andeq	r0, r9, #-1073741775	; 0xc0000031
    1574:	0234023d 	eorseq	r0, r4, #-805306365	; 0xd0000003
    1578:	02730269 	rsbseq	r0, r3, #-1879048186	; 0x90000006
    157c:	02bb0288 	adcseq	r0, fp, #136, 4	; 0x80000008
    1580:	02f802d2 	rscseq	r0, r8, #536870925	; 0x2000000d
    1584:	030202fd 	movweq	r0, #8957	; 0x22fd
    1588:	03440339 	movteq	r0, #17209	; 0x4339
    158c:	037b035b 	cmneq	fp, #1811939329	; 0x6c000001
    1590:	038a0385 	orreq	r0, sl, #335544322	; 0x14000002
    1594:	0140005a 	qdaddeq	r0, sl, r0
    1598:	01b50170 			; <UNDEFINED> instruction: 0x01b50170
    159c:	02c901df 	sbceq	r0, r9, #-1073741769	; 0xc0000037
    15a0:	0312030c 	tsteq	r2, #12, 6	; 0x30000000
    15a4:	03aa010b 			; <UNDEFINED> instruction: 0x03aa010b
    15a8:	03aa03aa 			; <UNDEFINED> instruction: 0x03aa03aa
    15ac:	021c0397 	andseq	r0, ip, #1543503874	; 0x5c000002
    15b0:	00f300d4 	ldrsbteq	r0, [r3], #4
    15b4:	00ca00dd 	ldrdeq	r0, [sl], #13
    15b8:	025e0264 	subseq	r0, lr, #100, 4	; 0x40000006
    15bc:	01a70355 			; <UNDEFINED> instruction: 0x01a70355
    15c0:	031c0158 	tsteq	ip, #88, 2
    15c4:	00470039 	subeq	r0, r7, r9, lsr r0
    15c8:	00600053 	rsbeq	r0, r0, r3, asr r0
    15cc:	006e0067 	rsbeq	r0, lr, r7, rrx
    15d0:	00930073 	addseq	r0, r3, r3, ror r0
    15d4:	00b0009e 	umlalseq	r0, r0, lr, r0	; <UNPREDICTABLE>
    15d8:	00e400b5 	strhteq	r0, [r4], #5
    15dc:	00e900bb 	strhteq	r0, [r9], #11
    15e0:	014b0124 	cmpeq	fp, r4, lsr #2
    15e4:	0152013a 	cmpeq	r2, sl, lsr r1
    15e8:	0165016c 	cmneq	r5, ip, ror #2
    15ec:	01ae01c2 			; <UNDEFINED> instruction: 0x01ae01c2
    15f0:	01f101e6 	mvnseq	r0, r6, ror #3
    15f4:	021301fe 	andseq	r0, r3, #-2147483585	; 0x8000003f
    15f8:	026d0380 	rsbeq	r0, sp, #128, 6
    15fc:	02820257 	addeq	r0, r2, #1879048197	; 0x70000005
    1600:	02b102ab 	adcseq	r0, r1, #-1342177270	; 0xb000000a
    1604:	02a3029b 	adceq	r0, r3, #-1342177271	; 0xb0000009
    1608:	029302c0 	addseq	r0, r3, #192, 4
    160c:	032302b6 			; <UNDEFINED> instruction: 0x032302b6
    1610:	034e003f 	movteq	r0, #57407	; 0xe03f
    1614:	03a30374 			; <UNDEFINED> instruction: 0x03a30374
    1618:	00000245 	andeq	r0, r0, r5, asr #4
    161c:	0084004d 	addeq	r0, r4, sp, asr #32
    1620:	02200130 	eoreq	r0, r0, #48, 2
    1624:	02d7027b 	sbcseq	r0, r7, #-1342177273	; 0xb0000007
    1628:	03900329 	orrseq	r0, r0, #-1543503872	; 0xa4000000
    162c:	01f7039d 			; <UNDEFINED> instruction: 0x01f7039d
    1630:	032f028d 			; <UNDEFINED> instruction: 0x032f028d
    1634:	01d0018c 	bicseq	r0, r0, ip, lsl #3
    1638:	00000361 	andeq	r0, r0, r1, ror #6
    163c:	0025002b 	eoreq	r0, r5, fp, lsr #32
    1640:	00c400a3 	sbceq	r0, r4, r3, lsr #1
    1644:	0195015f 	orrseq	r0, r5, pc, asr r1
    1648:	01d901a1 	bicseq	r0, r9, r1, lsr #3
    164c:	020e0204 	andeq	r0, lr, #4, 4	; 0x40000000
    1650:	02f202e2 	rscseq	r0, r2, #536870926	; 0x2000000e
    1654:	0367036e 	cmneq	r7, #-1207959551	; 0xb8000001
    1658:	00000334 	andeq	r0, r0, r4, lsr r3
    165c:	80444e41 	subhi	r4, r4, r1, asr #28
    1660:	53424100 	movtpl	r4, #8448	; 0x2100
    1664:	43410094 	movtmi	r0, #4244	; 0x1094
    1668:	41009553 	tstmi	r0, r3, asr r5
    166c:	4c415644 	mcrrmi	6, 4, r5, r1, cr4
    1670:	53410096 	movtpl	r0, #4246	; 0x1096
    1674:	41009743 	tstmi	r0, r3, asr #14
    1678:	00984e53 	addseq	r4, r8, r3, asr lr
    167c:	994e5441 	stmdbls	lr, {r0, r6, sl, ip, lr}^
    1680:	54554100 	ldrbpl	r4, [r5], #-256	; 0xffffff00
    1684:	41188f4f 	tstmi	r8, pc, asr #30
    1688:	4e455050 	mcrmi	0, 2, r5, cr5, cr0, {2}
    168c:	420a8e44 	andmi	r8, sl, #68, 28	; 0x440
    1690:	9a544547 	bls	1512bb4 <BASIC$$Code+0x1512bb4>
    1694:	55504201 	ldrbpl	r4, [r0, #-513]	; 0xfffffdff
    1698:	4303d554 	movwmi	sp, #13652	; 0x3554
    169c:	554f4c4f 	strbpl	r4, [pc, #-3151]	; a55 <BASIC$$Code+0xa55>
    16a0:	4302fb52 	movwmi	pc, #11090	; 0x2b52	; <UNPREDICTABLE>
    16a4:	d64c4c41 	strble	r4, [ip], -r1, asr #24
    16a8:	53414302 	movtpl	r4, #4866	; 0x1302
    16ac:	434a8e45 	movtmi	r8, #44613	; 0xae45
    16b0:	4e494148 	dvfmiem	f4, f1, #0.0
    16b4:	484302d7 	stmdami	r3, {r0, r1, r2, r4, r6, r7, r9}^
    16b8:	00bd2452 	adcseq	r2, sp, r2, asr r4
    16bc:	41454c43 	cmpmi	r5, r3, asr #24
    16c0:	4301d852 	movwmi	sp, #6226	; 0x1852
    16c4:	45534f4c 	ldrbmi	r4, [r3, #-3916]	; 0xfffff0b4
    16c8:	4c4303d9 	mcrrmi	3, 13, r0, r3, cr9
    16cc:	4301da47 	movwmi	sp, #6727	; 0x1a47
    16d0:	01db534c 	bicseq	r5, fp, ip, asr #6
    16d4:	9b534f43 	blls	14d53e8 <BASIC$$Code+0x14d53e8>
    16d8:	554f4300 	strbpl	r4, [pc, #-768]	; 13e0 <BASIC$$Code+0x13e0>
    16dc:	019c544e 	orrseq	r5, ip, lr, asr #8
    16e0:	43524943 	cmpmi	r2, #1097728	; 0x10c000
    16e4:	4a8f454c 	bmi	fe3d2c1c <BASIC$$Code+0xfe3d2c1c>
    16e8:	4f4c4f43 	svcmi	0x004c4f43
    16ec:	4402fb52 	strmi	pc, [r2], #-2898	; 0xfffff4ae
    16f0:	dc415441 	cfstrdle	mvd5, [r1], {65}	; 0x41
    16f4:	47454420 	strbmi	r4, [r5, -r0, lsr #8]
    16f8:	4544009d 	strbmi	r0, [r4, #-157]	; 0xffffff63
    16fc:	4400dd46 	strmi	sp, [r0], #-3398	; 0xfffff2ba
    1700:	54454c45 	strbpl	r4, [r5], #-3141	; 0xfffff3bb
    1704:	44189045 	ldrmi	r9, [r8], #-69	; 0xffffffbb
    1708:	00815649 	addeq	r5, r1, r9, asr #12
    170c:	de4d4944 	vmlsle.f16	s9, s26, s8	; <UNPREDICTABLE>
    1710:	41524402 	cmpmi	r2, r2, lsl #8
    1714:	4502df57 	strmi	sp, [r2, #-3927]	; 0xfffff0a9
    1718:	5250444e 	subspl	r4, r0, #1308622848	; 0x4e000000
    171c:	01e1434f 	mvneq	r4, pc, asr #6
    1720:	54494445 	strbpl	r4, [r9], #-1093	; 0xfffffbbb
    1724:	4e452991 			; <UNDEFINED> instruction: 0x4e452991
    1728:	49485744 	stmdbmi	r8, {r2, r6, r8, r9, sl, ip, lr}^
    172c:	01ce454c 	biceq	r4, lr, ip, asr #10
    1730:	43444e45 	movtmi	r4, #20037	; 0x4e45
    1734:	cb455341 	blgt	1156440 <BASIC$$Code+0x1156440>
    1738:	444e4501 	strbmi	r4, [lr], #-1281	; 0xfffffaff
    173c:	01cd4649 	biceq	r4, sp, r9, asr #12
    1740:	e0444e45 	sub	r4, r4, r5, asr #28
    1744:	564e4501 	strbpl	r4, [lr], -r1, lsl #10
    1748:	504f4c45 	subpl	r4, pc, r5, asr #24
    174c:	4502e245 	strmi	lr, [r2, #-581]	; 0xfffffdbb
    1750:	8b45534c 	blhi	1156488 <BASIC$$Code+0x1156488>
    1754:	41564514 	cmpmi	r6, r4, lsl r5
    1758:	4500a04c 	strmi	sl, [r0, #-76]	; 0xffffffb4
    175c:	019e4c52 	orrseq	r4, lr, r2, asr ip
    1760:	4f525245 	svcmi	0x00525245
    1764:	45048552 	strmi	r8, [r4, #-1362]	; 0xfffffaae
    1768:	01c5464f 	biceq	r4, r5, pc, asr #12
    176c:	82524f45 	subshi	r4, r2, #276	; 0x114
    1770:	52524500 	subspl	r4, r2, #0, 10
    1774:	5845019f 	stmdapl	r5, {r0, r1, r2, r3, r4, r7, r8}^
    1778:	4500a150 	strmi	sl, [r0, #-336]	; 0xfffffeb0
    177c:	01a25458 			; <UNDEFINED> instruction: 0x01a25458
    1780:	e3524f46 	cmp	r2, #280	; 0x118
    1784:	4c414602 	mcrrmi	6, 0, r4, r1, cr2
    1788:	01a34553 			; <UNDEFINED> instruction: 0x01a34553
    178c:	4c4c4946 	mcrrmi	9, 4, r4, ip, cr6	; <UNPREDICTABLE>
    1790:	4e464a90 			; <UNDEFINED> instruction: 0x4e464a90
    1794:	4f4700a4 	svcmi	0x004700a4
    1798:	12e54f54 	rscne	r4, r5, #84, 30	; 0x150
    179c:	24544547 	ldrbcs	r4, [r4], #-1351	; 0xfffffab9
    17a0:	454700be 	strbmi	r0, [r7, #-190]	; 0xffffff42
    17a4:	4700a554 	smlsdmi	r0, r4, r5, sl
    17a8:	4255534f 	subsmi	r5, r5, #1006632961	; 0x3c000001
    17ac:	434712e4 	movtmi	r1, #29412	; 0x72e4
    17b0:	02e64c4f 	rsceq	r4, r6, #20224	; 0x4f00
    17b4:	454d4948 	strbmi	r4, [sp, #-2376]	; 0xfffff6b8
    17b8:	4843934d 	stmdami	r3, {r0, r2, r3, r6, r8, r9, ip, pc}^
    17bc:	92504c45 	subsls	r4, r0, #17664	; 0x4500
    17c0:	504e4909 	subpl	r4, lr, r9, lsl #18
    17c4:	02e85455 	rsceq	r5, r8, #1426063360	; 0x55000000
    17c8:	02e74649 	rsceq	r4, r7, #76546048	; 0x4900000
    17cc:	454b4e49 	strbmi	r4, [fp, #-3657]	; 0xfffff1b7
    17d0:	00bf2459 	adcseq	r2, pc, r9, asr r4	; <UNPREDICTABLE>
    17d4:	454b4e49 	strbmi	r4, [fp, #-3657]	; 0xfffff1b7
    17d8:	4900a659 	stmdbmi	r0, {r0, r3, r4, r6, r9, sl, sp, pc}
    17dc:	00a8544e 	adceq	r5, r8, lr, asr #8
    17e0:	54534e49 	ldrbpl	r4, [r3], #-3657	; 0xfffff1b7
    17e4:	80a72852 	adchi	r2, r7, r2, asr r8
    17e8:	54534e49 	ldrbpl	r4, [r3], #-3657	; 0xfffff1b7
    17ec:	9a4c4c41 	bls	13148f8 <BASIC$$Code+0x13148f8>
    17f0:	53494c4a 	movtpl	r4, #40010	; 0x9c4a
    17f4:	4c189354 	ldcmi	3, cr9, [r8], {84}	; 0x54
    17f8:	86454e49 	strbhi	r4, [r5], -r9, asr #28
    17fc:	414f4c02 	cmpmi	pc, r2, lsl #24
    1800:	4c0a9444 	cfstrsmi	mvf9, [sl], {68}	; 0x44
    1804:	4d454d4f 	stclmi	13, cr4, [r5, #-316]	; 0xfffffec4
    1808:	4f4c4392 	svcmi	0x004c4392
    180c:	ea4c4143 	b	1311d20 <BASIC$$Code+0x1311d20>
    1810:	46454c02 	strbmi	r4, [r5], -r2, lsl #24
    1814:	c0282454 	eorgt	r2, r8, r4, asr r4
    1818:	4e454c80 	cdpmi	12, 4, cr4, cr5, cr0, {4}
    181c:	454c00a9 	strbmi	r0, [ip, #-169]	; 0xffffff57
    1820:	4c04e954 			; <UNDEFINED> instruction: 0x4c04e954
    1824:	00ab474f 	adceq	r4, fp, pc, asr #14
    1828:	00aa4e4c 	adceq	r4, sl, ip, asr #28
    182c:	5242494c 	subpl	r4, r2, #76, 18	; 0x130000
    1830:	9b595241 	blls	165613c <BASIC$$Code+0x165613c>
    1834:	41564c4a 	cmpmi	r6, sl, asr #24
    1838:	4d099552 	cfstr32mi	mvfx9, [r9, #-328]	; 0xfffffeb8
    183c:	28244449 	stmdacs	r4!, {r0, r3, r6, sl, lr}
    1840:	4f4d80c1 	svcmi	0x004d80c1
    1844:	02eb4544 	rsceq	r4, fp, #68, 10	; 0x11000000
    1848:	83444f4d 	movthi	r4, #20301	; 0x4f4d
    184c:	564f4d00 	strbpl	r4, [pc], -r0, lsl #26
    1850:	4d02ec45 	stcmi	12, cr14, [r2, #-276]	; 0xfffffeec
    1854:	4553554f 	ldrbmi	r5, [r3, #-1359]	; 0xfffffab1
    1858:	454e4a97 	strbmi	r4, [lr, #-2711]	; 0xfffff569
    185c:	02ed5458 	rsceq	r5, sp, #88, 8	; 0x58000000
    1860:	9657454e 	ldrbls	r4, [r7], -lr, asr #10
    1864:	544f4e09 	strbpl	r4, [pc], #-3593	; 186c <BASIC$$Code+0x186c>
    1868:	4c4f00ac 	mcrrmi	0, 10, r0, pc, cr12
    186c:	4f099744 	svcmi	0x00099744
    1870:	4f02ee4e 	svcmi	0x0002ee4e
    1874:	00874646 	addeq	r4, r7, r6, asr #12
    1878:	00ca464f 	sbceq	r4, sl, pc, asr #12
    187c:	4749524f 	strbmi	r5, [r9, -pc, asr #4]
    1880:	4a914e49 	bmi	fe4551ac <BASIC$$Code+0xfe4551ac>
    1884:	0084524f 	addeq	r5, r4, pc, asr #4
    1888:	4e45504f 	cdpmi	0, 4, cr5, cr5, cr15, {2}
    188c:	008e4e49 	addeq	r4, lr, r9, asr #28
    1890:	4e45504f 	cdpmi	0, 4, cr5, cr5, cr15, {2}
    1894:	ae54554f 	cdpge	5, 5, cr5, cr4, cr15, {2}
    1898:	45504f00 	ldrbmi	r4, [r0, #-3840]	; 0xfffff100
    189c:	ad50554e 	cfldr64ge	mvdx5, [r0, #-312]	; 0xfffffec8
    18a0:	43534f00 	cmpmi	r3, #0, 30
    18a4:	02ff494c 	rscseq	r4, pc, #76, 18	; 0x130000
    18a8:	4548544f 	strbmi	r5, [r8, #-1103]	; 0xfffffbb1
    18ac:	53495752 	movtpl	r5, #38738	; 0x9752
    18b0:	50047f45 	andpl	r7, r4, r5, asr #30
    18b4:	544e4952 	strbpl	r4, [lr], #-2386	; 0xfffff6ae
    18b8:	415002f1 	ldrshmi	r0, [r0, #-33]	; 0xffffffdf
    18bc:	43904547 	orrsmi	r4, r0, #297795584	; 0x11c00000
    18c0:	8f525450 	svchi	0x00525450
    18c4:	af495043 	svcge	0x00495043
    18c8:	4f4c5001 	svcmi	0x004c5001
    18cc:	5002f054 	andpl	pc, r2, r4, asr r0	; <UNPREDICTABLE>
    18d0:	544e494f 	strbpl	r4, [lr], #-2383	; 0xfffff6b1
    18d4:	5080b028 	addpl	fp, r0, r8, lsr #32
    18d8:	544e494f 	strbpl	r4, [lr], #-2383	; 0xfffff6b1
    18dc:	52504a92 	subspl	r4, r0, #598016	; 0x92000
    18e0:	02f2434f 	rscseq	r4, r2, #1006632961	; 0x3c000001
    18e4:	b1534f50 	cmplt	r3, r0, asr pc
    18e8:	49555101 	ldmdbmi	r5, {r0, r8, ip, lr}^
    18ec:	52499854 	subpl	r9, r9, #84, 16	; 0x540000
    18f0:	52555445 	subspl	r5, r5, #1157627904	; 0x45000000
    18f4:	5201f84e 	andpl	pc, r1, #5111808	; 0x4e0000
    18f8:	41455045 	cmpmi	r5, r5, asr #32
    18fc:	5200f554 	andpl	pc, r0, #84, 10	; 0x15000000
    1900:	524f5045 	subpl	r5, pc, #69	; 0x45
    1904:	5201f654 	andpl	pc, r1, #84, 12	; 0x5400000
    1908:	f3444145 	vrhadd.u8	q10, q2, <illegal reg q2.5>
    190c:	4d455202 	sfmmi	f5, 2, [r5, #-8]
    1910:	555220f4 	ldrbpl	r2, [r2, #-244]	; 0xffffff0c
    1914:	5201f94e 	andpl	pc, r1, #1277952	; 0x138000
    1918:	00b24441 	adcseq	r4, r2, r1, asr #8
    191c:	54534552 	ldrbpl	r4, [r3], #-1362	; 0xfffffaae
    1920:	f745524f 			; <UNDEFINED> instruction: 0xf745524f
    1924:	47495212 	smlaldmi	r5, r9, r2, r2
    1928:	28245448 	stmdacs	r4!, {r3, r6, sl, ip, lr}
    192c:	4e5280c2 	cdpmi	0, 5, cr8, cr2, cr2, {6}
    1930:	5201b344 	andpl	fp, r1, #68, 6	; 0x10000001
    1934:	41544345 	cmpmi	r4, r5, asr #6
    1938:	454c474e 	strbmi	r4, [ip, #-1870]	; 0xfffff8b2
    193c:	45524a93 	ldrbmi	r4, [r2, #-2707]	; 0xfffff56d
    1940:	424d554e 	submi	r5, sp, #327155712	; 0x13800000
    1944:	18985245 	ldmne	r8, {r0, r2, r6, r9, ip, lr}
    1948:	50455453 	subpl	r5, r5, r3, asr r4
    194c:	41530088 	cmpmi	r3, r8, lsl #1
    1950:	0a994556 	beq	fe652eb0 <BASIC$$Code+0xfe652eb0>
    1954:	b44e4753 	strblt	r4, [lr], #-1875	; 0xfffff8ad
    1958:	4e495300 	cdpmi	3, 4, cr5, cr9, cr0, {0}
    195c:	515300b5 	ldrhpl	r0, [r3, #-5]
    1960:	5300b652 	movwpl	fp, #1618	; 0x652
    1964:	00894350 	addeq	r4, r9, r0, asr r3
    1968:	24525453 	ldrbcs	r5, [r2], #-1107	; 0xfffffbad
    196c:	545300c3 	ldrbpl	r0, [r3], #-195	; 0xffffff3d
    1970:	474e4952 	smlsldmi	r4, lr, r2, r9
    1974:	80c42824 	sbchi	r2, r4, r4, lsr #16
    1978:	4e554f53 	mrcmi	15, 2, r4, cr5, cr3, {2}
    197c:	5302d444 	movwpl	sp, #9284	; 0x2444
    1980:	fa504f54 	blx	14156d8 <BASIC$$Code+0x14156d8>
    1984:	41575301 	cmpmi	r7, r1, lsl #6
    1988:	534a9450 	movtpl	r9, #42064	; 0xa450
    198c:	4a995359 	bmi	fe6566f8 <BASIC$$Code+0xfe6566f8>
    1990:	8e4d5553 	mcrhi	5, 2, r5, cr13, cr3, {2}
    1994:	4e41540e 	cdpmi	4, 4, cr5, cr1, cr14, {0}
    1998:	485400b7 	ldmdami	r4, {r0, r1, r2, r4, r5, r7}^
    199c:	148c4e45 	strne	r4, [ip], #3653	; 0xe45
    19a0:	00b84f54 	adcseq	r4, r8, r4, asr pc
    19a4:	28424154 	stmdacs	r2, {r2, r4, r6, r8, lr}^
    19a8:	5254808a 	subspl	r8, r4, #138	; 0x8a
    19ac:	fc454341 	mcrr2	3, 4, r4, r5, cr1
    19b0:	4d495412 	cfstrdmi	mvd5, [r9, #-72]	; 0xffffffb8
    19b4:	54439145 	strbpl	r9, [r3], #-325	; 0xfffffebb
    19b8:	b9455552 	stmdblt	r5, {r1, r4, r6, r8, sl, ip, lr}^
    19bc:	4e495401 	cdpmi	4, 4, cr5, cr9, cr1, {0}
    19c0:	544a9c54 	strbpl	r9, [sl], #-3156	; 0xfffff3ac
    19c4:	4f4e4957 	svcmi	0x004e4957
    19c8:	57540a9b 			; <UNDEFINED> instruction: 0x57540a9b
    19cc:	099a4e49 	ldmibeq	sl, {r0, r3, r6, r9, sl, fp, lr}
    19d0:	49544e55 	ldmdbmi	r4, {r0, r2, r4, r6, r9, sl, fp, lr}^
    19d4:	5502fd4c 	strpl	pc, [r2, #-3404]	; 0xfffff2b4
    19d8:	00ba5253 	adcseq	r5, sl, r3, asr r2
    19dc:	ef554456 	svc	0x00554456
    19e0:	4c415602 	mcrrmi	6, 0, r5, r1, cr2
    19e4:	505600bb 	ldrhpl	r0, [r6], #-11
    19e8:	01bc534f 			; <UNDEFINED> instruction: 0x01bc534f
    19ec:	4c494857 	mcrrmi	8, 5, r4, r9, cr7
    19f0:	574a9545 	strbpl	r9, [sl, -r5, asr #10]
    19f4:	c94e4548 	stmdbgt	lr, {r3, r6, r8, sl, lr}^
    19f8:	49415702 	stmdbmi	r1, {r1, r8, r9, sl, ip, lr}^
    19fc:	57499654 	smlsldpl	r9, r9, r4, r6	; <UNPREDICTABLE>
    1a00:	48544449 	ldmdami	r4, {r0, r3, r6, sl, lr}^
    1a04:	752002fe 	strvc	r0, [r0, #-766]!	; 0xfffffd02
    1a08:	73696c6e 	cmnvc	r9, #28160	; 0x6e00
    1a0c:	6c626174 	stfvse	f6, [r2], #-464	; 0xfffffe30
    1a10:	6f742065 	svcvs	0x00742065
    1a14:	206e656b 	rsbcs	r6, lr, fp, ror #10
    1a18:	eb0015ee 	bl	71d8 <BASIC$$Code+0x71d8>
    1a1c:	ebfffdac 	bl	10d4 <BASIC$$Code+0x10d4>
    1a20:	ebfffd9f 	bl	10a4 <BASIC$$Code+0x10a4>
    1a24:	e5980160 	ldr	r0, [r8, #352]	; 0x160
    1a28:	e3a02000 	mov	r2, #0
    1a2c:	e5d03001 	ldrb	r3, [r0, #1]
    1a30:	e35300ff 	cmp	r3, #255	; 0xff
    1a34:	15d03003 	ldrbne	r3, [r0, #3]
    1a38:	11a02000 	movne	r2, r0
    1a3c:	10800003 	addne	r0, r0, r3
    1a40:	1afffff9 	bne	1a2c <BASIC$$Code+0x1a2c>
    1a44:	e5d23001 	ldrb	r3, [r2, #1]
    1a48:	e5d20002 	ldrb	r0, [r2, #2]
    1a4c:	e1807403 	orr	r7, r0, r3, lsl #8
    1a50:	e3320000 	teq	r2, #0
    1a54:	03a0700a 	moveq	r7, #10
    1a58:	e3a000ff 	mov	r0, #255	; 0xff
    1a5c:	e598c164 	ldr	ip, [r8, #356]	; 0x164
    1a60:	e24c2002 	sub	r2, ip, #2
    1a64:	e3a03000 	mov	r3, #0
    1a68:	ef000008 	svc	0x00000008
    1a6c:	eb000074 	bl	1c44 <BASIC$$Code+0x1c44>
    1a70:	e1a00007 	mov	r0, r7
    1a74:	eb001d7d 	bl	9070 <BASIC$$Code+0x9070>
    1a78:	e3a02000 	mov	r2, #0
    1a7c:	eb001d5d 	bl	8ff8 <BASIC$$Code+0x8ff8>
    1a80:	eb001d5c 	bl	8ff8 <BASIC$$Code+0x8ff8>
    1a84:	eb001d94 	bl	90dc <BASIC$$Code+0x90dc>
    1a88:	e2800001 	add	r0, r0, #1
    1a8c:	e0604100 	rsb	r4, r0, r0, lsl #2
    1a90:	e0804184 	add	r4, r0, r4, lsl #3
    1a94:	e1a04104 	lsl	r4, r4, #2
    1a98:	e24c0002 	sub	r0, ip, #2
    1a9c:	e3a0500a 	mov	r5, #10
    1aa0:	eb0002e7 	bl	2644 <BASIC$$Code+0x2644>
    1aa4:	eafffaa0 	b	52c <BASIC$$Code+0x52c>
    1aa8:	eb00000f 	bl	1aec <BASIC$$Code+0x1aec>
    1aac:	eb000064 	bl	1c44 <BASIC$$Code+0x1c44>
    1ab0:	e92d0030 	push	{r4, r5}
    1ab4:	e1a00004 	mov	r0, r4
    1ab8:	e3a09000 	mov	r9, #0
    1abc:	eb000076 	bl	1c9c <BASIC$$Code+0x1c9c>
    1ac0:	ebfffcc6 	bl	de0 <BASIC$$Code+0xde0>
    1ac4:	ebfffdb0 	bl	118c <BASIC$$Code+0x118c>
    1ac8:	e59d4000 	ldr	r4, [sp]
    1acc:	e288cb01 	add	ip, r8, #1024	; 0x400
    1ad0:	ebfffcf2 	bl	ea0 <BASIC$$Code+0xea0>
    1ad4:	ebfffc79 	bl	cc0 <BASIC$$Code+0xcc0>
    1ad8:	e8bd0030 	pop	{r4, r5}
    1adc:	e0844005 	add	r4, r4, r5
    1ae0:	e3540cff 	cmp	r4, #65280	; 0xff00
    1ae4:	3afffff1 	bcc	1ab0 <BASIC$$Code+0x1ab0>
    1ae8:	eafffa8f 	b	52c <BASIC$$Code+0x52c>
    1aec:	e92d4000 	stmfd	sp!, {lr}
    1af0:	e3a0000a 	mov	r0, #10
    1af4:	ebfffd40 	bl	ffc <BASIC$$Code+0xffc>
    1af8:	124cc001 	subne	ip, ip, #1
    1afc:	e1a04000 	mov	r4, r0
    1b00:	e3a0000a 	mov	r0, #10
    1b04:	ebfffd4b 	bl	1038 <BASIC$$Code+0x1038>
    1b08:	e35a002c 	cmp	sl, #44	; 0x2c
    1b0c:	1a000001 	bne	1b18 <BASIC$$Code+0x1b18>
    1b10:	ebfffd39 	bl	ffc <BASIC$$Code+0xffc>
    1b14:	0bfffd47 	bleq	1038 <BASIC$$Code+0x1038>
    1b18:	ebfffd65 	bl	10b4 <BASIC$$Code+0x10b4>
    1b1c:	e1b05000 	movs	r5, r0
    1b20:	18bd8000 	ldmfdne	sp!, {pc}
    1b24:	ea00228b 	b	a558 <BASIC$$Code+0xa558>
    1b28:	ebfffd33 	bl	ffc <BASIC$$Code+0xffc>
    1b2c:	1a00243a 	bne	ac1c <BASIC$$Code+0xac1c>
    1b30:	e1a04000 	mov	r4, r0
    1b34:	ebfffd3f 	bl	1038 <BASIC$$Code+0x1038>
    1b38:	e35a002c 	cmp	sl, #44	; 0x2c
    1b3c:	1a002332 	bne	a80c <BASIC$$Code+0xa80c>
    1b40:	ebfffd2d 	bl	ffc <BASIC$$Code+0xffc>
    1b44:	1a002434 	bne	ac1c <BASIC$$Code+0xac1c>
    1b48:	e1a05000 	mov	r5, r0
    1b4c:	ebfffcc0 	bl	e54 <BASIC$$Code+0xe54>
    1b50:	eafffa75 	b	52c <BASIC$$Code+0x52c>
    1b54:	e28fc000 	add	ip, pc, #0
    1b58:	eafffb36 	b	838 <BASIC$$Code+0x838>
    1b5c:	2d932821 	ldccs	8, cr2, [r3, #132]	; 0x84
    1b60:	403d2934 	eorsmi	r2, sp, r4, lsr r9
    1b64:	22f13a25 	rscscs	r3, r1, #151552	; 0x25000
    1b68:	324d5241 	subcc	r5, sp, #268435460	; 0x10000004
    1b6c:	43424220 	movtmi	r4, #8736	; 0x2220
    1b70:	73614220 	cmnvc	r1, #32, 4
    1b74:	56206369 	strtpl	r6, [r0], -r9, ror #6
    1b78:	73736120 	cmnvc	r3, #32, 2
    1b7c:	6c626d65 	stclvs	13, cr6, [r2], #-404	; 0xfffffe6c
    1b80:	6f206465 	svcvs	0x00206465
    1b84:	3132206e 	teqcc	r2, lr, rrx
    1b88:	322f3126 	eorcc	r3, pc, #-2147483639	; 0x80000009
    1b8c:	41206874 			; <UNDEFINED> instruction: 0x41206874
    1b90:	6c697270 	sfmvs	f7, 2, [r9], #-448	; 0xfffffe40
    1b94:	38393120 	ldmdacc	r9!, {r5, r8, ip, sp}
    1b98:	403a2237 	eorsmi	r2, sl, r7, lsr r2
    1b9c:	39263d25 	stmdbcc	r6!, {r0, r2, r5, r8, sl, fp, ip, sp}
    1ba0:	f13a3030 			; <UNDEFINED> instruction: 0xf13a3030
    1ba4:	73614222 	cmnvc	r1, #536870914	; 0x20000002
    1ba8:	70206369 	eorvc	r6, r0, r9, ror #6
    1bac:	72676f72 	rsbvc	r6, r7, #456	; 0x1c8
    1bb0:	73206d61 			; <UNDEFINED> instruction: 0x73206d61
    1bb4:	20657a69 	rsbcs	r7, r5, r9, ror #20
    1bb8:	2d50b822 	ldclcs	8, cr11, [r0, #-136]	; 0xffffff78
    1bbc:	62202290 	eorvs	r2, r0, #144, 4
    1bc0:	73657479 	cmnvc	r5, #2030043136	; 0x79000000
    1bc4:	22f13a22 	rscscs	r3, r1, #139264	; 0x22000
    1bc8:	69736142 	ldmdbvs	r3!, {r1, r6, r8, sp, lr}^
    1bcc:	61762063 	cmnvs	r6, r3, rrx
    1bd0:	62616972 	rsbvs	r6, r1, #1867776	; 0x1c8000
    1bd4:	2073656c 	rsbscs	r6, r3, ip, ror #10
    1bd8:	20657375 	rsbcs	r7, r5, r5, ror r3
    1bdc:	922de022 	eorls	lr, sp, #34	; 0x22
    1be0:	79622022 	stmdbvc	r2!, {r1, r5, sp}^
    1be4:	22736574 	rsbscs	r6, r3, #116, 10	; 0x1d000000
    1be8:	4d22f13a 	stfmid	f7, [r2, #-232]!	; 0xffffff18
    1bec:	726f6d65 	rsbvc	r6, pc, #6464	; 0x1940
    1bf0:	65722079 	ldrbvs	r2, [r2, #-121]!	; 0xffffff87
    1bf4:	6e69616d 	powvsez	f6, f1, #5.0
    1bf8:	20676e69 	rsbcs	r6, r7, r9, ror #28
    1bfc:	22207369 	eorcs	r7, r0, #-1543503871	; 0xa4000001
    1c00:	22e02d93 	rsccs	r2, r0, #9408	; 0x24c0
    1c04:	74796220 	ldrbtvc	r6, [r9], #-544	; 0xfffffde0
    1c08:	3a227365 	bcc	89e9a4 <BASIC$$Code+0x89e9a4>
    1c0c:	213d2540 	teqcs	sp, r0, asr #10
    1c10:	342d9328 	strtcc	r9, [sp], #-808	; 0xfffffcd8
    1c14:	0de03a29 			; <UNDEFINED> instruction: 0x0de03a29
    1c18:	eb000000 	bl	1c20 <BASIC$$Code+0x1c20>
    1c1c:	eafffa42 	b	52c <BASIC$$Code+0x52c>
    1c20:	e92d4000 	stmfd	sp!, {lr}
    1c24:	eb00156b 	bl	71d8 <BASIC$$Code+0x71d8>
    1c28:	ebfffd29 	bl	10d4 <BASIC$$Code+0x10d4>
    1c2c:	ebfffd1c 	bl	10a4 <BASIC$$Code+0x10a4>
    1c30:	e3a000ff 	mov	r0, #255	; 0xff
    1c34:	e5982160 	ldr	r2, [r8, #352]	; 0x160
    1c38:	e3a03000 	mov	r3, #0
    1c3c:	ef000008 	svc	0x00000008
    1c40:	e8bd4000 	ldmfd	sp!, {lr}
    1c44:	e5980160 	ldr	r0, [r8, #352]	; 0x160
    1c48:	e5d01000 	ldrb	r1, [r0]
    1c4c:	e351000d 	cmp	r1, #13
    1c50:	1a000006 	bne	1c70 <BASIC$$Code+0x1c70>
    1c54:	e5d01001 	ldrb	r1, [r0, #1]
    1c58:	e35100ff 	cmp	r1, #255	; 0xff
    1c5c:	0a000009 	beq	1c88 <BASIC$$Code+0x1c88>
    1c60:	e5d01003 	ldrb	r1, [r0, #3]
    1c64:	e3510004 	cmp	r1, #4
    1c68:	20800001 	addcs	r0, r0, r1
    1c6c:	2afffff5 	bcs	1c48 <BASIC$$Code+0x1c48>
    1c70:	ebfffcc0 	bl	f78 <BASIC$$Code+0xf78>
    1c74:	61420a0d 	cmpvs	r2, sp, lsl #20
    1c78:	72702064 	rsbsvc	r2, r0, #100	; 0x64
    1c7c:	6172676f 	cmnvs	r2, pc, ror #14
    1c80:	000d0a6d 	andeq	r0, sp, sp, ror #20
    1c84:	eafffa29 	b	530 <BASIC$$Code+0x530>
    1c88:	e2800002 	add	r0, r0, #2
    1c8c:	e5880164 	str	r0, [r8, #356]	; 0x164
    1c90:	e1a0f00e 	mov	pc, lr
    1c94:	e3a04000 	mov	r4, #0
    1c98:	ea000000 	b	1ca0 <BASIC$$Code+0x1ca0>
    1c9c:	e3a04005 	mov	r4, #5
    1ca0:	e92d406c 	push	{r2, r3, r5, r6, lr}
    1ca4:	e1a01000 	mov	r1, r0
    1ca8:	e3a03004 	mov	r3, #4
    1cac:	e28f5044 	add	r5, pc, #68	; 0x44
    1cb0:	e3a00030 	mov	r0, #48	; 0x30
    1cb4:	e7956103 	ldr	r6, [r5, r3, lsl #2]
    1cb8:	e0511006 	subs	r1, r1, r6
    1cbc:	22800001 	addcs	r0, r0, #1
    1cc0:	2afffffc 	bcs	1cb8 <BASIC$$Code+0x1cb8>
    1cc4:	e0811006 	add	r1, r1, r6
    1cc8:	e3500030 	cmp	r0, #48	; 0x30
    1ccc:	13a04001 	movne	r4, #1
    1cd0:	e3340001 	teq	r4, #1
    1cd4:	13330000 	teqne	r3, #0
    1cd8:	0a000002 	beq	1ce8 <BASIC$$Code+0x1ce8>
    1cdc:	e3340000 	teq	r4, #0
    1ce0:	0a000001 	beq	1cec <BASIC$$Code+0x1cec>
    1ce4:	e3a00020 	mov	r0, #32
    1ce8:	eb000014 	bl	1d40 <BASIC$$Code+0x1d40>
    1cec:	e2533001 	subs	r3, r3, #1
    1cf0:	2affffee 	bcs	1cb0 <BASIC$$Code+0x1cb0>
    1cf4:	e8bd806c 	pop	{r2, r3, r5, r6, pc}
    1cf8:	00000001 	andeq	r0, r0, r1
    1cfc:	0000000a 	andeq	r0, r0, sl
    1d00:	00000064 	andeq	r0, r0, r4, rrx
    1d04:	000003e8 	andeq	r0, r0, r8, ror #7
    1d08:	00002710 	andeq	r2, r0, r0, lsl r7
    1d0c:	e3a09000 	mov	r9, #0
    1d10:	e92d4002 	push	{r1, lr}
    1d14:	e1b01000 	movs	r1, r0
    1d18:	48bd8002 	popmi	{r1, pc}
    1d1c:	08bd8002 	popeq	{r1, pc}
    1d20:	e20110ff 	and	r1, r1, #255	; 0xff
    1d24:	e3a00020 	mov	r0, #32
    1d28:	eb000004 	bl	1d40 <BASIC$$Code+0x1d40>
    1d2c:	e2511001 	subs	r1, r1, #1
    1d30:	1afffffc 	bne	1d28 <BASIC$$Code+0x1d28>
    1d34:	e8bd8002 	pop	{r1, pc}
    1d38:	e3170080 	tst	r7, #128	; 0x80
    1d3c:	0a00001e 	beq	1dbc <BASIC$$Code+0x1dbc>
    1d40:	e3170080 	tst	r7, #128	; 0x80
    1d44:	0a000013 	beq	1d98 <BASIC$$Code+0x1d98>
    1d48:	e3590b01 	cmp	r9, #1024	; 0x400
    1d4c:	3a000011 	bcc	1d98 <BASIC$$Code+0x1d98>
    1d50:	e4c90001 	strb	r0, [r9], #1
    1d54:	e159000d 	cmp	r9, sp
    1d58:	31a0f00e 	movcc	pc, lr
    1d5c:	ebfffc85 	bl	f78 <BASIC$$Code+0xf78>
    1d60:	6f4e0d0a 	svcvs	0x004e0d0a
    1d64:	6e652074 	mcrvs	0, 3, r2, cr5, cr4, {3}
    1d68:	6867756f 	stmdavs	r7!, {r0, r1, r2, r3, r5, r6, r8, sl, ip, sp, lr}^
    1d6c:	6f6f7220 	svcvs	0x006f7220
    1d70:	6f74206d 	svcvs	0x0074206d
    1d74:	6c616320 	stclvs	3, cr6, [r1], #-128	; 0xffffff80
    1d78:	7754206c 	ldrbvc	r2, [r4, -ip, rrx]
    1d7c:	66206e69 	strtvs	r6, [r0], -r9, ror #28
    1d80:	7420726f 	strtvc	r7, [r0], #-623	; 0xfffffd91
    1d84:	20736968 	rsbscs	r6, r3, r8, ror #18
    1d88:	676f7270 			; <UNDEFINED> instruction: 0x676f7270
    1d8c:	0a6d6172 	beq	1b5a35c <BASIC$$Code+0x1b5a35c>
    1d90:	0000000d 	andeq	r0, r0, sp
    1d94:	eafff9e4 	b	52c <BASIC$$Code+0x52c>
    1d98:	e92d0003 	push	{r0, r1}
    1d9c:	e598017c 	ldr	r0, [r8, #380]	; 0x17c
    1da0:	e5981178 	ldr	r1, [r8, #376]	; 0x178
    1da4:	e1500001 	cmp	r0, r1
    1da8:	33a01000 	movcc	r1, #0
    1dac:	3f000003 	svccc	0x00000003
    1db0:	e2811001 	add	r1, r1, #1
    1db4:	e5881178 	str	r1, [r8, #376]	; 0x178
    1db8:	e8bd0003 	pop	{r0, r1}
    1dbc:	ef000000 	svc	0x00000000
    1dc0:	e1a0f00e 	mov	pc, lr
    1dc4:	eb000bb3 	bl	4c98 <BASIC$$Code+0x4c98>
    1dc8:	e28f000c 	add	r0, pc, #12
    1dcc:	ef000005 	svc	0x00000005
    1dd0:	e3500000 	cmp	r0, #0
    1dd4:	0afff9d5 	beq	530 <BASIC$$Code+0x530>
    1dd8:	eafff9d3 	b	52c <BASIC$$Code+0x52c>
    1ddc:	424d5241 	submi	r5, sp, #268435460	; 0x10000004
    1de0:	00000045 	andeq	r0, r0, r5, asr #32
    1de4:	e5d872fe 	ldrb	r7, [r8, #766]	; 0x2fe
    1de8:	e5dc0000 	ldrb	r0, [ip]
    1dec:	e350004f 	cmp	r0, #79	; 0x4f
    1df0:	1a00000e 	bne	1e30 <BASIC$$Code+0x1e30>
    1df4:	028cc001 	addeq	ip, ip, #1
    1df8:	ebfffca3 	bl	108c <BASIC$$Code+0x108c>
    1dfc:	e3500020 	cmp	r0, #32
    1e00:	2a0021ff 	bcs	a604 <BASIC$$Code+0xa604>
    1e04:	e5c802fe 	strb	r0, [r8, #766]	; 0x2fe
    1e08:	eafff9c8 	b	530 <BASIC$$Code+0x530>
    1e0c:	e3a07080 	mov	r7, #128	; 0x80
    1e10:	ebfffca6 	bl	10b0 <BASIC$$Code+0x10b0>
    1e14:	ea000003 	b	1e28 <BASIC$$Code+0x1e28>
    1e18:	ebfffc9b 	bl	108c <BASIC$$Code+0x108c>
    1e1c:	e3500010 	cmp	r0, #16
    1e20:	2a0021fe 	bcs	a620 <BASIC$$Code+0xa620>
    1e24:	e3807080 	orr	r7, r0, #128	; 0x80
    1e28:	ebfffba4 	bl	cc0 <BASIC$$Code+0xcc0>
    1e2c:	e24cc001 	sub	ip, ip, #1
    1e30:	e3a04000 	mov	r4, #0
    1e34:	e3a050ff 	mov	r5, #255	; 0xff
    1e38:	e3855cfe 	orr	r5, r5, #65024	; 0xfe00
    1e3c:	ebfffc6e 	bl	ffc <BASIC$$Code+0xffc>
    1e40:	1a000005 	bne	1e5c <BASIC$$Code+0x1e5c>
    1e44:	e1a04000 	mov	r4, r0
    1e48:	ebfffc7a 	bl	1038 <BASIC$$Code+0x1038>
    1e4c:	e35a002c 	cmp	sl, #44	; 0x2c
    1e50:	0a000003 	beq	1e64 <BASIC$$Code+0x1e64>
    1e54:	e1a05004 	mov	r5, r4
    1e58:	ea000004 	b	1e70 <BASIC$$Code+0x1e70>
    1e5c:	e35a002c 	cmp	sl, #44	; 0x2c
    1e60:	1a000002 	bne	1e70 <BASIC$$Code+0x1e70>
    1e64:	ebfffc64 	bl	ffc <BASIC$$Code+0xffc>
    1e68:	01a05000 	moveq	r5, r0
    1e6c:	0bfffc71 	bleq	1038 <BASIC$$Code+0x1038>
    1e70:	e35a00e7 	cmp	sl, #231	; 0xe7
    1e74:	e1a0b00c 	mov	fp, ip
    1e78:	124cb001 	subne	fp, ip, #1
    1e7c:	1bfffc8c 	blne	10b4 <BASIC$$Code+0x10b4>
    1e80:	ebffff6f 	bl	1c44 <BASIC$$Code+0x1c44>
    1e84:	eb000036 	bl	1f64 <BASIC$$Code+0x1f64>
    1e88:	e1a00004 	mov	r0, r4
    1e8c:	eb0003e5 	bl	2e28 <BASIC$$Code+0x2e28>
    1e90:	e1a0c001 	mov	ip, r1
    1e94:	e3a06000 	mov	r6, #0
    1e98:	ea000007 	b	1ebc <BASIC$$Code+0x1ebc>
    1e9c:	e3a0000a 	mov	r0, #10
    1ea0:	ebffffa4 	bl	1d38 <BASIC$$Code+0x1d38>
    1ea4:	e3570080 	cmp	r7, #128	; 0x80
    1ea8:	3f00010d 	svccc	0x0000010d
    1eac:	e3a00000 	mov	r0, #0
    1eb0:	e5880178 	str	r0, [r8, #376]	; 0x178
    1eb4:	e5d20003 	ldrb	r0, [r2, #3]
    1eb8:	e082c000 	add	ip, r2, r0
    1ebc:	e5dc0001 	ldrb	r0, [ip, #1]
    1ec0:	e5dc1002 	ldrb	r1, [ip, #2]
    1ec4:	e1810400 	orr	r0, r1, r0, lsl #8
    1ec8:	e1500005 	cmp	r0, r5
    1ecc:	9a000028 	bls	1f74 <BASIC$$Code+0x1f74>
    1ed0:	e3570080 	cmp	r7, #128	; 0x80
    1ed4:	3afff995 	bcc	530 <BASIC$$Code+0x530>
    1ed8:	e2881c03 	add	r1, r8, #768	; 0x300
    1edc:	e59f0054 	ldr	r0, [pc, #84]	; 1f38 <BASIC$$Code+0x1f38>
    1ee0:	e4810004 	str	r0, [r1], #4
    1ee4:	e3a00020 	mov	r0, #32
    1ee8:	e4c10001 	strb	r0, [r1], #1
    1eec:	e3a00040 	mov	r0, #64	; 0x40
    1ef0:	e4c10001 	strb	r0, [r1], #1
    1ef4:	e1a04009 	mov	r4, r9
    1ef8:	eb000019 	bl	1f64 <BASIC$$Code+0x1f64>
    1efc:	eb00000e 	bl	1f3c <BASIC$$Code+0x1f3c>
    1f00:	e3a0002c 	mov	r0, #44	; 0x2c
    1f04:	e4c10001 	strb	r0, [r1], #1
    1f08:	e1a09004 	mov	r9, r4
    1f0c:	eb00000a 	bl	1f3c <BASIC$$Code+0x1f3c>
    1f10:	e3a0003b 	mov	r0, #59	; 0x3b
    1f14:	e4c10001 	strb	r0, [r1], #1
    1f18:	e2883fab 	add	r3, r8, #684	; 0x2ac
    1f1c:	e4d30001 	ldrb	r0, [r3], #1
    1f20:	e4c10001 	strb	r0, [r1], #1
    1f24:	e3300000 	teq	r0, #0
    1f28:	1afffffb 	bne	1f1c <BASIC$$Code+0x1f1c>
    1f2c:	e2880c03 	add	r0, r8, #768	; 0x300
    1f30:	eb000b58 	bl	4c98 <BASIC$$Code+0x4c98>
    1f34:	ef000005 	svc	0x00000005
    1f38:	6e697754 	mcrvs	7, 3, r7, cr9, cr4, {2}
    1f3c:	e3a0201c 	mov	r2, #28
    1f40:	e1a00239 	lsr	r0, r9, r2
    1f44:	e200000f 	and	r0, r0, #15
    1f48:	e3500009 	cmp	r0, #9
    1f4c:	93800030 	orrls	r0, r0, #48	; 0x30
    1f50:	82800037 	addhi	r0, r0, #55	; 0x37
    1f54:	e4c10001 	strb	r0, [r1], #1
    1f58:	e2522004 	subs	r2, r2, #4
    1f5c:	5afffff7 	bpl	1f40 <BASIC$$Code+0x1f40>
    1f60:	e1a0f00e 	mov	pc, lr
    1f64:	e5989170 	ldr	r9, [r8, #368]	; 0x170
    1f68:	e3590a09 	cmp	r9, #36864	; 0x9000
    1f6c:	33a09a09 	movcc	r9, #36864	; 0x9000
    1f70:	e1a0f00e 	mov	pc, lr
    1f74:	e5d83290 	ldrb	r3, [r8, #656]	; 0x290
    1f78:	e3530080 	cmp	r3, #128	; 0x80
    1f7c:	2a00232b 	bcs	ac30 <BASIC$$Code+0xac30>
    1f80:	e3a04000 	mov	r4, #0
    1f84:	e5dbe000 	ldrb	lr, [fp]
    1f88:	e35e000d 	cmp	lr, #13
    1f8c:	03a04001 	moveq	r4, #1
    1f90:	e3a03000 	mov	r3, #0
    1f94:	e1a0200c 	mov	r2, ip
    1f98:	e28cc004 	add	ip, ip, #4
    1f9c:	e3360000 	teq	r6, #0
    1fa0:	43a06000 	movmi	r6, #0
    1fa4:	e92d0040 	stmfd	sp!, {r6}
    1fa8:	e4dca001 	ldrb	sl, [ip], #1
    1fac:	e35a000d 	cmp	sl, #13
    1fb0:	0a000025 	beq	204c <BASIC$$Code+0x204c>
    1fb4:	e35a00f4 	cmp	sl, #244	; 0xf4
    1fb8:	01a0300a 	moveq	r3, sl
    1fbc:	e35a0022 	cmp	sl, #34	; 0x22
    1fc0:	0023300a 	eoreq	r3, r3, sl
    1fc4:	e3330000 	teq	r3, #0
    1fc8:	1a000011 	bne	2014 <BASIC$$Code+0x2014>
    1fcc:	e35a00ed 	cmp	sl, #237	; 0xed
    1fd0:	135a00fd 	cmpne	sl, #253	; 0xfd
    1fd4:	135a00ce 	cmpne	sl, #206	; 0xce
    1fd8:	135a00cb 	cmpne	sl, #203	; 0xcb
    1fdc:	135a00cd 	cmpne	sl, #205	; 0xcd
    1fe0:	02466002 	subeq	r6, r6, #2
    1fe4:	e35a00e3 	cmp	sl, #227	; 0xe3
    1fe8:	135a00f5 	cmpne	sl, #245	; 0xf5
    1fec:	02866002 	addeq	r6, r6, #2
    1ff0:	e55ce002 	ldrb	lr, [ip, #-2]
    1ff4:	e33e00c8 	teq	lr, #200	; 0xc8
    1ff8:	133e00c6 	teqne	lr, #198	; 0xc6
    1ffc:	133e00c7 	teqne	lr, #199	; 0xc7
    2000:	1a000003 	bne	2014 <BASIC$$Code+0x2014>
    2004:	e35a0095 	cmp	sl, #149	; 0x95
    2008:	135a008e 	cmpne	sl, #142	; 0x8e
    200c:	02866002 	addeq	r6, r6, #2
    2010:	eaffffe4 	b	1fa8 <BASIC$$Code+0x1fa8>
    2014:	e3140001 	tst	r4, #1
    2018:	1affffe2 	bne	1fa8 <BASIC$$Code+0x1fa8>
    201c:	e3a01000 	mov	r1, #0
    2020:	e7dbe001 	ldrb	lr, [fp, r1]
    2024:	e35e000d 	cmp	lr, #13
    2028:	03a04001 	moveq	r4, #1
    202c:	0affffdd 	beq	1fa8 <BASIC$$Code+0x1fa8>
    2030:	e35a008d 	cmp	sl, #141	; 0x8d
    2034:	028cc003 	addeq	ip, ip, #3
    2038:	e15e000a 	cmp	lr, sl
    203c:	e7dca001 	ldrb	sl, [ip, r1]
    2040:	e2811001 	add	r1, r1, #1
    2044:	0afffff5 	beq	2020 <BASIC$$Code+0x2020>
    2048:	eaffffd6 	b	1fa8 <BASIC$$Code+0x1fa8>
    204c:	e55ce002 	ldrb	lr, [ip, #-2]
    2050:	e35e008c 	cmp	lr, #140	; 0x8c
    2054:	02866002 	addeq	r6, r6, #2
    2058:	e8bd0008 	ldmfd	sp!, {r3}
    205c:	e1530006 	cmp	r3, r6
    2060:	21a03006 	movcs	r3, r6
    2064:	e3340000 	teq	r4, #0
    2068:	0affff91 	beq	1eb4 <BASIC$$Code+0x1eb4>
    206c:	e282c004 	add	ip, r2, #4
    2070:	eb000000 	bl	2078 <BASIC$$Code+0x2078>
    2074:	eaffff88 	b	1e9c <BASIC$$Code+0x1e9c>
    2078:	e92d4000 	stmfd	sp!, {lr}
    207c:	e3170008 	tst	r7, #8
    2080:	0bffff05 	bleq	1c9c <BASIC$$Code+0x1c9c>
    2084:	e3a04000 	mov	r4, #0
    2088:	e2170001 	ands	r0, r7, #1
    208c:	1bffff1f 	blne	1d10 <BASIC$$Code+0x1d10>
    2090:	ea00000d 	b	20cc <BASIC$$Code+0x20cc>
    2094:	e3170004 	tst	r7, #4
    2098:	0a00000f 	beq	20dc <BASIC$$Code+0x20dc>
    209c:	ebffff27 	bl	1d40 <BASIC$$Code+0x1d40>
    20a0:	e3a0000a 	mov	r0, #10
    20a4:	ebffff23 	bl	1d38 <BASIC$$Code+0x1d38>
    20a8:	e3570080 	cmp	r7, #128	; 0x80
    20ac:	e3a0000d 	mov	r0, #13
    20b0:	3bffff20 	blcc	1d38 <BASIC$$Code+0x1d38>
    20b4:	e3a00000 	mov	r0, #0
    20b8:	e5880178 	str	r0, [r8, #376]	; 0x178
    20bc:	e2070001 	and	r0, r7, #1
    20c0:	e3170008 	tst	r7, #8
    20c4:	02800005 	addeq	r0, r0, #5
    20c8:	ebffff10 	bl	1d10 <BASIC$$Code+0x1d10>
    20cc:	e1b00003 	movs	r0, r3
    20d0:	13170002 	tstne	r7, #2
    20d4:	1bffff0d 	blne	1d10 <BASIC$$Code+0x1d10>
    20d8:	ea000000 	b	20e0 <BASIC$$Code+0x20e0>
    20dc:	ebffff17 	bl	1d40 <BASIC$$Code+0x1d40>
    20e0:	e4dc0001 	ldrb	r0, [ip], #1
    20e4:	e350000d 	cmp	r0, #13
    20e8:	08bd8000 	ldmfdeq	sp!, {pc}
    20ec:	e3500022 	cmp	r0, #34	; 0x22
    20f0:	02244001 	eoreq	r4, r4, #1
    20f4:	e3340000 	teq	r4, #0
    20f8:	1afffff7 	bne	20dc <BASIC$$Code+0x20dc>
    20fc:	e330003a 	teq	r0, #58	; 0x3a
    2100:	0affffe3 	beq	2094 <BASIC$$Code+0x2094>
    2104:	e350007f 	cmp	r0, #127	; 0x7f
    2108:	3afffff3 	bcc	20dc <BASIC$$Code+0x20dc>
    210c:	e350008d 	cmp	r0, #141	; 0x8d
    2110:	1a000007 	bne	2134 <BASIC$$Code+0x2134>
    2114:	ebfffbbd 	bl	1010 <BASIC$$Code+0x1010>
    2118:	ebfffedd 	bl	1c94 <BASIC$$Code+0x1c94>
    211c:	e3a04000 	mov	r4, #0
    2120:	e3170008 	tst	r7, #8
    2124:	0affffed 	beq	20e0 <BASIC$$Code+0x20e0>
    2128:	e3570080 	cmp	r7, #128	; 0x80
    212c:	3f000003 	svccc	0x00000003
    2130:	ea002161 	b	a6bc <BASIC$$Code+0xa6bc>
    2134:	e35000f4 	cmp	r0, #244	; 0xf4
    2138:	03a04004 	moveq	r4, #4
    213c:	ebfffcd4 	bl	1494 <BASIC$$Code+0x1494>
    2140:	eaffffe6 	b	20e0 <BASIC$$Code+0x20e0>
    2144:	ebfffbd9 	bl	10b0 <BASIC$$Code+0x10b0>
    2148:	ebfffb8a 	bl	f78 <BASIC$$Code+0xf78>
    214c:	74617453 	strbtvc	r7, [r1], #-1107	; 0xfffffbad
    2150:	49206369 	stmdbmi	r0!, {r0, r3, r5, r6, r8, r9, sp, lr}
    2154:	6765746e 	strbvs	r7, [r5, -lr, ror #8]!
    2158:	76207265 	strtvc	r7, [r0], -r5, ror #4
    215c:	61697261 	cmnvs	r9, r1, ror #4
    2160:	73656c62 	cmnvc	r5, #25088	; 0x6200
    2164:	2020203a 	eorcs	r2, r0, sl, lsr r0
    2168:	20202020 	eorcs	r2, r0, r0, lsr #32
    216c:	20202020 	eorcs	r2, r0, r0, lsr #32
    2170:	20202020 	eorcs	r2, r0, r0, lsr #32
    2174:	3d202540 	cfstr32cc	mvfx2, [r0, #-256]!	; 0xffffff00
    2178:	00002620 	andeq	r2, r0, r0, lsr #12
    217c:	e28870f4 	add	r7, r8, #244	; 0xf4
    2180:	e497a004 	ldr	sl, [r7], #4
    2184:	eb0020e7 	bl	a528 <BASIC$$Code+0xa528>
    2188:	e3a06041 	mov	r6, #65	; 0x41
    218c:	e3a05003 	mov	r5, #3
    2190:	e280a005 	add	sl, r0, #5
    2194:	e2855001 	add	r5, r5, #1
    2198:	e3150003 	tst	r5, #3
    219c:	0f000003 	svceq	0x00000003
    21a0:	0a000003 	beq	21b4 <BASIC$$Code+0x21b4>
    21a4:	ef000120 	svc	0x00000120
    21a8:	e28aa001 	add	sl, sl, #1
    21ac:	e35a0014 	cmp	sl, #20
    21b0:	3afffffb 	bcc	21a4 <BASIC$$Code+0x21a4>
    21b4:	e1a00006 	mov	r0, r6
    21b8:	ef000000 	svc	0x00000000
    21bc:	ebfffb6d 	bl	f78 <BASIC$$Code+0xf78>
    21c0:	203d2025 	eorscs	r2, sp, r5, lsr #32
    21c4:	00000000 	andeq	r0, r0, r0
    21c8:	e4970004 	ldr	r0, [r7], #4
    21cc:	eb000105 	bl	25e8 <BASIC$$Code+0x25e8>
    21d0:	e2866001 	add	r6, r6, #1
    21d4:	e336005b 	teq	r6, #91	; 0x5b
    21d8:	1affffec 	bne	2190 <BASIC$$Code+0x2190>
    21dc:	ef000003 	svc	0x00000003
    21e0:	e2885004 	add	r5, r8, #4
    21e4:	e28570e8 	add	r7, r5, #232	; 0xe8
    21e8:	e3a06040 	mov	r6, #64	; 0x40
    21ec:	e2866001 	add	r6, r6, #1
    21f0:	e1350007 	teq	r5, r7
    21f4:	0a000068 	beq	239c <BASIC$$Code+0x239c>
    21f8:	e4954004 	ldr	r4, [r5], #4
    21fc:	e3340000 	teq	r4, #0
    2200:	0afffff9 	beq	21ec <BASIC$$Code+0x21ec>
    2204:	ebfffb5b 	bl	f78 <BASIC$$Code+0xf78>
    2208:	616e7944 	cmnvs	lr, r4, asr #18
    220c:	2063696d 	rsbcs	r6, r3, sp, ror #18
    2210:	69726176 	ldmdbvs	r2!, {r1, r2, r4, r5, r6, r8, sp, lr}^
    2214:	656c6261 	strbvs	r6, [ip, #-609]!	; 0xfffffd9f
    2218:	00003a73 	andeq	r3, r0, r3, ror sl
    221c:	e3a0bc01 	mov	fp, #256	; 0x100
    2220:	ea000002 	b	2230 <BASIC$$Code+0x2230>
    2224:	e4954004 	ldr	r4, [r5], #4
    2228:	e3340000 	teq	r4, #0
    222c:	0a000056 	beq	238c <BASIC$$Code+0x238c>
    2230:	e27b0014 	rsbs	r0, fp, #20
    2234:	927b0028 	rsbsls	r0, fp, #40	; 0x28
    2238:	927b003c 	rsbsls	r0, fp, #60	; 0x3c
    223c:	9f000003 	svcls	0x00000003
    2240:	93a0b000 	movls	fp, #0
    2244:	9a000002 	bls	2254 <BASIC$$Code+0x2254>
    2248:	e08bb000 	add	fp, fp, r0
    224c:	e3a09000 	mov	r9, #0
    2250:	ebfffeae 	bl	1d10 <BASIC$$Code+0x1d10>
    2254:	e1a02004 	mov	r2, r4
    2258:	e4924004 	ldr	r4, [r2], #4
    225c:	e1a00006 	mov	r0, r6
    2260:	ef000000 	svc	0x00000000
    2264:	e28bb001 	add	fp, fp, #1
    2268:	e4d20001 	ldrb	r0, [r2], #1
    226c:	e3300000 	teq	r0, #0
    2270:	1f000000 	svcne	0x00000000
    2274:	1afffffa 	bne	2264 <BASIC$$Code+0x2264>
    2278:	e1a00002 	mov	r0, r2
    227c:	e5502002 	ldrb	r2, [r0, #-2]
    2280:	e3320028 	teq	r2, #40	; 0x28
    2284:	0a00000e 	beq	22c4 <BASIC$$Code+0x22c4>
    2288:	e3320024 	teq	r2, #36	; 0x24
    228c:	0a00002b 	beq	2340 <BASIC$$Code+0x2340>
    2290:	e3320025 	teq	r2, #37	; 0x25
    2294:	03a09004 	moveq	r9, #4
    2298:	13a09005 	movne	r9, #5
    229c:	02800003 	addeq	r0, r0, #3
    22a0:	03c00003 	biceq	r0, r0, #3
    22a4:	eb001678 	bl	7c8c <BASIC$$Code+0x7c8c>
    22a8:	ef000001 	svc	0x00000001
    22ac:	00203d20 	eoreq	r3, r0, r0, lsr #26
    22b0:	e28bb003 	add	fp, fp, #3
    22b4:	e92d0010 	stmfd	sp!, {r4}
    22b8:	eb0000cb 	bl	25ec <BASIC$$Code+0x25ec>
    22bc:	e8bd0010 	ldmfd	sp!, {r4}
    22c0:	eaffffd8 	b	2228 <BASIC$$Code+0x2228>
    22c4:	e2800003 	add	r0, r0, #3
    22c8:	e3c00003 	bic	r0, r0, #3
    22cc:	e5902000 	ldr	r2, [r0]
    22d0:	e3520010 	cmp	r2, #16
    22d4:	3a00000b 	bcc	2308 <BASIC$$Code+0x2308>
    22d8:	e4920004 	ldr	r0, [r2], #4
    22dc:	e2400001 	sub	r0, r0, #1
    22e0:	e92d0014 	push	{r2, r4}
    22e4:	eb0000bf 	bl	25e8 <BASIC$$Code+0x25e8>
    22e8:	e8bd0014 	pop	{r2, r4}
    22ec:	e4920004 	ldr	r0, [r2], #4
    22f0:	e28bb001 	add	fp, fp, #1
    22f4:	e3300000 	teq	r0, #0
    22f8:	1f00012c 	svcne	0x0000012c
    22fc:	1afffff6 	bne	22dc <BASIC$$Code+0x22dc>
    2300:	ef000129 	svc	0x00000129
    2304:	eaffffc7 	b	2228 <BASIC$$Code+0x2228>
    2308:	e3520001 	cmp	r2, #1
    230c:	0a000006 	beq	232c <BASIC$$Code+0x232c>
    2310:	ebfffb18 	bl	f78 <BASIC$$Code+0xf78>
    2314:	69646e75 	stmdbvs	r4!, {r0, r2, r4, r5, r6, r9, sl, fp, sp, lr}^
    2318:	736e656d 	cmnvc	lr, #457179136	; 0x1b400000
    231c:	656e6f69 	strbvs	r6, [lr, #-3945]!	; 0xfffff097
    2320:	00002964 	andeq	r2, r0, r4, ror #18
    2324:	e28bb00e 	add	fp, fp, #14
    2328:	eaffffbe 	b	2228 <BASIC$$Code+0x2228>
    232c:	ebfffb11 	bl	f78 <BASIC$$Code+0xf78>
    2330:	61636f6c 	cmnvs	r3, ip, ror #30
    2334:	0000296c 	andeq	r2, r0, ip, ror #18
    2338:	e28bb006 	add	fp, fp, #6
    233c:	eaffffb9 	b	2228 <BASIC$$Code+0x2228>
    2340:	e3a09080 	mov	r9, #128	; 0x80
    2344:	eb001650 	bl	7c8c <BASIC$$Code+0x7c8c>
    2348:	ebfffb0a 	bl	f78 <BASIC$$Code+0xf78>
    234c:	22203d20 	eorcs	r3, r0, #32, 26	; 0x800
    2350:	00000000 	andeq	r0, r0, r0
    2354:	e28bb005 	add	fp, fp, #5
    2358:	e2881c03 	add	r1, r8, #768	; 0x300
    235c:	e1310002 	teq	r1, r2
    2360:	0a000007 	beq	2384 <BASIC$$Code+0x2384>
    2364:	e4d10001 	ldrb	r0, [r1], #1
    2368:	e330007f 	teq	r0, #127	; 0x7f
    236c:	1350001f 	cmpne	r0, #31
    2370:	93a0002e 	movls	r0, #46	; 0x2e
    2374:	ef000000 	svc	0x00000000
    2378:	e28bb001 	add	fp, fp, #1
    237c:	e1310002 	teq	r1, r2
    2380:	1afffff7 	bne	2364 <BASIC$$Code+0x2364>
    2384:	ef000122 	svc	0x00000122
    2388:	eaffffa6 	b	2228 <BASIC$$Code+0x2228>
    238c:	e2866001 	add	r6, r6, #1
    2390:	e1350007 	teq	r5, r7
    2394:	1affffa2 	bne	2224 <BASIC$$Code+0x2224>
    2398:	ef000003 	svc	0x00000003
    239c:	e5981000 	ldr	r1, [r8]
    23a0:	e3310000 	teq	r1, #0
    23a4:	0a00000d 	beq	23e0 <BASIC$$Code+0x23e0>
    23a8:	ebfffaf2 	bl	f78 <BASIC$$Code+0xf78>
    23ac:	636f7250 	cmnvs	pc, #80, 4
    23b0:	72756465 	rsbsvc	r6, r5, #1694498816	; 0x65000000
    23b4:	0a3a7365 	beq	e9f150 <BASIC$$Code+0xe9f150>
    23b8:	0000000d 	andeq	r0, r0, sp
    23bc:	e3a0b000 	mov	fp, #0
    23c0:	eb00007d 	bl	25bc <BASIC$$Code+0x25bc>
    23c4:	ebfffaeb 	bl	f78 <BASIC$$Code+0xf78>
    23c8:	434f5250 	movtmi	r5, #62032	; 0xf250
    23cc:	00000000 	andeq	r0, r0, r0
    23d0:	e28bb003 	add	fp, fp, #3
    23d4:	eb000036 	bl	24b4 <BASIC$$Code+0x24b4>
    23d8:	1afffff8 	bne	23c0 <BASIC$$Code+0x23c0>
    23dc:	ef000003 	svc	0x00000003
    23e0:	e59810f0 	ldr	r1, [r8, #240]	; 0xf0
    23e4:	e3310000 	teq	r1, #0
    23e8:	0a00000c 	beq	2420 <BASIC$$Code+0x2420>
    23ec:	ebfffae1 	bl	f78 <BASIC$$Code+0xf78>
    23f0:	636e7546 	cmnvs	lr, #293601280	; 0x11800000
    23f4:	6e6f6974 			; <UNDEFINED> instruction: 0x6e6f6974
    23f8:	0d0a3a73 	vstreq	s6, [sl, #-460]	; 0xfffffe34
    23fc:	00000000 	andeq	r0, r0, r0
    2400:	e3a0b000 	mov	fp, #0
    2404:	eb00006c 	bl	25bc <BASIC$$Code+0x25bc>
    2408:	ebfffada 	bl	f78 <BASIC$$Code+0xf78>
    240c:	00004e46 	andeq	r4, r0, r6, asr #28
    2410:	e28bb001 	add	fp, fp, #1
    2414:	eb000026 	bl	24b4 <BASIC$$Code+0x24b4>
    2418:	1afffff9 	bne	2404 <BASIC$$Code+0x2404>
    241c:	ef000003 	svc	0x00000003
    2420:	e59812a4 	ldr	r1, [r8, #676]	; 0x2a4
    2424:	e3310000 	teq	r1, #0
    2428:	0a000009 	beq	2454 <BASIC$$Code+0x2454>
    242c:	ebfffad1 	bl	f78 <BASIC$$Code+0xf78>
    2430:	7262694c 	rsbvc	r6, r2, #76, 18	; 0x130000
    2434:	65697261 	strbvs	r7, [r9, #-609]!	; 0xfffffd9f
    2438:	0d0a3a73 	vstreq	s6, [sl, #-460]	; 0xfffffe34
    243c:	00000000 	andeq	r0, r0, r0
    2440:	e281c008 	add	ip, r1, #8
    2444:	eb000012 	bl	2494 <BASIC$$Code+0x2494>
    2448:	e5911000 	ldr	r1, [r1]
    244c:	e3510000 	cmp	r1, #0
    2450:	1afffffa 	bne	2440 <BASIC$$Code+0x2440>
    2454:	e59812a0 	ldr	r1, [r8, #672]	; 0x2a0
    2458:	e3310000 	teq	r1, #0
    245c:	0a00000b 	beq	2490 <BASIC$$Code+0x2490>
    2460:	ebfffac4 	bl	f78 <BASIC$$Code+0xf78>
    2464:	74736e49 	ldrbtvc	r6, [r3], #-3657	; 0xfffff1b7
    2468:	656c6c61 	strbvs	r6, [ip, #-3169]!	; 0xfffff39f
    246c:	696c2064 	stmdbvs	ip!, {r2, r5, r6, sp}^
    2470:	72617262 	rsbvc	r7, r1, #536870918	; 0x20000006
    2474:	3a736569 	bcc	1cdba20 <BASIC$$Code+0x1cdba20>
    2478:	00000d0a 	andeq	r0, r0, sl, lsl #26
    247c:	e281c008 	add	ip, r1, #8
    2480:	eb000003 	bl	2494 <BASIC$$Code+0x2494>
    2484:	e5911000 	ldr	r1, [r1]
    2488:	e3510000 	cmp	r1, #0
    248c:	1afffffa 	bne	247c <BASIC$$Code+0x247c>
    2490:	eafff826 	b	530 <BASIC$$Code+0x530>
    2494:	e3a07008 	mov	r7, #8
    2498:	e55c0002 	ldrb	r0, [ip, #-2]
    249c:	e35000ff 	cmp	r0, #255	; 0xff
    24a0:	01a0f00e 	moveq	pc, lr
    24a4:	e92d4002 	push	{r1, lr}
    24a8:	ebfffef2 	bl	2078 <BASIC$$Code+0x2078>
    24ac:	ef000003 	svc	0x00000003
    24b0:	e8bd8002 	pop	{r1, pc}
    24b4:	e92d4100 	push	{r8, lr}
    24b8:	e491a004 	ldr	sl, [r1], #4
    24bc:	e1a00001 	mov	r0, r1
    24c0:	ef000002 	svc	0x00000002
    24c4:	e0401001 	sub	r1, r0, r1
    24c8:	e08bb001 	add	fp, fp, r1
    24cc:	e2800003 	add	r0, r0, #3
    24d0:	e3c07003 	bic	r7, r0, #3
    24d4:	e8b70003 	ldm	r7!, {r0, r1}
    24d8:	e3300000 	teq	r0, #0
    24dc:	0a000034 	beq	25b4 <BASIC$$Code+0x25b4>
    24e0:	ef000128 	svc	0x00000128
    24e4:	e28bb002 	add	fp, fp, #2
    24e8:	e3110c01 	tst	r1, #256	; 0x100
    24ec:	0a000005 	beq	2508 <BASIC$$Code+0x2508>
    24f0:	e3110902 	tst	r1, #32768	; 0x8000
    24f4:	1a000003 	bne	2508 <BASIC$$Code+0x2508>
    24f8:	ebfffa9e 	bl	f78 <BASIC$$Code+0xf78>
    24fc:	55544552 	ldrbpl	r4, [r4, #-1362]	; 0xfffffaae
    2500:	00204e52 	eoreq	r4, r0, r2, asr lr
    2504:	e28bb007 	add	fp, fp, #7
    2508:	e21120ff 	ands	r2, r1, #255	; 0xff
    250c:	1a000003 	bne	2520 <BASIC$$Code+0x2520>
    2510:	ebfffa98 	bl	f78 <BASIC$$Code+0xf78>
    2514:	65747962 	ldrbvs	r7, [r4, #-2402]!	; 0xfffff69e
    2518:	00000000 	andeq	r0, r0, r0
    251c:	e28bb004 	add	fp, fp, #4
    2520:	e3320004 	teq	r2, #4
    2524:	1a000003 	bne	2538 <BASIC$$Code+0x2538>
    2528:	ebfffa92 	bl	f78 <BASIC$$Code+0xf78>
    252c:	65746e69 	ldrbvs	r6, [r4, #-3689]!	; 0xfffff197
    2530:	00726567 	rsbseq	r6, r2, r7, ror #10
    2534:	e28bb007 	add	fp, fp, #7
    2538:	e3320005 	teq	r2, #5
    253c:	1a000003 	bne	2550 <BASIC$$Code+0x2550>
    2540:	ebfffa8c 	bl	f78 <BASIC$$Code+0xf78>
    2544:	6c616572 	cfstr64vs	mvdx6, [r1], #-456	; 0xfffffe38
    2548:	00000000 	andeq	r0, r0, r0
    254c:	e28bb004 	add	fp, fp, #4
    2550:	e3320080 	teq	r2, #128	; 0x80
    2554:	1a000003 	bne	2568 <BASIC$$Code+0x2568>
    2558:	ebfffa86 	bl	f78 <BASIC$$Code+0xf78>
    255c:	69727473 	ldmdbvs	r2!, {r0, r1, r4, r5, r6, sl, ip, sp, lr}^
    2560:	0000676e 	andeq	r6, r0, lr, ror #14
    2564:	e28bb006 	add	fp, fp, #6
    2568:	e3520081 	cmp	r2, #129	; 0x81
    256c:	3a000004 	bcc	2584 <BASIC$$Code+0x2584>
    2570:	ebfffa80 	bl	f78 <BASIC$$Code+0xf78>
    2574:	74732024 	ldrbtvc	r2, [r3], #-36	; 0xffffffdc
    2578:	676e6972 			; <UNDEFINED> instruction: 0x676e6972
    257c:	00000000 	andeq	r0, r0, r0
    2580:	e28bb008 	add	fp, fp, #8
    2584:	e3110902 	tst	r1, #32768	; 0x8000
    2588:	0a000003 	beq	259c <BASIC$$Code+0x259c>
    258c:	ebfffa79 	bl	f78 <BASIC$$Code+0xf78>
    2590:	72726120 	rsbsvc	r6, r2, #32, 2
    2594:	00007961 	andeq	r7, r0, r1, ror #18
    2598:	e28bb006 	add	fp, fp, #6
    259c:	e8b70003 	ldm	r7!, {r0, r1}
    25a0:	e3300000 	teq	r0, #0
    25a4:	128bb001 	addne	fp, fp, #1
    25a8:	1f00012c 	svcne	0x0000012c
    25ac:	1affffcd 	bne	24e8 <BASIC$$Code+0x24e8>
    25b0:	ef000129 	svc	0x00000129
    25b4:	e1b0100a 	movs	r1, sl
    25b8:	e8bd8100 	pop	{r8, pc}
    25bc:	e92d4000 	stmfd	sp!, {lr}
    25c0:	e33b0000 	teq	fp, #0
    25c4:	0a000006 	beq	25e4 <BASIC$$Code+0x25e4>
    25c8:	e27b0028 	rsbs	r0, fp, #40	; 0x28
    25cc:	9f000003 	svcls	0x00000003
    25d0:	93a0b000 	movls	fp, #0
    25d4:	9a000002 	bls	25e4 <BASIC$$Code+0x25e4>
    25d8:	e08bb000 	add	fp, fp, r0
    25dc:	e3a09000 	mov	r9, #0
    25e0:	ebfffdca 	bl	1d10 <BASIC$$Code+0x1d10>
    25e4:	e8bd8000 	ldmfd	sp!, {pc}
    25e8:	e3a09101 	mov	r9, #1073741824	; 0x40000000
    25ec:	e3a04c09 	mov	r4, #2304	; 0x900
    25f0:	e92d40e0 	push	{r5, r6, r7, lr}
    25f4:	e3a05000 	mov	r5, #0
    25f8:	eb001eb8 	bl	a0e0 <BASIC$$Code+0xa0e0>
    25fc:	e2880c03 	add	r0, r8, #768	; 0x300
    2600:	e3a05000 	mov	r5, #0
    2604:	e5c95000 	strb	r5, [r9]
    2608:	ef000002 	svc	0x00000002
    260c:	e2880c03 	add	r0, r8, #768	; 0x300
    2610:	e0490000 	sub	r0, r9, r0
    2614:	e08bb000 	add	fp, fp, r0
    2618:	e8bd80e0 	pop	{r5, r6, r7, pc}
    261c:	ebfffaa3 	bl	10b0 <BASIC$$Code+0x10b0>
    2620:	e3a00000 	mov	r0, #0
    2624:	e5981160 	ldr	r1, [r8, #352]	; 0x160
    2628:	e5c10001 	strb	r0, [r1, #1]
    262c:	ebfffd84 	bl	1c44 <BASIC$$Code+0x1c44>
    2630:	eafff7bd 	b	52c <BASIC$$Code+0x52c>
    2634:	ebfffd2c 	bl	1aec <BASIC$$Code+0x1aec>
    2638:	eb000000 	bl	2640 <BASIC$$Code+0x2640>
    263c:	eafff7ba 	b	52c <BASIC$$Code+0x52c>
    2640:	e5980160 	ldr	r0, [r8, #352]	; 0x160
    2644:	e92d4201 	push	{r0, r9, lr}
    2648:	ebfffd7d 	bl	1c44 <BASIC$$Code+0x1c44>
    264c:	e5987164 	ldr	r7, [r8, #356]	; 0x164
    2650:	e59d1000 	ldr	r1, [sp]
    2654:	e5d1a001 	ldrb	sl, [r1, #1]
    2658:	e35a00ff 	cmp	sl, #255	; 0xff
    265c:	0a000007 	beq	2680 <BASIC$$Code+0x2680>
    2660:	e4c7a001 	strb	sl, [r7], #1
    2664:	e5d1a002 	ldrb	sl, [r1, #2]
    2668:	e4c7a001 	strb	sl, [r7], #1
    266c:	e5d1a003 	ldrb	sl, [r1, #3]
    2670:	e081100a 	add	r1, r1, sl
    2674:	e157000d 	cmp	r7, sp
    2678:	3afffff5 	bcc	2654 <BASIC$$Code+0x2654>
    267c:	ea001fb8 	b	a564 <BASIC$$Code+0xa564>
    2680:	e59d1000 	ldr	r1, [sp]
    2684:	e5d1a001 	ldrb	sl, [r1, #1]
    2688:	e35a00ff 	cmp	sl, #255	; 0xff
    268c:	0a000013 	beq	26e0 <BASIC$$Code+0x26e0>
    2690:	e3540cff 	cmp	r4, #65280	; 0xff00
    2694:	2a000006 	bcs	26b4 <BASIC$$Code+0x26b4>
    2698:	e5c14002 	strb	r4, [r1, #2]
    269c:	e1a00424 	lsr	r0, r4, #8
    26a0:	e5c10001 	strb	r0, [r1, #1]
    26a4:	e0844005 	add	r4, r4, r5
    26a8:	e5d1a003 	ldrb	sl, [r1, #3]
    26ac:	e081100a 	add	r1, r1, sl
    26b0:	eafffff3 	b	2684 <BASIC$$Code+0x2684>
    26b4:	e5986164 	ldr	r6, [r8, #356]	; 0x164
    26b8:	e59d1000 	ldr	r1, [sp]
    26bc:	e4d60001 	ldrb	r0, [r6], #1
    26c0:	e5c10001 	strb	r0, [r1, #1]
    26c4:	e4d60001 	ldrb	r0, [r6], #1
    26c8:	e5c10002 	strb	r0, [r1, #2]
    26cc:	e5d10003 	ldrb	r0, [r1, #3]
    26d0:	e0811000 	add	r1, r1, r0
    26d4:	e1560007 	cmp	r6, r7
    26d8:	3afffff7 	bcc	26bc <BASIC$$Code+0x26bc>
    26dc:	ea001fa9 	b	a588 <BASIC$$Code+0xa588>
    26e0:	e59dc000 	ldr	ip, [sp]
    26e4:	e28cc001 	add	ip, ip, #1
    26e8:	e4dca001 	ldrb	sl, [ip], #1
    26ec:	e35a00ff 	cmp	sl, #255	; 0xff
    26f0:	08bd8201 	popeq	{r0, r9, pc}
    26f4:	e4dc7001 	ldrb	r7, [ip], #1
    26f8:	e087740a 	add	r7, r7, sl, lsl #8
    26fc:	e28cc001 	add	ip, ip, #1
    2700:	e3a09000 	mov	r9, #0
    2704:	e4dca001 	ldrb	sl, [ip], #1
    2708:	e35a0022 	cmp	sl, #34	; 0x22
    270c:	02299001 	eoreq	r9, r9, #1
    2710:	e35a000d 	cmp	sl, #13
    2714:	0afffff3 	beq	26e8 <BASIC$$Code+0x26e8>
    2718:	e3390000 	teq	r9, #0
    271c:	1afffff8 	bne	2704 <BASIC$$Code+0x2704>
    2720:	e35a00f4 	cmp	sl, #244	; 0xf4
    2724:	135a00dc 	cmpne	sl, #220	; 0xdc
    2728:	03a09002 	moveq	r9, #2
    272c:	e35a008d 	cmp	sl, #141	; 0x8d
    2730:	1afffff3 	bne	2704 <BASIC$$Code+0x2704>
    2734:	e1a0b00c 	mov	fp, ip
    2738:	ebfffa34 	bl	1010 <BASIC$$Code+0x1010>
    273c:	e5984164 	ldr	r4, [r8, #356]	; 0x164
    2740:	e59d5000 	ldr	r5, [sp]
    2744:	e5d5a001 	ldrb	sl, [r5, #1]
    2748:	e35a00ff 	cmp	sl, #255	; 0xff
    274c:	0a00000b 	beq	2780 <BASIC$$Code+0x2780>
    2750:	e4d42001 	ldrb	r2, [r4], #1
    2754:	e4d41001 	ldrb	r1, [r4], #1
    2758:	e1811402 	orr	r1, r1, r2, lsl #8
    275c:	e1510000 	cmp	r1, r0
    2760:	15d51003 	ldrbne	r1, [r5, #3]
    2764:	10855001 	addne	r5, r5, r1
    2768:	1afffff5 	bne	2744 <BASIC$$Code+0x2744>
    276c:	e5d55002 	ldrb	r5, [r5, #2]
    2770:	e185540a 	orr	r5, r5, sl, lsl #8
    2774:	e1a0200b 	mov	r2, fp
    2778:	ebfffa69 	bl	1124 <BASIC$$Code+0x1124>
    277c:	eaffffe0 	b	2704 <BASIC$$Code+0x2704>
    2780:	e1a01000 	mov	r1, r0
    2784:	ebfff9fb 	bl	f78 <BASIC$$Code+0xf78>
    2788:	6c696146 	stfvse	f6, [r9], #-280	; 0xfffffee8
    278c:	77206465 	strvc	r6, [r0, -r5, ror #8]!
    2790:	20687469 	rsbcs	r7, r8, r9, ror #8
    2794:	00000000 	andeq	r0, r0, r0
    2798:	e1a00001 	mov	r0, r1
    279c:	ebfffd3c 	bl	1c94 <BASIC$$Code+0x1c94>
    27a0:	ebfff9f4 	bl	f78 <BASIC$$Code+0xf78>
    27a4:	206e6f20 	rsbcs	r6, lr, r0, lsr #30
    27a8:	656e696c 	strbvs	r6, [lr, #-2412]!	; 0xfffff694
    27ac:	00000020 	andeq	r0, r0, r0, lsr #32
    27b0:	e1a00007 	mov	r0, r7
    27b4:	ebfffd36 	bl	1c94 <BASIC$$Code+0x1c94>
    27b8:	ef000003 	svc	0x00000003
    27bc:	eaffffd0 	b	2704 <BASIC$$Code+0x2704>
    27c0:	ebfffa1c 	bl	1038 <BASIC$$Code+0x1038>
    27c4:	e33a000d 	teq	sl, #13
    27c8:	0a000014 	beq	2820 <BASIC$$Code+0x2820>
    27cc:	e24cc001 	sub	ip, ip, #1
    27d0:	eb001280 	bl	71d8 <BASIC$$Code+0x71d8>
    27d4:	ebfffa3e 	bl	10d4 <BASIC$$Code+0x10d4>
    27d8:	ebfffa31 	bl	10a4 <BASIC$$Code+0x10a4>
    27dc:	ebfffd18 	bl	1c44 <BASIC$$Code+0x1c44>
    27e0:	e2881c03 	add	r1, r8, #768	; 0x300
    27e4:	e3a00001 	mov	r0, #1
    27e8:	e92d0002 	stmfd	sp!, {r1}
    27ec:	e24d1008 	sub	r1, sp, #8
    27f0:	e3e02000 	mvn	r2, #0
    27f4:	e2422b01 	sub	r2, r2, #1024	; 0x400
    27f8:	e5812004 	str	r2, [r1, #4]
    27fc:	ef000007 	svc	0x00000007
    2800:	e3a00000 	mov	r0, #0
    2804:	e5912004 	ldr	r2, [r1, #4]
    2808:	e5913000 	ldr	r3, [r1]
    280c:	e8bd0002 	ldmfd	sp!, {r1}
    2810:	e5984160 	ldr	r4, [r8, #352]	; 0x160
    2814:	e5985164 	ldr	r5, [r8, #356]	; 0x164
    2818:	ef000008 	svc	0x00000008
    281c:	eafff743 	b	530 <BASIC$$Code+0x530>
    2820:	ebfffd07 	bl	1c44 <BASIC$$Code+0x1c44>
    2824:	e5981160 	ldr	r1, [r8, #352]	; 0x160
    2828:	e5d10001 	ldrb	r0, [r1, #1]
    282c:	e35000ff 	cmp	r0, #255	; 0xff
    2830:	0a001f9a 	beq	a6a0 <BASIC$$Code+0xa6a0>
    2834:	e2811004 	add	r1, r1, #4
    2838:	e4d10001 	ldrb	r0, [r1], #1
    283c:	e3300020 	teq	r0, #32
    2840:	0afffffc 	beq	2838 <BASIC$$Code+0x2838>
    2844:	e33000f4 	teq	r0, #244	; 0xf4
    2848:	1a001f94 	bne	a6a0 <BASIC$$Code+0xa6a0>
    284c:	e4d10001 	ldrb	r0, [r1], #1
    2850:	e3300020 	teq	r0, #32
    2854:	0afffffc 	beq	284c <BASIC$$Code+0x284c>
    2858:	e330003e 	teq	r0, #62	; 0x3e
    285c:	0affffe0 	beq	27e4 <BASIC$$Code+0x27e4>
    2860:	ea001f8e 	b	a6a0 <BASIC$$Code+0xa6a0>
    2864:	eb00125b 	bl	71d8 <BASIC$$Code+0x71d8>
    2868:	e33a00ca 	teq	sl, #202	; 0xca
    286c:	1a0021dc 	bne	afe4 <BASIC$$Code+0xafe4>
    2870:	ebfff9f4 	bl	1048 <BASIC$$Code+0x1048>
    2874:	e33a000d 	teq	sl, #13
    2878:	1a0021e2 	bne	b008 <BASIC$$Code+0xb008>
    287c:	e3390000 	teq	r9, #0
    2880:	1b0019f7 	blne	9064 <BASIC$$Code+0x9064>
    2884:	eb0011cf 	bl	6fc8 <BASIC$$Code+0x6fc8>
    2888:	e92d0200 	stmfd	sp!, {r9}
    288c:	e24b7001 	sub	r7, fp, #1
    2890:	e3e06000 	mvn	r6, #0
    2894:	ea000001 	b	28a0 <BASIC$$Code+0x28a0>
    2898:	e35400cb 	cmp	r4, #203	; 0xcb
    289c:	02466001 	subeq	r6, r6, #1
    28a0:	e5d74001 	ldrb	r4, [r7, #1]
    28a4:	e35400ff 	cmp	r4, #255	; 0xff
    28a8:	2a0021c7 	bcs	afcc <BASIC$$Code+0xafcc>
    28ac:	e5574001 	ldrb	r4, [r7, #-1]
    28b0:	e35400ca 	cmp	r4, #202	; 0xca
    28b4:	02866001 	addeq	r6, r6, #1
    28b8:	e2875004 	add	r5, r7, #4
    28bc:	e5d7a003 	ldrb	sl, [r7, #3]
    28c0:	e087700a 	add	r7, r7, sl
    28c4:	e4d54001 	ldrb	r4, [r5], #1
    28c8:	e3340020 	teq	r4, #32
    28cc:	0afffffc 	beq	28c4 <BASIC$$Code+0x28c4>
    28d0:	e3360000 	teq	r6, #0
    28d4:	1affffef 	bne	2898 <BASIC$$Code+0x2898>
    28d8:	e35400cb 	cmp	r4, #203	; 0xcb
    28dc:	133400c9 	teqne	r4, #201	; 0xc9
    28e0:	1334007f 	teqne	r4, #127	; 0x7f
    28e4:	1affffed 	bne	28a0 <BASIC$$Code+0x28a0>
    28e8:	e1a0c005 	mov	ip, r5
    28ec:	2a000032 	bcs	29bc <BASIC$$Code+0x29bc>
    28f0:	e334007f 	teq	r4, #127	; 0x7f
    28f4:	0a00002e 	beq	29b4 <BASIC$$Code+0x29b4>
    28f8:	e92d0080 	stmfd	sp!, {r7}
    28fc:	eb001235 	bl	71d8 <BASIC$$Code+0x71d8>
    2900:	e8bd0080 	ldmfd	sp!, {r7}
    2904:	e1a0c00b 	mov	ip, fp
    2908:	e89d0070 	ldm	sp, {r4, r5, r6}
    290c:	0a000019 	beq	2978 <BASIC$$Code+0x2978>
    2910:	5b0019d6 	blpl	9070 <BASIC$$Code+0x9070>
    2914:	e1832001 	orr	r2, r3, r1
    2918:	e1300005 	teq	r0, r5
    291c:	01320006 	teqeq	r2, r6
    2920:	1a000010 	bne	2968 <BASIC$$Code+0x2968>
    2924:	eb0011bb 	bl	7018 <BASIC$$Code+0x7018>
    2928:	e33a003a 	teq	sl, #58	; 0x3a
    292c:	133a000d 	teqne	sl, #13
    2930:	0afff748 	beq	658 <BASIC$$Code+0x658>
    2934:	e33a002c 	teq	sl, #44	; 0x2c
    2938:	1a0020b7 	bne	ac1c <BASIC$$Code+0xac1c>
    293c:	e3a00000 	mov	r0, #0
    2940:	e4dca001 	ldrb	sl, [ip], #1
    2944:	e33a0022 	teq	sl, #34	; 0x22
    2948:	02200001 	eoreq	r0, r0, #1
    294c:	e33a000d 	teq	sl, #13
    2950:	0afff740 	beq	658 <BASIC$$Code+0x658>
    2954:	e3300000 	teq	r0, #0
    2958:	1afffff8 	bne	2940 <BASIC$$Code+0x2940>
    295c:	e33a003a 	teq	sl, #58	; 0x3a
    2960:	1afffff6 	bne	2940 <BASIC$$Code+0x2940>
    2964:	eafff73b 	b	658 <BASIC$$Code+0x658>
    2968:	e33a002c 	teq	sl, #44	; 0x2c
    296c:	0affffe1 	beq	28f8 <BASIC$$Code+0x28f8>
    2970:	e3a06000 	mov	r6, #0
    2974:	eaffffc9 	b	28a0 <BASIC$$Code+0x28a0>
    2978:	e3340000 	teq	r4, #0
    297c:	1a001fba 	bne	a86c <BASIC$$Code+0xa86c>
    2980:	e1320005 	teq	r2, r5
    2984:	1afffff7 	bne	2968 <BASIC$$Code+0x2968>
    2988:	e2880c03 	add	r0, r8, #768	; 0x300
    298c:	e1320000 	teq	r2, r0
    2990:	0affffe3 	beq	2924 <BASIC$$Code+0x2924>
    2994:	e28d1008 	add	r1, sp, #8
    2998:	e4d14001 	ldrb	r4, [r1], #1
    299c:	e4d05001 	ldrb	r5, [r0], #1
    29a0:	e1340005 	teq	r4, r5
    29a4:	1affffef 	bne	2968 <BASIC$$Code+0x2968>
    29a8:	e1300002 	teq	r0, r2
    29ac:	1afffff9 	bne	2998 <BASIC$$Code+0x2998>
    29b0:	eaffffdb 	b	2924 <BASIC$$Code+0x2924>
    29b4:	eb001197 	bl	7018 <BASIC$$Code+0x7018>
    29b8:	eafff79e 	b	838 <BASIC$$Code+0x838>
    29bc:	eb001195 	bl	7018 <BASIC$$Code+0x7018>
    29c0:	eafff723 	b	654 <BASIC$$Code+0x654>
    29c4:	e4dca001 	ldrb	sl, [ip], #1
    29c8:	e33a000d 	teq	sl, #13
    29cc:	1afffffc 	bne	29c4 <BASIC$$Code+0x29c4>
    29d0:	e24c2001 	sub	r2, ip, #1
    29d4:	e3a03001 	mov	r3, #1
    29d8:	e5d20001 	ldrb	r0, [r2, #1]
    29dc:	e35000ff 	cmp	r0, #255	; 0xff
    29e0:	2a002179 	bcs	afcc <BASIC$$Code+0xafcc>
    29e4:	e5520001 	ldrb	r0, [r2, #-1]
    29e8:	e35000ca 	cmp	r0, #202	; 0xca
    29ec:	02833001 	addeq	r3, r3, #1
    29f0:	e2821004 	add	r1, r2, #4
    29f4:	e5d20003 	ldrb	r0, [r2, #3]
    29f8:	e0822000 	add	r2, r2, r0
    29fc:	e4d10001 	ldrb	r0, [r1], #1
    2a00:	e3300020 	teq	r0, #32
    2a04:	0afffffc 	beq	29fc <BASIC$$Code+0x29fc>
    2a08:	e33000cb 	teq	r0, #203	; 0xcb
    2a0c:	1afffff1 	bne	29d8 <BASIC$$Code+0x29d8>
    2a10:	e2533001 	subs	r3, r3, #1
    2a14:	1affffef 	bne	29d8 <BASIC$$Code+0x29d8>
    2a18:	e1a0c001 	mov	ip, r1
    2a1c:	eafff70c 	b	654 <BASIC$$Code+0x654>
    2a20:	ebfffc7e 	bl	1c20 <BASIC$$Code+0x1c20>
    2a24:	ea0003a4 	b	38bc <BASIC$$Code+0x38bc>
    2a28:	ebfff9a0 	bl	10b0 <BASIC$$Code+0x10b0>
    2a2c:	ebfff8a3 	bl	cc0 <BASIC$$Code+0xcc0>
    2a30:	eafff77e 	b	830 <BASIC$$Code+0x830>
    2a34:	e24cc001 	sub	ip, ip, #1
    2a38:	eb00103d 	bl	6b34 <BASIC$$Code+0x6b34>
    2a3c:	0a002014 	beq	aa94 <BASIC$$Code+0xaa94>
    2a40:	e3590006 	cmp	r9, #6
    2a44:	2a001f7d 	bcs	a840 <BASIC$$Code+0xa840>
    2a48:	e92d0201 	push	{r0, r9}
    2a4c:	eb0011e2 	bl	71dc <BASIC$$Code+0x71dc>
    2a50:	eb00199e 	bl	90d0 <BASIC$$Code+0x90d0>
    2a54:	e2807001 	add	r7, r0, #1
    2a58:	e5980170 	ldr	r0, [r8, #368]	; 0x170
    2a5c:	e8bd0030 	pop	{r4, r5}
    2a60:	e92d0081 	push	{r0, r7}
    2a64:	eb000953 	bl	4fb8 <BASIC$$Code+0x4fb8>
    2a68:	e8bd0081 	pop	{r0, r7}
    2a6c:	e3370000 	teq	r7, #0
    2a70:	4a00200d 	bmi	aaac <BASIC$$Code+0xaaac>
    2a74:	e2877003 	add	r7, r7, #3
    2a78:	e3c77003 	bic	r7, r7, #3
    2a7c:	e0807007 	add	r7, r0, r7
    2a80:	e2876c02 	add	r6, r7, #512	; 0x200
    2a84:	e156000d 	cmp	r6, sp
    2a88:	2a00200f 	bcs	aacc <BASIC$$Code+0xaacc>
    2a8c:	e5887170 	str	r7, [r8, #368]	; 0x170
    2a90:	e1a0c00b 	mov	ip, fp
    2a94:	e35a002c 	cmp	sl, #44	; 0x2c
    2a98:	1afff6ee 	bne	658 <BASIC$$Code+0x658>
    2a9c:	ebfff965 	bl	1038 <BASIC$$Code+0x1038>
    2aa0:	e1a0000a 	mov	r0, sl
    2aa4:	ebfff98f 	bl	10e8 <BASIC$$Code+0x10e8>
    2aa8:	235a0041 	cmpcs	sl, #65	; 0x41
    2aac:	3a001ff8 	bcc	aa94 <BASIC$$Code+0xaa94>
    2ab0:	e3a09005 	mov	r9, #5
    2ab4:	e1a0b00c 	mov	fp, ip
    2ab8:	e4db0001 	ldrb	r0, [fp], #1
    2abc:	ebfff989 	bl	10e8 <BASIC$$Code+0x10e8>
    2ac0:	2afffffc 	bcs	2ab8 <BASIC$$Code+0x2ab8>
    2ac4:	e3500028 	cmp	r0, #40	; 0x28
    2ac8:	0a000006 	beq	2ae8 <BASIC$$Code+0x2ae8>
    2acc:	e3500025 	cmp	r0, #37	; 0x25
    2ad0:	03a09004 	moveq	r9, #4
    2ad4:	13500024 	cmpne	r0, #36	; 0x24
    2ad8:	1affffd5 	bne	2a34 <BASIC$$Code+0x2a34>
    2adc:	e4db0001 	ldrb	r0, [fp], #1
    2ae0:	e3500028 	cmp	r0, #40	; 0x28
    2ae4:	1affffd2 	bne	2a34 <BASIC$$Code+0x2a34>
    2ae8:	e1a0400c 	mov	r4, ip
    2aec:	e4d43001 	ldrb	r3, [r4], #1
    2af0:	e92d0200 	stmfd	sp!, {r9}
    2af4:	eb000fc0 	bl	69fc <BASIC$$Code+0x69fc>
    2af8:	1a000005 	bne	2b14 <BASIC$$Code+0x2b14>
    2afc:	e2800003 	add	r0, r0, #3
    2b00:	e3c00003 	bic	r0, r0, #3
    2b04:	e5903000 	ldr	r3, [r0]
    2b08:	e3530010 	cmp	r3, #16
    2b0c:	3a000003 	bcc	2b20 <BASIC$$Code+0x2b20>
    2b10:	ea001ff4 	b	aae8 <BASIC$$Code+0xaae8>
    2b14:	e3a09004 	mov	r9, #4
    2b18:	eb000fd8 	bl	6a80 <BASIC$$Code+0x6a80>
    2b1c:	e3a03000 	mov	r3, #0
    2b20:	e2882c03 	add	r2, r8, #768	; 0x300
    2b24:	e8bd0040 	ldmfd	sp!, {r6}
    2b28:	e3a04001 	mov	r4, #1
    2b2c:	e92d0001 	stmfd	sp!, {r0}
    2b30:	e92d0058 	push	{r3, r4, r6}
    2b34:	eb001127 	bl	6fd8 <BASIC$$Code+0x6fd8>
    2b38:	eb0011a7 	bl	71dc <BASIC$$Code+0x71dc>
    2b3c:	eb001963 	bl	90d0 <BASIC$$Code+0x90d0>
    2b40:	e3500401 	cmp	r0, #16777216	; 0x1000000
    2b44:	2a001fc3 	bcs	aa58 <BASIC$$Code+0xaa58>
    2b48:	e2807001 	add	r7, r0, #1
    2b4c:	eb001136 	bl	702c <BASIC$$Code+0x702c>
    2b50:	e8bd0058 	pop	{r3, r4, r6}
    2b54:	e4827004 	str	r7, [r2], #4
    2b58:	e3a01000 	mov	r1, #0
    2b5c:	e1b070a7 	lsrs	r7, r7, #1
    2b60:	20811004 	addcs	r1, r1, r4
    2b64:	e3510401 	cmp	r1, #16777216	; 0x1000000
    2b68:	30944004 	addscc	r4, r4, r4
    2b6c:	2a001f9e 	bcs	a9ec <BASIC$$Code+0xa9ec>
    2b70:	e3370000 	teq	r7, #0
    2b74:	1afffff8 	bne	2b5c <BASIC$$Code+0x2b5c>
    2b78:	e1a04001 	mov	r4, r1
    2b7c:	e35a002c 	cmp	sl, #44	; 0x2c
    2b80:	0affffea 	beq	2b30 <BASIC$$Code+0x2b30>
    2b84:	e35a0029 	cmp	sl, #41	; 0x29
    2b88:	1a001fb9 	bne	aa74 <BASIC$$Code+0xaa74>
    2b8c:	e3360004 	teq	r6, #4
    2b90:	01a05104 	lsleq	r5, r4, #2
    2b94:	10845104 	addne	r5, r4, r4, lsl #2
    2b98:	e2855003 	add	r5, r5, #3
    2b9c:	e3c55003 	bic	r5, r5, #3
    2ba0:	e2880c03 	add	r0, r8, #768	; 0x300
    2ba4:	e0420000 	sub	r0, r2, r0
    2ba8:	e2800008 	add	r0, r0, #8
    2bac:	e0800005 	add	r0, r0, r5
    2bb0:	e5981170 	ldr	r1, [r8, #368]	; 0x170
    2bb4:	e0817000 	add	r7, r1, r0
    2bb8:	e2876b01 	add	r6, r7, #1024	; 0x400
    2bbc:	e156000d 	cmp	r6, sp
    2bc0:	2a001f89 	bcs	a9ec <BASIC$$Code+0xa9ec>
    2bc4:	e8bd0040 	ldmfd	sp!, {r6}
    2bc8:	e3530001 	cmp	r3, #1
    2bcc:	004dd000 	subeq	sp, sp, r0
    2bd0:	01a0100d 	moveq	r1, sp
    2bd4:	092d0001 	stmfdeq	sp!, {r0}
    2bd8:	092d0040 	stmfdeq	sp!, {r6}
    2bdc:	03a00028 	moveq	r0, #40	; 0x28
    2be0:	0598729c 	ldreq	r7, [r8, #668]	; 0x29c
    2be4:	092d0081 	pusheq	{r0, r7}
    2be8:	0588d29c 	streq	sp, [r8, #668]	; 0x29c
    2bec:	15887170 	strne	r7, [r8, #368]	; 0x170
    2bf0:	e5861000 	str	r1, [r6]
    2bf4:	e2887c03 	add	r7, r8, #768	; 0x300
    2bf8:	e4970004 	ldr	r0, [r7], #4
    2bfc:	e4810004 	str	r0, [r1], #4
    2c00:	e1570002 	cmp	r7, r2
    2c04:	3afffffb 	bcc	2bf8 <BASIC$$Code+0x2bf8>
    2c08:	e3a00000 	mov	r0, #0
    2c0c:	e4810004 	str	r0, [r1], #4
    2c10:	e4814004 	str	r4, [r1], #4
    2c14:	e4810004 	str	r0, [r1], #4
    2c18:	e2555004 	subs	r5, r5, #4
    2c1c:	8afffffc 	bhi	2c14 <BASIC$$Code+0x2c14>
    2c20:	ebfff908 	bl	1048 <BASIC$$Code+0x1048>
    2c24:	eaffff99 	b	2a90 <BASIC$$Code+0x2a90>
    2c28:	ebfff920 	bl	10b0 <BASIC$$Code+0x10b0>
    2c2c:	ebfffc04 	bl	1c44 <BASIC$$Code+0x1c44>
    2c30:	eafff63e 	b	530 <BASIC$$Code+0x530>
    2c34:	ebfff91d 	bl	10b0 <BASIC$$Code+0x10b0>
    2c38:	e8bd0010 	ldmfd	sp!, {r4}
    2c3c:	e33400f2 	teq	r4, #242	; 0xf2
    2c40:	1a000003 	bne	2c54 <BASIC$$Code+0x2c54>
    2c44:	eb00188c 	bl	8e7c <BASIC$$Code+0x8e7c>
    2c48:	e15c000b 	cmp	ip, fp
    2c4c:	31a0c00b 	movcc	ip, fp
    2c50:	eafff67f 	b	654 <BASIC$$Code+0x654>
    2c54:	e24dd004 	sub	sp, sp, #4
    2c58:	eb0002ee 	bl	3818 <BASIC$$Code+0x3818>
    2c5c:	0afffff5 	beq	2c38 <BASIC$$Code+0x2c38>
    2c60:	ea001fb9 	b	ab4c <BASIC$$Code+0xab4c>
    2c64:	e5984290 	ldr	r4, [r8, #656]	; 0x290
    2c68:	e3540000 	cmp	r4, #0
    2c6c:	1b0008aa 	blne	4f1c <BASIC$$Code+0x4f1c>
    2c70:	ebfff90e 	bl	10b0 <BASIC$$Code+0x10b0>
    2c74:	ea000001 	b	2c80 <BASIC$$Code+0x2c80>
    2c78:	eb0002e6 	bl	3818 <BASIC$$Code+0x3818>
    2c7c:	1a0020cb 	bne	afb0 <BASIC$$Code+0xafb0>
    2c80:	e59d4000 	ldr	r4, [sp]
    2c84:	e35400ce 	cmp	r4, #206	; 0xce
    2c88:	1afffffa 	bne	2c78 <BASIC$$Code+0x2c78>
    2c8c:	e59db008 	ldr	fp, [sp, #8]
    2c90:	e92d0400 	stmfd	sp!, {sl}
    2c94:	eb001150 	bl	71dc <BASIC$$Code+0x71dc>
    2c98:	0a001edf 	beq	a81c <BASIC$$Code+0xa81c>
    2c9c:	4b00190d 	blmi	90d8 <BASIC$$Code+0x90d8>
    2ca0:	e8bd0400 	ldmfd	sp!, {sl}
    2ca4:	e3500000 	cmp	r0, #0
    2ca8:	159dc004 	ldrne	ip, [sp, #4]
    2cac:	1afff6e1 	bne	838 <BASIC$$Code+0x838>
    2cb0:	e28dd00c 	add	sp, sp, #12
    2cb4:	eafff6dd 	b	830 <BASIC$$Code+0x830>
    2cb8:	e24dd010 	sub	sp, sp, #16
    2cbc:	e3a01000 	mov	r1, #0
    2cc0:	e1a0b00c 	mov	fp, ip
    2cc4:	e92d0002 	stmfd	sp!, {r1}
    2cc8:	ebfff8e3 	bl	105c <BASIC$$Code+0x105c>
    2ccc:	e8bd0002 	ldmfd	sp!, {r1}
    2cd0:	e7cd0001 	strb	r0, [sp, r1]
    2cd4:	e2811001 	add	r1, r1, #1
    2cd8:	e351000d 	cmp	r1, #13
    2cdc:	1afffff8 	bne	2cc4 <BASIC$$Code+0x2cc4>
    2ce0:	ebfff8ea 	bl	1090 <BASIC$$Code+0x1090>
    2ce4:	e5cd000d 	strb	r0, [sp, #13]
    2ce8:	e1a0100d 	mov	r1, sp
    2cec:	e3a00008 	mov	r0, #8
    2cf0:	ef000007 	svc	0x00000007
    2cf4:	e28dd010 	add	sp, sp, #16
    2cf8:	eafff6cc 	b	830 <BASIC$$Code+0x830>
    2cfc:	eb000f8c 	bl	6b34 <BASIC$$Code+0x6b34>
    2d00:	0a002072 	beq	aed0 <BASIC$$Code+0xaed0>
    2d04:	e3590006 	cmp	r9, #6
    2d08:	2a002070 	bcs	aed0 <BASIC$$Code+0xaed0>
    2d0c:	e92d0201 	push	{r0, r9}
    2d10:	ebfff8cc 	bl	1048 <BASIC$$Code+0x1048>
    2d14:	e35a003d 	cmp	sl, #61	; 0x3d
    2d18:	1a001eaf 	bne	a7dc <BASIC$$Code+0xa7dc>
    2d1c:	eb00112e 	bl	71dc <BASIC$$Code+0x71dc>
    2d20:	e35a00b8 	cmp	sl, #184	; 0xb8
    2d24:	1a002079 	bne	af10 <BASIC$$Code+0xaf10>
    2d28:	eb0008a1 	bl	4fb4 <BASIC$$Code+0x4fb4>
    2d2c:	e3550005 	cmp	r5, #5
    2d30:	0a000010 	beq	2d78 <BASIC$$Code+0x2d78>
    2d34:	e3a000ed 	mov	r0, #237	; 0xed
    2d38:	e3a06001 	mov	r6, #1
    2d3c:	e92d00f1 	push	{r0, r4, r5, r6, r7}
    2d40:	eb001125 	bl	71dc <BASIC$$Code+0x71dc>
    2d44:	eb0018e1 	bl	90d0 <BASIC$$Code+0x90d0>
    2d48:	e58d0010 	str	r0, [sp, #16]
    2d4c:	e35a0088 	cmp	sl, #136	; 0x88
    2d50:	1a000004 	bne	2d68 <BASIC$$Code+0x2d68>
    2d54:	eb001120 	bl	71dc <BASIC$$Code+0x71dc>
    2d58:	eb0018dc 	bl	90d0 <BASIC$$Code+0x90d0>
    2d5c:	e3300000 	teq	r0, #0
    2d60:	0a002062 	beq	aef0 <BASIC$$Code+0xaef0>
    2d64:	e58d000c 	str	r0, [sp, #12]
    2d68:	ebfff8cd 	bl	10a4 <BASIC$$Code+0x10a4>
    2d6c:	eb00085e 	bl	4eec <BASIC$$Code+0x4eec>
    2d70:	e58dc008 	str	ip, [sp, #8]
    2d74:	eafff6af 	b	838 <BASIC$$Code+0x838>
    2d78:	e3a000e3 	mov	r0, #227	; 0xe3
    2d7c:	e92d03f1 	push	{r0, r4, r5, r6, r7, r8, r9}
    2d80:	eb001115 	bl	71dc <BASIC$$Code+0x71dc>
    2d84:	eb0018b6 	bl	9064 <BASIC$$Code+0x9064>
    2d88:	e28d9014 	add	r9, sp, #20
    2d8c:	eb001b48 	bl	9ab4 <BASIC$$Code+0x9ab4>
    2d90:	eb001a21 	bl	961c <BASIC$$Code+0x961c>
    2d94:	e35a0088 	cmp	sl, #136	; 0x88
    2d98:	1a000003 	bne	2dac <BASIC$$Code+0x2dac>
    2d9c:	eb00110e 	bl	71dc <BASIC$$Code+0x71dc>
    2da0:	eb0018af 	bl	9064 <BASIC$$Code+0x9064>
    2da4:	e3300000 	teq	r0, #0
    2da8:	0a002050 	beq	aef0 <BASIC$$Code+0xaef0>
    2dac:	e28d900c 	add	r9, sp, #12
    2db0:	eb001b3f 	bl	9ab4 <BASIC$$Code+0x9ab4>
    2db4:	eaffffeb 	b	2d68 <BASIC$$Code+0x2d68>
    2db8:	e5984290 	ldr	r4, [r8, #656]	; 0x290
    2dbc:	e3540000 	cmp	r4, #0
    2dc0:	1b000855 	blne	4f1c <BASIC$$Code+0x4f1c>
    2dc4:	eb00000b 	bl	2df8 <BASIC$$Code+0x2df8>
    2dc8:	ebfff8b8 	bl	10b0 <BASIC$$Code+0x10b0>
    2dcc:	e3a000f8 	mov	r0, #248	; 0xf8
    2dd0:	e92d1001 	push	{r0, ip}
    2dd4:	e281c004 	add	ip, r1, #4
    2dd8:	eafff696 	b	838 <BASIC$$Code+0x838>
    2ddc:	e5984290 	ldr	r4, [r8, #656]	; 0x290
    2de0:	e3540000 	cmp	r4, #0
    2de4:	1b00084c 	blne	4f1c <BASIC$$Code+0x4f1c>
    2de8:	eb000002 	bl	2df8 <BASIC$$Code+0x2df8>
    2dec:	ebfff8af 	bl	10b0 <BASIC$$Code+0x10b0>
    2df0:	e281c004 	add	ip, r1, #4
    2df4:	eafff68f 	b	838 <BASIC$$Code+0x838>
    2df8:	e92d4000 	stmfd	sp!, {lr}
    2dfc:	ebfff87e 	bl	ffc <BASIC$$Code+0xffc>
    2e00:	0a000005 	beq	2e1c <BASIC$$Code+0x2e1c>
    2e04:	e24cb001 	sub	fp, ip, #1
    2e08:	eb0010f3 	bl	71dc <BASIC$$Code+0x71dc>
    2e0c:	eb0018af 	bl	90d0 <BASIC$$Code+0x90d0>
    2e10:	e3500cff 	cmp	r0, #65280	; 0xff00
    2e14:	2a002050 	bcs	af5c <BASIC$$Code+0xaf5c>
    2e18:	e24bc001 	sub	ip, fp, #1
    2e1c:	eb000001 	bl	2e28 <BASIC$$Code+0x2e28>
    2e20:	28bd8000 	ldmfdcs	sp!, {pc}
    2e24:	ea00204c 	b	af5c <BASIC$$Code+0xaf5c>
    2e28:	e5981160 	ldr	r1, [r8, #352]	; 0x160
    2e2c:	e20030ff 	and	r3, r0, #255	; 0xff
    2e30:	ea000001 	b	2e3c <BASIC$$Code+0x2e3c>
    2e34:	e5d12003 	ldrb	r2, [r1, #3]
    2e38:	e0811002 	add	r1, r1, r2
    2e3c:	e5d12001 	ldrb	r2, [r1, #1]
    2e40:	e1520420 	cmp	r2, r0, lsr #8
    2e44:	3afffffa 	bcc	2e34 <BASIC$$Code+0x2e34>
    2e48:	05d12002 	ldrbeq	r2, [r1, #2]
    2e4c:	01520003 	cmpeq	r2, r3
    2e50:	3afffff7 	bcc	2e34 <BASIC$$Code+0x2e34>
    2e54:	01a0f00e 	moveq	pc, lr
    2e58:	e3def202 	bics	pc, lr, #536870912	; 0x20000000
    2e5c:	eb0010dd 	bl	71d8 <BASIC$$Code+0x71d8>
    2e60:	0a001e6d 	beq	a81c <BASIC$$Code+0xa81c>
    2e64:	4b00189b 	blmi	90d8 <BASIC$$Code+0x90d8>
    2e68:	e1a0c00b 	mov	ip, fp
    2e6c:	e3500000 	cmp	r0, #0
    2e70:	0a00000b 	beq	2ea4 <BASIC$$Code+0x2ea4>
    2e74:	e35a008c 	cmp	sl, #140	; 0x8c
    2e78:	1afff671 	bne	844 <BASIC$$Code+0x844>
    2e7c:	e4dca001 	ldrb	sl, [ip], #1
    2e80:	e35a0020 	cmp	sl, #32
    2e84:	0afffffc 	beq	2e7c <BASIC$$Code+0x2e7c>
    2e88:	e35a008d 	cmp	sl, #141	; 0x8d
    2e8c:	1afff66c 	bne	844 <BASIC$$Code+0x844>
    2e90:	ebfff85e 	bl	1010 <BASIC$$Code+0x1010>
    2e94:	ebffffe3 	bl	2e28 <BASIC$$Code+0x2e28>
    2e98:	3a00202f 	bcc	af5c <BASIC$$Code+0xaf5c>
    2e9c:	e281c004 	add	ip, r1, #4
    2ea0:	eafff664 	b	838 <BASIC$$Code+0x838>
    2ea4:	e33a000d 	teq	sl, #13
    2ea8:	0afff5e0 	beq	630 <BASIC$$Code+0x630>
    2eac:	e33a008b 	teq	sl, #139	; 0x8b
    2eb0:	0afffff1 	beq	2e7c <BASIC$$Code+0x2e7c>
    2eb4:	e33a008c 	teq	sl, #140	; 0x8c
    2eb8:	04dca001 	ldrbeq	sl, [ip], #1
    2ebc:	e33a000d 	teq	sl, #13
    2ec0:	0a000005 	beq	2edc <BASIC$$Code+0x2edc>
    2ec4:	e4dca001 	ldrb	sl, [ip], #1
    2ec8:	e35a000d 	cmp	sl, #13
    2ecc:	0afff5d7 	beq	630 <BASIC$$Code+0x630>
    2ed0:	e35a008b 	cmp	sl, #139	; 0x8b
    2ed4:	1afffffa 	bne	2ec4 <BASIC$$Code+0x2ec4>
    2ed8:	eaffffe7 	b	2e7c <BASIC$$Code+0x2e7c>
    2edc:	e24c2001 	sub	r2, ip, #1
    2ee0:	e3a03000 	mov	r3, #0
    2ee4:	ea000001 	b	2ef0 <BASIC$$Code+0x2ef0>
    2ee8:	e5d20003 	ldrb	r0, [r2, #3]
    2eec:	e0822000 	add	r2, r2, r0
    2ef0:	e5d20001 	ldrb	r0, [r2, #1]
    2ef4:	e35000ff 	cmp	r0, #255	; 0xff
    2ef8:	2a002051 	bcs	b044 <BASIC$$Code+0xb044>
    2efc:	e5520001 	ldrb	r0, [r2, #-1]
    2f00:	e350008c 	cmp	r0, #140	; 0x8c
    2f04:	02833001 	addeq	r3, r3, #1
    2f08:	e2821004 	add	r1, r2, #4
    2f0c:	e4d10001 	ldrb	r0, [r1], #1
    2f10:	e3300020 	teq	r0, #32
    2f14:	0afffffc 	beq	2f0c <BASIC$$Code+0x2f0c>
    2f18:	e35000cd 	cmp	r0, #205	; 0xcd
    2f1c:	02533001 	subseq	r3, r3, #1
    2f20:	01a0c001 	moveq	ip, r1
    2f24:	0afff5ca 	beq	654 <BASIC$$Code+0x654>
    2f28:	e35000cc 	cmp	r0, #204	; 0xcc
    2f2c:	1affffed 	bne	2ee8 <BASIC$$Code+0x2ee8>
    2f30:	e3330001 	teq	r3, #1
    2f34:	1affffeb 	bne	2ee8 <BASIC$$Code+0x2ee8>
    2f38:	e1a0c001 	mov	ip, r1
    2f3c:	eafff63d 	b	838 <BASIC$$Code+0x838>
    2f40:	e4dca001 	ldrb	sl, [ip], #1
    2f44:	e33a000d 	teq	sl, #13
    2f48:	1afffffc 	bne	2f40 <BASIC$$Code+0x2f40>
    2f4c:	e3a03000 	mov	r3, #0
    2f50:	e24c2001 	sub	r2, ip, #1
    2f54:	ea000001 	b	2f60 <BASIC$$Code+0x2f60>
    2f58:	e5d20003 	ldrb	r0, [r2, #3]
    2f5c:	e0822000 	add	r2, r2, r0
    2f60:	e5d20001 	ldrb	r0, [r2, #1]
    2f64:	e35000ff 	cmp	r0, #255	; 0xff
    2f68:	2a002035 	bcs	b044 <BASIC$$Code+0xb044>
    2f6c:	e5520001 	ldrb	r0, [r2, #-1]
    2f70:	e350008c 	cmp	r0, #140	; 0x8c
    2f74:	02833001 	addeq	r3, r3, #1
    2f78:	e2821004 	add	r1, r2, #4
    2f7c:	e4d10001 	ldrb	r0, [r1], #1
    2f80:	e3300020 	teq	r0, #32
    2f84:	0afffffc 	beq	2f7c <BASIC$$Code+0x2f7c>
    2f88:	e33000cd 	teq	r0, #205	; 0xcd
    2f8c:	1afffff1 	bne	2f58 <BASIC$$Code+0x2f58>
    2f90:	e2533001 	subs	r3, r3, #1
    2f94:	5affffef 	bpl	2f58 <BASIC$$Code+0x2f58>
    2f98:	e1a0c001 	mov	ip, r1
    2f9c:	eafff5ac 	b	654 <BASIC$$Code+0x654>
    2fa0:	ebfff824 	bl	1038 <BASIC$$Code+0x1038>
    2fa4:	e35a0023 	cmp	sl, #35	; 0x23
    2fa8:	0a0005f5 	beq	4784 <BASIC$$Code+0x4784>
    2fac:	e3a04040 	mov	r4, #64	; 0x40
    2fb0:	e3a05000 	mov	r5, #0
    2fb4:	e35a0086 	cmp	sl, #134	; 0x86
    2fb8:	13a04000 	movne	r4, #0
    2fbc:	124cc001 	subne	ip, ip, #1
    2fc0:	ebfff81c 	bl	1038 <BASIC$$Code+0x1038>
    2fc4:	eb000195 	bl	3620 <BASIC$$Code+0x3620>
    2fc8:	13844080 	orrne	r4, r4, #128	; 0x80
    2fcc:	1a000004 	bne	2fe4 <BASIC$$Code+0x2fe4>
    2fd0:	ebfff818 	bl	1038 <BASIC$$Code+0x1038>
    2fd4:	eb000191 	bl	3620 <BASIC$$Code+0x3620>
    2fd8:	0afffffc 	beq	2fd0 <BASIC$$Code+0x2fd0>
    2fdc:	e3a05000 	mov	r5, #0
    2fe0:	e3c44080 	bic	r4, r4, #128	; 0x80
    2fe4:	e35a002c 	cmp	sl, #44	; 0x2c
    2fe8:	135a003b 	cmpne	sl, #59	; 0x3b
    2fec:	0afffff3 	beq	2fc0 <BASIC$$Code+0x2fc0>
    2ff0:	e24cc001 	sub	ip, ip, #1
    2ff4:	e92d0030 	push	{r4, r5}
    2ff8:	eb000ecd 	bl	6b34 <BASIC$$Code+0x6b34>
    2ffc:	e8bd0030 	pop	{r4, r5}
    3000:	0afff593 	beq	654 <BASIC$$Code+0x654>
    3004:	e1a0c00b 	mov	ip, fp
    3008:	e92d0201 	push	{r0, r9}
    300c:	e3140040 	tst	r4, #64	; 0x40
    3010:	1a000001 	bne	301c <BASIC$$Code+0x301c>
    3014:	e3350000 	teq	r5, #0
    3018:	1a00000a 	bne	3048 <BASIC$$Code+0x3048>
    301c:	e3140080 	tst	r4, #128	; 0x80
    3020:	1f00013f 	svcne	0x0000013f
    3024:	ebfff76d 	bl	de0 <BASIC$$Code+0xde0>
    3028:	e2412001 	sub	r2, r1, #1
    302c:	e5f20001 	ldrb	r0, [r2, #1]!
    3030:	e350000d 	cmp	r0, #13
    3034:	1afffffc 	bne	302c <BASIC$$Code+0x302c>
    3038:	e3c44080 	bic	r4, r4, #128	; 0x80
    303c:	e3140040 	tst	r4, #64	; 0x40
    3040:	1a000009 	bne	306c <BASIC$$Code+0x306c>
    3044:	e2885c03 	add	r5, r8, #768	; 0x300
    3048:	e1a0b005 	mov	fp, r5
    304c:	eb0012ea 	bl	7bfc <BASIC$$Code+0x7bfc>
    3050:	e35a002c 	cmp	sl, #44	; 0x2c
    3054:	0a000003 	beq	3068 <BASIC$$Code+0x3068>
    3058:	e35a000d 	cmp	sl, #13
    305c:	e4dba001 	ldrb	sl, [fp], #1
    3060:	1afffffa 	bne	3050 <BASIC$$Code+0x3050>
    3064:	e3a0b000 	mov	fp, #0
    3068:	e1a0500b 	mov	r5, fp
    306c:	e8bd0201 	pop	{r0, r9}
    3070:	e92d0030 	push	{r4, r5}
    3074:	e92d0201 	push	{r0, r9}
    3078:	e3590080 	cmp	r9, #128	; 0x80
    307c:	23a09000 	movcs	r9, #0
    3080:	3b001567 	blcc	8624 <BASIC$$Code+0x8624>
    3084:	eb0007ca 	bl	4fb4 <BASIC$$Code+0x4fb4>
    3088:	e8bd0030 	pop	{r4, r5}
    308c:	eaffffcb 	b	2fc0 <BASIC$$Code+0x2fc0>
    3090:	eb000eed 	bl	6c4c <BASIC$$Code+0x6c4c>
    3094:	1afff5d6 	bne	7f4 <BASIC$$Code+0x7f4>
    3098:	2a001edf 	bcs	ac1c <BASIC$$Code+0xac1c>
    309c:	e1a0000b 	mov	r0, fp
    30a0:	e4d07001 	ldrb	r7, [r0], #1
    30a4:	e3570020 	cmp	r7, #32
    30a8:	0afffffc 	beq	30a0 <BASIC$$Code+0x30a0>
    30ac:	e357003d 	cmp	r7, #61	; 0x3d
    30b0:	1a001dc5 	bne	a7cc <BASIC$$Code+0xa7cc>
    30b4:	eb000e71 	bl	6a80 <BASIC$$Code+0x6a80>
    30b8:	eafff5cd 	b	7f4 <BASIC$$Code+0x7f4>
    30bc:	ebfff7fb 	bl	10b0 <BASIC$$Code+0x10b0>
    30c0:	e5981288 	ldr	r1, [r8, #648]	; 0x288
    30c4:	e5982284 	ldr	r2, [r8, #644]	; 0x284
    30c8:	e3a00085 	mov	r0, #133	; 0x85
    30cc:	e92d0007 	push	{r0, r1, r2}
    30d0:	eafff5d6 	b	830 <BASIC$$Code+0x830>
    30d4:	ebfff7d7 	bl	1038 <BASIC$$Code+0x1038>
    30d8:	e35a0085 	cmp	sl, #133	; 0x85
    30dc:	0afffff6 	beq	30bc <BASIC$$Code+0x30bc>
    30e0:	e59d0000 	ldr	r0, [sp]
    30e4:	e33000f2 	teq	r0, #242	; 0xf2
    30e8:	133000a4 	teqne	r0, #164	; 0xa4
    30ec:	1a001e86 	bne	ab0c <BASIC$$Code+0xab0c>
    30f0:	e24cc001 	sub	ip, ip, #1
    30f4:	eb000e8e 	bl	6b34 <BASIC$$Code+0x6b34>
    30f8:	0afff555 	beq	654 <BASIC$$Code+0x654>
    30fc:	e1a0c00b 	mov	ip, fp
    3100:	e8bd00e0 	pop	{r5, r6, r7}
    3104:	e1a0a000 	mov	sl, r0
    3108:	e1a0b009 	mov	fp, r9
    310c:	e3590c01 	cmp	r9, #256	; 0x100
    3110:	2a00000b 	bcs	3144 <BASIC$$Code+0x3144>
    3114:	eb0012dc 	bl	7c8c <BASIC$$Code+0x7c8c>
    3118:	eb000faa 	bl	6fc8 <BASIC$$Code+0x6fc8>
    311c:	e92d0c00 	push	{sl, fp}
    3120:	e92d00e0 	push	{r5, r6, r7}
    3124:	e3a00000 	mov	r0, #0
    3128:	e35b0080 	cmp	fp, #128	; 0x80
    312c:	0a00000f 	beq	3170 <BASIC$$Code+0x3170>
    3130:	2a00000b 	bcs	3164 <BASIC$$Code+0x3164>
    3134:	e4ca0001 	strb	r0, [sl], #1
    3138:	e25bb001 	subs	fp, fp, #1
    313c:	8afffffc 	bhi	3134 <BASIC$$Code+0x3134>
    3140:	ea00000d 	b	317c <BASIC$$Code+0x317c>
    3144:	e5901000 	ldr	r1, [r0]
    3148:	e3a02004 	mov	r2, #4
    314c:	e92d0002 	stmfd	sp!, {r1}
    3150:	e92d0005 	push	{r0, r2}
    3154:	e92d00e0 	push	{r5, r6, r7}
    3158:	e3a01001 	mov	r1, #1
    315c:	e5801000 	str	r1, [r0]
    3160:	ea000005 	b	317c <BASIC$$Code+0x317c>
    3164:	e3a0000d 	mov	r0, #13
    3168:	e5ca0000 	strb	r0, [sl]
    316c:	ea000002 	b	317c <BASIC$$Code+0x317c>
    3170:	e1a02003 	mov	r2, r3
    3174:	e1a0400a 	mov	r4, sl
    3178:	eb0007ba 	bl	5068 <BASIC$$Code+0x5068>
    317c:	ebfff7ad 	bl	1038 <BASIC$$Code+0x1038>
    3180:	e35a002c 	cmp	sl, #44	; 0x2c
    3184:	0affffda 	beq	30f4 <BASIC$$Code+0x30f4>
    3188:	eafff532 	b	658 <BASIC$$Code+0x658>
    318c:	e5984290 	ldr	r4, [r8, #656]	; 0x290
    3190:	e3540000 	cmp	r4, #0
    3194:	1b000760 	blne	4f1c <BASIC$$Code+0x4f1c>
    3198:	eb000eab 	bl	6c4c <BASIC$$Code+0x6c4c>
    319c:	1a000008 	bne	31c4 <BASIC$$Code+0x31c4>
    31a0:	3a001e9d 	bcc	ac1c <BASIC$$Code+0xac1c>
    31a4:	e89d0030 	ldm	sp, {r4, r5}
    31a8:	e33400ed 	teq	r4, #237	; 0xed
    31ac:	0a000017 	beq	3210 <BASIC$$Code+0x3210>
    31b0:	e33400e3 	teq	r4, #227	; 0xe3
    31b4:	0a00003a 	beq	32a4 <BASIC$$Code+0x32a4>
    31b8:	eb000196 	bl	3818 <BASIC$$Code+0x3818>
    31bc:	0afffff8 	beq	31a4 <BASIC$$Code+0x31a4>
    31c0:	ea001f36 	b	aea0 <BASIC$$Code+0xaea0>
    31c4:	e3590080 	cmp	r9, #128	; 0x80
    31c8:	2a001e93 	bcs	ac1c <BASIC$$Code+0xac1c>
    31cc:	e1a0c00b 	mov	ip, fp
    31d0:	e89d0030 	ldm	sp, {r4, r5}
    31d4:	e33400ed 	teq	r4, #237	; 0xed
    31d8:	0a00000a 	beq	3208 <BASIC$$Code+0x3208>
    31dc:	e33400e3 	teq	r4, #227	; 0xe3
    31e0:	1a001f2e 	bne	aea0 <BASIC$$Code+0xaea0>
    31e4:	e1300005 	teq	r0, r5
    31e8:	0a00002d 	beq	32a4 <BASIC$$Code+0x32a4>
    31ec:	eb000188 	bl	3814 <BASIC$$Code+0x3814>
    31f0:	1a001f30 	bne	aeb8 <BASIC$$Code+0xaeb8>
    31f4:	e89d0030 	ldm	sp, {r4, r5}
    31f8:	e33400e3 	teq	r4, #227	; 0xe3
    31fc:	0a000026 	beq	329c <BASIC$$Code+0x329c>
    3200:	e33400ed 	teq	r4, #237	; 0xed
    3204:	1a001f2b 	bne	aeb8 <BASIC$$Code+0xaeb8>
    3208:	e1300005 	teq	r0, r5
    320c:	1afffff6 	bne	31ec <BASIC$$Code+0x31ec>
    3210:	e89d00f8 	ldm	sp, {r3, r4, r5, r6, r7}
    3214:	e2142003 	ands	r2, r4, #3
    3218:	1a00000f 	bne	325c <BASIC$$Code+0x325c>
    321c:	e5940000 	ldr	r0, [r4]
    3220:	e0900006 	adds	r0, r0, r6
    3224:	6a000005 	bvs	3240 <BASIC$$Code+0x3240>
    3228:	e5840000 	str	r0, [r4]
    322c:	e3360000 	teq	r6, #0
    3230:	4a000007 	bmi	3254 <BASIC$$Code+0x3254>
    3234:	e1500007 	cmp	r0, r7
    3238:	d1a0c005 	movle	ip, r5
    323c:	dafff57d 	ble	838 <BASIC$$Code+0x838>
    3240:	e28dd014 	add	sp, sp, #20
    3244:	ebfff77b 	bl	1038 <BASIC$$Code+0x1038>
    3248:	e35a002c 	cmp	sl, #44	; 0x2c
    324c:	0affffce 	beq	318c <BASIC$$Code+0x318c>
    3250:	eafff500 	b	658 <BASIC$$Code+0x658>
    3254:	e1570000 	cmp	r7, r0
    3258:	eafffff6 	b	3238 <BASIC$$Code+0x3238>
    325c:	e3c43003 	bic	r3, r4, #3
    3260:	e8930003 	ldm	r3, {r0, r1}
    3264:	e1a02182 	lsl	r2, r2, #3
    3268:	e1a00230 	lsr	r0, r0, r2
    326c:	e2622020 	rsb	r2, r2, #32
    3270:	e1800211 	orr	r0, r0, r1, lsl r2
    3274:	e0900006 	adds	r0, r0, r6
    3278:	6afffff0 	bvs	3240 <BASIC$$Code+0x3240>
    327c:	e5c40000 	strb	r0, [r4]
    3280:	e1a01420 	lsr	r1, r0, #8
    3284:	e5c41001 	strb	r1, [r4, #1]
    3288:	e1a01820 	lsr	r1, r0, #16
    328c:	e5c41002 	strb	r1, [r4, #2]
    3290:	e1a01c20 	lsr	r1, r0, #24
    3294:	e5c41003 	strb	r1, [r4, #3]
    3298:	eaffffe3 	b	322c <BASIC$$Code+0x322c>
    329c:	e1300005 	teq	r0, r5
    32a0:	1affffd1 	bne	31ec <BASIC$$Code+0x31ec>
    32a4:	e3c52003 	bic	r2, r5, #3
    32a8:	e8920003 	ldm	r2, {r0, r1}
    32ac:	e2052003 	and	r2, r5, #3
    32b0:	e1b02182 	lsls	r2, r2, #3
    32b4:	11a00230 	lsrne	r0, r0, r2
    32b8:	12623020 	rsbne	r3, r2, #32
    32bc:	11800311 	orrne	r0, r0, r1, lsl r3
    32c0:	11a01231 	lsrne	r1, r1, r2
    32c4:	e2003102 	and	r3, r0, #-2147483648	; 0x80000000
    32c8:	e21110ff 	ands	r1, r1, #255	; 0xff
    32cc:	03300000 	teqeq	r0, #0
    32d0:	13800102 	orrne	r0, r0, #-2147483648	; 0x80000000
    32d4:	e28d900c 	add	r9, sp, #12
    32d8:	e8990030 	ldm	r9, {r4, r5}
    32dc:	e2057102 	and	r7, r5, #-2147483648	; 0x80000000
    32e0:	e20550ff 	and	r5, r5, #255	; 0xff
    32e4:	e3340000 	teq	r4, #0
    32e8:	1b001854 	blne	9440 <BASIC$$Code+0x9440>
    32ec:	e59d9004 	ldr	r9, [sp, #4]
    32f0:	eb0019f2 	bl	9ac0 <BASIC$$Code+0x9ac0>
    32f4:	e28d9014 	add	r9, sp, #20
    32f8:	e3370000 	teq	r7, #0
    32fc:	4a000004 	bmi	3314 <BASIC$$Code+0x3314>
    3300:	eb000008 	bl	3328 <BASIC$$Code+0x3328>
    3304:	a59dc008 	ldrge	ip, [sp, #8]
    3308:	aafff54a 	bge	838 <BASIC$$Code+0x838>
    330c:	e28dd01c 	add	sp, sp, #28
    3310:	eaffffcb 	b	3244 <BASIC$$Code+0x3244>
    3314:	eb000003 	bl	3328 <BASIC$$Code+0x3328>
    3318:	d59dc008 	ldrle	ip, [sp, #8]
    331c:	dafff545 	ble	838 <BASIC$$Code+0x838>
    3320:	e28dd01c 	add	sp, sp, #28
    3324:	eaffffc6 	b	3244 <BASIC$$Code+0x3244>
    3328:	e8990030 	ldm	r9, {r4, r5}
    332c:	e2057102 	and	r7, r5, #-2147483648	; 0x80000000
    3330:	e1570003 	cmp	r7, r3
    3334:	11a0f00e 	movne	pc, lr
    3338:	e20550ff 	and	r5, r5, #255	; 0xff
    333c:	e3330000 	teq	r3, #0
    3340:	4a000003 	bmi	3354 <BASIC$$Code+0x3354>
    3344:	e1550001 	cmp	r5, r1
    3348:	11a0f00e 	movne	pc, lr
    334c:	e1540000 	cmp	r4, r0
    3350:	e1a0f00e 	mov	pc, lr
    3354:	e1510005 	cmp	r1, r5
    3358:	11a0f00e 	movne	pc, lr
    335c:	e1500004 	cmp	r0, r4
    3360:	e1a0f00e 	mov	pc, lr
    3364:	ebfff733 	bl	1038 <BASIC$$Code+0x1038>
    3368:	e35a0085 	cmp	sl, #133	; 0x85
    336c:	0a000046 	beq	348c <BASIC$$Code+0x348c>
    3370:	e35a008b 	cmp	sl, #139	; 0x8b
    3374:	135a003a 	cmpne	sl, #58	; 0x3a
    3378:	135a000d 	cmpne	sl, #13
    337c:	0a00033a 	beq	406c <BASIC$$Code+0x406c>
    3380:	e24cb001 	sub	fp, ip, #1
    3384:	eb000f94 	bl	71dc <BASIC$$Code+0x71dc>
    3388:	eb001750 	bl	90d0 <BASIC$$Code+0x90d0>
    338c:	e35a00e5 	cmp	sl, #229	; 0xe5
    3390:	135a00e4 	cmpne	sl, #228	; 0xe4
    3394:	135a00f2 	cmpne	sl, #242	; 0xf2
    3398:	1a001ee7 	bne	af3c <BASIC$$Code+0xaf3c>
    339c:	e35a00f2 	cmp	sl, #242	; 0xf2
    33a0:	024bb001 	subeq	fp, fp, #1
    33a4:	e2500001 	subs	r0, r0, #1
    33a8:	3a00002f 	bcc	346c <BASIC$$Code+0x346c>
    33ac:	0a000010 	beq	33f4 <BASIC$$Code+0x33f4>
    33b0:	e3a04000 	mov	r4, #0
    33b4:	e4db1001 	ldrb	r1, [fp], #1
    33b8:	e351000d 	cmp	r1, #13
    33bc:	1351008b 	cmpne	r1, #139	; 0x8b
    33c0:	0a00002d 	beq	347c <BASIC$$Code+0x347c>
    33c4:	e3510028 	cmp	r1, #40	; 0x28
    33c8:	02844001 	addeq	r4, r4, #1
    33cc:	e3510029 	cmp	r1, #41	; 0x29
    33d0:	02444001 	subeq	r4, r4, #1
    33d4:	e3340000 	teq	r4, #0
    33d8:	1afffff5 	bne	33b4 <BASIC$$Code+0x33b4>
    33dc:	e351003a 	cmp	r1, #58	; 0x3a
    33e0:	0a000021 	beq	346c <BASIC$$Code+0x346c>
    33e4:	e351002c 	cmp	r1, #44	; 0x2c
    33e8:	1afffff1 	bne	33b4 <BASIC$$Code+0x33b4>
    33ec:	e2500001 	subs	r0, r0, #1
    33f0:	1affffef 	bne	33b4 <BASIC$$Code+0x33b4>
    33f4:	e35a00e4 	cmp	sl, #228	; 0xe4
    33f8:	0a000005 	beq	3414 <BASIC$$Code+0x3414>
    33fc:	e35a00f2 	cmp	sl, #242	; 0xf2
    3400:	0a00000a 	beq	3430 <BASIC$$Code+0x3430>
    3404:	e1a0c00b 	mov	ip, fp
    3408:	ebfffe7a 	bl	2df8 <BASIC$$Code+0x2df8>
    340c:	e281c004 	add	ip, r1, #4
    3410:	eafff508 	b	838 <BASIC$$Code+0x838>
    3414:	e1a0c00b 	mov	ip, fp
    3418:	ebfffe76 	bl	2df8 <BASIC$$Code+0x2df8>
    341c:	eb00000c 	bl	3454 <BASIC$$Code+0x3454>
    3420:	e3a000f8 	mov	r0, #248	; 0xf8
    3424:	e92d1001 	push	{r0, ip}
    3428:	e281c004 	add	ip, r1, #4
    342c:	eafff501 	b	838 <BASIC$$Code+0x838>
    3430:	e4db1001 	ldrb	r1, [fp], #1
    3434:	e3510020 	cmp	r1, #32
    3438:	0afffffc 	beq	3430 <BASIC$$Code+0x3430>
    343c:	e35100f2 	cmp	r1, #242	; 0xf2
    3440:	1a001ebd 	bne	af3c <BASIC$$Code+0xaf3c>
    3444:	eb000002 	bl	3454 <BASIC$$Code+0x3454>
    3448:	e24cc001 	sub	ip, ip, #1
    344c:	e5981000 	ldr	r1, [r8]
    3450:	ea0015e4 	b	8be8 <BASIC$$Code+0x8be8>
    3454:	e1a0c00b 	mov	ip, fp
    3458:	e4dc2001 	ldrb	r2, [ip], #1
    345c:	e352000d 	cmp	r2, #13
    3460:	1352003a 	cmpne	r2, #58	; 0x3a
    3464:	1afffffb 	bne	3458 <BASIC$$Code+0x3458>
    3468:	e1a0f00e 	mov	pc, lr
    346c:	e4db1001 	ldrb	r1, [fp], #1
    3470:	e351000d 	cmp	r1, #13
    3474:	1351008b 	cmpne	r1, #139	; 0x8b
    3478:	1afffffb 	bne	346c <BASIC$$Code+0x346c>
    347c:	e351000d 	cmp	r1, #13
    3480:	0a001eb1 	beq	af4c <BASIC$$Code+0xaf4c>
    3484:	e1a0c00b 	mov	ip, fp
    3488:	eafffe7b 	b	2e7c <BASIC$$Code+0x2e7c>
    348c:	ebfff6e9 	bl	1038 <BASIC$$Code+0x1038>
    3490:	e35a0087 	cmp	sl, #135	; 0x87
    3494:	0a000004 	beq	34ac <BASIC$$Code+0x34ac>
    3498:	e35a00ea 	cmp	sl, #234	; 0xea
    349c:	124cc001 	subne	ip, ip, #1
    34a0:	0588d288 	streq	sp, [r8, #648]	; 0x288
    34a4:	e588c284 	str	ip, [r8, #644]	; 0x284
    34a8:	eafff45d 	b	624 <BASIC$$Code+0x624>
    34ac:	ebfff6ff 	bl	10b0 <BASIC$$Code+0x10b0>
    34b0:	ebfff656 	bl	e10 <BASIC$$Code+0xe10>
    34b4:	eafff4dd 	b	830 <BASIC$$Code+0x830>
    34b8:	ebfff6fc 	bl	10b0 <BASIC$$Code+0x10b0>
    34bc:	e8bd0001 	ldmfd	sp!, {r0}
    34c0:	e3500085 	cmp	r0, #133	; 0x85
    34c4:	1a001c65 	bne	a660 <BASIC$$Code+0xa660>
    34c8:	e8bd0006 	pop	{r1, r2}
    34cc:	e5881288 	str	r1, [r8, #648]	; 0x288
    34d0:	e5882284 	str	r2, [r8, #644]	; 0x284
    34d4:	eafff4d5 	b	830 <BASIC$$Code+0x830>
    34d8:	ebfff6d6 	bl	1038 <BASIC$$Code+0x1038>
    34dc:	e35a0023 	cmp	sl, #35	; 0x23
    34e0:	0a0004e2 	beq	4870 <BASIC$$Code+0x4870>
    34e4:	e24cc001 	sub	ip, ip, #1
    34e8:	ea00000a 	b	3518 <BASIC$$Code+0x3518>
    34ec:	e5d800f4 	ldrb	r0, [r8, #244]	; 0xf4
    34f0:	e3300000 	teq	r0, #0
    34f4:	0a000007 	beq	3518 <BASIC$$Code+0x3518>
    34f8:	e5981178 	ldr	r1, [r8, #376]	; 0x178
    34fc:	e1a02001 	mov	r2, r1
    3500:	e3310000 	teq	r1, #0
    3504:	0a000003 	beq	3518 <BASIC$$Code+0x3518>
    3508:	e0511000 	subs	r1, r1, r0
    350c:	2afffffb 	bcs	3500 <BASIC$$Code+0x3500>
    3510:	e2610000 	rsb	r0, r1, #0
    3514:	ebfff9fc 	bl	1d0c <BASIC$$Code+0x1d0c>
    3518:	e5d840f4 	ldrb	r4, [r8, #244]	; 0xf4
    351c:	e3a05000 	mov	r5, #0
    3520:	ebfff6c4 	bl	1038 <BASIC$$Code+0x1038>
    3524:	e35a003a 	cmp	sl, #58	; 0x3a
    3528:	135a000d 	cmpne	sl, #13
    352c:	135a008b 	cmpne	sl, #139	; 0x8b
    3530:	1a000008 	bne	3558 <BASIC$$Code+0x3558>
    3534:	ebfff631 	bl	e00 <BASIC$$Code+0xe00>
    3538:	eafff4bc 	b	830 <BASIC$$Code+0x830>
    353c:	e3a04000 	mov	r4, #0
    3540:	e3a05000 	mov	r5, #0
    3544:	ebfff6bb 	bl	1038 <BASIC$$Code+0x1038>
    3548:	e35a003a 	cmp	sl, #58	; 0x3a
    354c:	135a000d 	cmpne	sl, #13
    3550:	135a008b 	cmpne	sl, #139	; 0x8b
    3554:	0afff4b5 	beq	830 <BASIC$$Code+0x830>
    3558:	e35a007e 	cmp	sl, #126	; 0x7e
    355c:	03a05001 	moveq	r5, #1
    3560:	0affffee 	beq	3520 <BASIC$$Code+0x3520>
    3564:	e35a002c 	cmp	sl, #44	; 0x2c
    3568:	0affffdf 	beq	34ec <BASIC$$Code+0x34ec>
    356c:	e35a003b 	cmp	sl, #59	; 0x3b
    3570:	0afffff1 	beq	353c <BASIC$$Code+0x353c>
    3574:	eb000031 	bl	3640 <BASIC$$Code+0x3640>
    3578:	0affffe8 	beq	3520 <BASIC$$Code+0x3520>
    357c:	e92d0030 	push	{r4, r5}
    3580:	e24cb001 	sub	fp, ip, #1
    3584:	eb000f14 	bl	71dc <BASIC$$Code+0x71dc>
    3588:	e8bd0030 	pop	{r4, r5}
    358c:	e24bc001 	sub	ip, fp, #1
    3590:	0a000008 	beq	35b8 <BASIC$$Code+0x35b8>
    3594:	e92d0030 	push	{r4, r5}
    3598:	e59840f4 	ldr	r4, [r8, #244]	; 0xf4
    359c:	eb001acf 	bl	a0e0 <BASIC$$Code+0xa0e0>
    35a0:	e1a02009 	mov	r2, r9
    35a4:	e8bd0030 	pop	{r4, r5}
    35a8:	e2880c03 	add	r0, r8, #768	; 0x300
    35ac:	e0499000 	sub	r9, r9, r0
    35b0:	e0540009 	subs	r0, r4, r9
    35b4:	8bfff9d4 	blhi	1d0c <BASIC$$Code+0x1d0c>
    35b8:	eb000000 	bl	35c0 <BASIC$$Code+0x35c0>
    35bc:	eaffffd7 	b	3520 <BASIC$$Code+0x3520>
    35c0:	e2881c03 	add	r1, r8, #768	; 0x300
    35c4:	e1310002 	teq	r1, r2
    35c8:	01a0f00e 	moveq	pc, lr
    35cc:	e598017c 	ldr	r0, [r8, #380]	; 0x17c
    35d0:	e3700001 	cmn	r0, #1
    35d4:	1a000009 	bne	3600 <BASIC$$Code+0x3600>
    35d8:	e4d10001 	ldrb	r0, [r1], #1
    35dc:	ef000000 	svc	0x00000000
    35e0:	e1310002 	teq	r1, r2
    35e4:	1afffffb 	bne	35d8 <BASIC$$Code+0x35d8>
    35e8:	e5980178 	ldr	r0, [r8, #376]	; 0x178
    35ec:	e2422c03 	sub	r2, r2, #768	; 0x300
    35f0:	e0422008 	sub	r2, r2, r8
    35f4:	e0800002 	add	r0, r0, r2
    35f8:	e5880178 	str	r0, [r8, #376]	; 0x178
    35fc:	e1a0f00e 	mov	pc, lr
    3600:	e92d4080 	push	{r7, lr}
    3604:	e3a07000 	mov	r7, #0
    3608:	e4d10001 	ldrb	r0, [r1], #1
    360c:	ebfff9cb 	bl	1d40 <BASIC$$Code+0x1d40>
    3610:	e1310002 	teq	r1, r2
    3614:	1afffffb 	bne	3608 <BASIC$$Code+0x3608>
    3618:	e8bd4080 	pop	{r7, lr}
    361c:	e1a0f00e 	mov	pc, lr
    3620:	e35a0022 	cmp	sl, #34	; 0x22
    3624:	1a000005 	bne	3640 <BASIC$$Code+0x3640>
    3628:	e92d4030 	push	{r4, r5, lr}
    362c:	e1a0b00c 	mov	fp, ip
    3630:	eb00117f 	bl	7c34 <BASIC$$Code+0x7c34>
    3634:	e1a0c00b 	mov	ip, fp
    3638:	ebffffe0 	bl	35c0 <BASIC$$Code+0x35c0>
    363c:	ea00000a 	b	366c <BASIC$$Code+0x366c>
    3640:	e35a0027 	cmp	sl, #39	; 0x27
    3644:	0afff5ed 	beq	e00 <BASIC$$Code+0xe00>
    3648:	e35a008a 	cmp	sl, #138	; 0x8a
    364c:	0a000008 	beq	3674 <BASIC$$Code+0x3674>
    3650:	e35a0089 	cmp	sl, #137	; 0x89
    3654:	11a0f00e 	movne	pc, lr
    3658:	e92d4030 	push	{r4, r5, lr}
    365c:	eb000edd 	bl	71d8 <BASIC$$Code+0x71d8>
    3660:	e24bc001 	sub	ip, fp, #1
    3664:	eb001699 	bl	90d0 <BASIC$$Code+0x90d0>
    3668:	ebfff9a7 	bl	1d0c <BASIC$$Code+0x1d0c>
    366c:	e1500000 	cmp	r0, r0
    3670:	e8bd8030 	pop	{r4, r5, pc}
    3674:	e92d4030 	push	{r4, r5, lr}
    3678:	eb000ed6 	bl	71d8 <BASIC$$Code+0x71d8>
    367c:	eb001693 	bl	90d0 <BASIC$$Code+0x90d0>
    3680:	e35a002c 	cmp	sl, #44	; 0x2c
    3684:	0a000008 	beq	36ac <BASIC$$Code+0x36ac>
    3688:	e35a0029 	cmp	sl, #41	; 0x29
    368c:	1a001db4 	bne	ad64 <BASIC$$Code+0xad64>
    3690:	e1a0c00b 	mov	ip, fp
    3694:	e5981178 	ldr	r1, [r8, #376]	; 0x178
    3698:	e0501001 	subs	r1, r0, r1
    369c:	0afffff2 	beq	366c <BASIC$$Code+0x366c>
    36a0:	21a00001 	movcs	r0, r1
    36a4:	3bfff5d5 	blcc	e00 <BASIC$$Code+0xe00>
    36a8:	eaffffee 	b	3668 <BASIC$$Code+0x3668>
    36ac:	e92d0001 	stmfd	sp!, {r0}
    36b0:	eb0011bb 	bl	7da4 <BASIC$$Code+0x7da4>
    36b4:	eb001685 	bl	90d0 <BASIC$$Code+0x90d0>
    36b8:	ef00011f 	svc	0x0000011f
    36bc:	e1a01000 	mov	r1, r0
    36c0:	e8bd0001 	ldmfd	sp!, {r0}
    36c4:	ef000000 	svc	0x00000000
    36c8:	e1a00001 	mov	r0, r1
    36cc:	ef000000 	svc	0x00000000
    36d0:	e1a0c00b 	mov	ip, fp
    36d4:	eaffffe4 	b	366c <BASIC$$Code+0x366c>
    36d8:	e1a0b00c 	mov	fp, ip
    36dc:	e5981000 	ldr	r1, [r8]
    36e0:	ea001540 	b	8be8 <BASIC$$Code+0x8be8>
    36e4:	eb000632 	bl	4fb4 <BASIC$$Code+0x4fb4>
    36e8:	e24bb001 	sub	fp, fp, #1
    36ec:	e588b174 	str	fp, [r8, #372]	; 0x174
    36f0:	ebfff650 	bl	1038 <BASIC$$Code+0x1038>
    36f4:	e35a002c 	cmp	sl, #44	; 0x2c
    36f8:	1afff3d6 	bne	658 <BASIC$$Code+0x658>
    36fc:	eb000d0c 	bl	6b34 <BASIC$$Code+0x6b34>
    3700:	0afffffa 	beq	36f0 <BASIC$$Code+0x36f0>
    3704:	e1a0c00b 	mov	ip, fp
    3708:	e3590080 	cmp	r9, #128	; 0x80
    370c:	2a000003 	bcs	3720 <BASIC$$Code+0x3720>
    3710:	eb000006 	bl	3730 <BASIC$$Code+0x3730>
    3714:	e92d0201 	push	{r0, r9}
    3718:	eb000eaf 	bl	71dc <BASIC$$Code+0x71dc>
    371c:	eafffff0 	b	36e4 <BASIC$$Code+0x36e4>
    3720:	eb000002 	bl	3730 <BASIC$$Code+0x3730>
    3724:	e92d0201 	push	{r0, r9}
    3728:	eb001133 	bl	7bfc <BASIC$$Code+0x7bfc>
    372c:	eaffffec 	b	36e4 <BASIC$$Code+0x36e4>
    3730:	e598b174 	ldr	fp, [r8, #372]	; 0x174
    3734:	e4dba001 	ldrb	sl, [fp], #1
    3738:	e35a0020 	cmp	sl, #32
    373c:	0afffffc 	beq	3734 <BASIC$$Code+0x3734>
    3740:	e35a002c 	cmp	sl, #44	; 0x2c
    3744:	01a0f00e 	moveq	pc, lr
    3748:	e35a000d 	cmp	sl, #13
    374c:	1afffff8 	bne	3734 <BASIC$$Code+0x3734>
    3750:	e5dba000 	ldrb	sl, [fp]
    3754:	e35a00ff 	cmp	sl, #255	; 0xff
    3758:	2a001e04 	bcs	af70 <BASIC$$Code+0xaf70>
    375c:	e5dba002 	ldrb	sl, [fp, #2]
    3760:	e08b400a 	add	r4, fp, sl
    3764:	e28bb003 	add	fp, fp, #3
    3768:	e4dba001 	ldrb	sl, [fp], #1
    376c:	e35a0020 	cmp	sl, #32
    3770:	0afffffc 	beq	3768 <BASIC$$Code+0x3768>
    3774:	e35a00dc 	cmp	sl, #220	; 0xdc
    3778:	01a0f00e 	moveq	pc, lr
    377c:	e1a0b004 	mov	fp, r4
    3780:	eafffff2 	b	3750 <BASIC$$Code+0x3750>
    3784:	eb0005d7 	bl	4ee8 <BASIC$$Code+0x4ee8>
    3788:	e3a000fd 	mov	r0, #253	; 0xfd
    378c:	e92d1001 	push	{r0, ip}
    3790:	eafff428 	b	838 <BASIC$$Code+0x838>
    3794:	ebfff645 	bl	10b0 <BASIC$$Code+0x10b0>
    3798:	ebfff598 	bl	e00 <BASIC$$Code+0xe00>
    379c:	e2884c06 	add	r4, r8, #1536	; 0x600
    37a0:	e3a07000 	mov	r7, #0
    37a4:	e4d40001 	ldrb	r0, [r4], #1
    37a8:	e3500000 	cmp	r0, #0
    37ac:	0afff41f 	beq	830 <BASIC$$Code+0x830>
    37b0:	ebfff962 	bl	1d40 <BASIC$$Code+0x1d40>
    37b4:	eafffffa 	b	37a4 <BASIC$$Code+0x37a4>
    37b8:	ebfff61e 	bl	1038 <BASIC$$Code+0x1038>
    37bc:	e35a0085 	cmp	sl, #133	; 0x85
    37c0:	0affff3c 	beq	34b8 <BASIC$$Code+0x34b8>
    37c4:	e5981160 	ldr	r1, [r8, #352]	; 0x160
    37c8:	e35a003a 	cmp	sl, #58	; 0x3a
    37cc:	135a000d 	cmpne	sl, #13
    37d0:	135a008b 	cmpne	sl, #139	; 0x8b
    37d4:	0a000002 	beq	37e4 <BASIC$$Code+0x37e4>
    37d8:	e24cc001 	sub	ip, ip, #1
    37dc:	ebfffd85 	bl	2df8 <BASIC$$Code+0x2df8>
    37e0:	ebfff632 	bl	10b0 <BASIC$$Code+0x10b0>
    37e4:	e5881174 	str	r1, [r8, #372]	; 0x174
    37e8:	eafff410 	b	830 <BASIC$$Code+0x830>
    37ec:	ebfff62f 	bl	10b0 <BASIC$$Code+0x10b0>
    37f0:	e8bd0030 	pop	{r4, r5}
    37f4:	e35400f8 	cmp	r4, #248	; 0xf8
    37f8:	0555a001 	ldrbeq	sl, [r5, #-1]
    37fc:	01a0c005 	moveq	ip, r5
    3800:	0afff40a 	beq	830 <BASIC$$Code+0x830>
    3804:	e24dd008 	sub	sp, sp, #8
    3808:	eb000002 	bl	3818 <BASIC$$Code+0x3818>
    380c:	0afffff7 	beq	37f0 <BASIC$$Code+0x37f0>
    3810:	ea001dc2 	b	af20 <BASIC$$Code+0xaf20>
    3814:	e59d4000 	ldr	r4, [sp]
    3818:	e33400fd 	teq	r4, #253	; 0xfd
    381c:	028dd008 	addeq	sp, sp, #8
    3820:	01a0f00e 	moveq	pc, lr
    3824:	e33400ce 	teq	r4, #206	; 0xce
    3828:	028dd00c 	addeq	sp, sp, #12
    382c:	01a0f00e 	moveq	pc, lr
    3830:	e33400ed 	teq	r4, #237	; 0xed
    3834:	028dd014 	addeq	sp, sp, #20
    3838:	01a0f00e 	moveq	pc, lr
    383c:	e33400e3 	teq	r4, #227	; 0xe3
    3840:	028dd01c 	addeq	sp, sp, #28
    3844:	01a0f00e 	moveq	pc, lr
    3848:	e3340085 	teq	r4, #133	; 0x85
    384c:	08bd00d0 	popeq	{r4, r6, r7}
    3850:	05886288 	streq	r6, [r8, #648]	; 0x288
    3854:	05887284 	streq	r7, [r8, #644]	; 0x284
    3858:	01a0f00e 	moveq	pc, lr
    385c:	e3340028 	teq	r4, #40	; 0x28
    3860:	08bd00d0 	popeq	{r4, r6, r7}
    3864:	0588629c 	streq	r6, [r8, #668]	; 0x29c
    3868:	03a06000 	moveq	r6, #0
    386c:	05876000 	streq	r6, [r7]
    3870:	08bd0040 	ldmfdeq	sp!, {r6}
    3874:	008dd006 	addeq	sp, sp, r6
    3878:	e1a0f00e 	mov	pc, lr
    387c:	e2884fa6 	add	r4, r8, #664	; 0x298
    3880:	e5944004 	ldr	r4, [r4, #4]
    3884:	e3340000 	teq	r4, #0
    3888:	0a000008 	beq	38b0 <BASIC$$Code+0x38b0>
    388c:	e1540000 	cmp	r4, r0
    3890:	2a000006 	bcs	38b0 <BASIC$$Code+0x38b0>
    3894:	e5945000 	ldr	r5, [r4]
    3898:	e3550028 	cmp	r5, #40	; 0x28
    389c:	1a001b66 	bne	a63c <BASIC$$Code+0xa63c>
    38a0:	e5945008 	ldr	r5, [r4, #8]
    38a4:	e3a06000 	mov	r6, #0
    38a8:	e5856000 	str	r6, [r5]
    38ac:	eafffff3 	b	3880 <BASIC$$Code+0x3880>
    38b0:	e588429c 	str	r4, [r8, #668]	; 0x29c
    38b4:	e1a0f00e 	mov	pc, lr
    38b8:	ebfff5fc 	bl	10b0 <BASIC$$Code+0x10b0>
    38bc:	ebfff4ff 	bl	cc0 <BASIC$$Code+0xcc0>
    38c0:	ebfff552 	bl	e10 <BASIC$$Code+0xe10>
    38c4:	e598c160 	ldr	ip, [r8, #352]	; 0x160
    38c8:	e598016c 	ldr	r0, [r8, #364]	; 0x16c
    38cc:	ebffffea 	bl	387c <BASIC$$Code+0x387c>
    38d0:	e598d16c 	ldr	sp, [r8, #364]	; 0x16c
    38d4:	e3a00000 	mov	r0, #0
    38d8:	e92d03ff 	push	{r0, r1, r2, r3, r4, r5, r6, r7, r8, r9}
    38dc:	eafff3d5 	b	838 <BASIC$$Code+0x838>
    38e0:	ebfff5d4 	bl	1038 <BASIC$$Code+0x1038>
    38e4:	e35a0087 	cmp	sl, #135	; 0x87
    38e8:	0a000017 	beq	394c <BASIC$$Code+0x394c>
    38ec:	e23aa0ee 	eors	sl, sl, #238	; 0xee
    38f0:	0a000015 	beq	394c <BASIC$$Code+0x394c>
    38f4:	e24cb001 	sub	fp, ip, #1
    38f8:	ebfff5d7 	bl	105c <BASIC$$Code+0x105c>
    38fc:	e92d0001 	stmfd	sp!, {r0}
    3900:	ebfff5d5 	bl	105c <BASIC$$Code+0x105c>
    3904:	e1a00800 	lsl	r0, r0, #16
    3908:	e8bd0002 	ldmfd	sp!, {r1}
    390c:	e1a01801 	lsl	r1, r1, #16
    3910:	e1800821 	orr	r0, r0, r1, lsr #16
    3914:	e92d0001 	stmfd	sp!, {r0}
    3918:	ebfff5cf 	bl	105c <BASIC$$Code+0x105c>
    391c:	e92d0001 	stmfd	sp!, {r0}
    3920:	ebfff5da 	bl	1090 <BASIC$$Code+0x1090>
    3924:	e8bd0006 	pop	{r1, r2}
    3928:	e1a00800 	lsl	r0, r0, #16
    392c:	e1a01801 	lsl	r1, r1, #16
    3930:	e1800821 	orr	r0, r0, r1, lsr #16
    3934:	e2881c03 	add	r1, r8, #768	; 0x300
    3938:	e5812000 	str	r2, [r1]
    393c:	e5810004 	str	r0, [r1, #4]
    3940:	e3a00007 	mov	r0, #7
    3944:	ef000007 	svc	0x00000007
    3948:	eafff3b8 	b	830 <BASIC$$Code+0x830>
    394c:	e1a0100a 	mov	r1, sl
    3950:	ebfff5d6 	bl	10b0 <BASIC$$Code+0x10b0>
    3954:	e3a02000 	mov	r2, #0
    3958:	e3a000d2 	mov	r0, #210	; 0xd2
    395c:	ef000006 	svc	0x00000006
    3960:	eafff3b2 	b	830 <BASIC$$Code+0x830>
    3964:	ebfff5d1 	bl	10b0 <BASIC$$Code+0x10b0>
    3968:	ea001b21 	b	a5f4 <BASIC$$Code+0xa5f4>
    396c:	eb000cb6 	bl	6c4c <BASIC$$Code+0x6c4c>
    3970:	0a001ce9 	beq	ad1c <BASIC$$Code+0xad1c>
    3974:	ebfff5b3 	bl	1048 <BASIC$$Code+0x1048>
    3978:	e33a002c 	teq	sl, #44	; 0x2c
    397c:	1a001ba2 	bne	a80c <BASIC$$Code+0xa80c>
    3980:	e92d0201 	push	{r0, r9}
    3984:	eb000cb1 	bl	6c50 <BASIC$$Code+0x6c50>
    3988:	0a001ce3 	beq	ad1c <BASIC$$Code+0xad1c>
    398c:	e1a0c00b 	mov	ip, fp
    3990:	ebfff5c6 	bl	10b0 <BASIC$$Code+0x10b0>
    3994:	e8bd0030 	pop	{r4, r5}
    3998:	e3590c01 	cmp	r9, #256	; 0x100
    399c:	2a000019 	bcs	3a08 <BASIC$$Code+0x3a08>
    39a0:	e3590080 	cmp	r9, #128	; 0x80
    39a4:	3a00000e 	bcc	39e4 <BASIC$$Code+0x39e4>
    39a8:	e92d0030 	push	{r4, r5}
    39ac:	e92d0201 	push	{r0, r9}
    39b0:	e1a0b00d 	mov	fp, sp
    39b4:	eb0010b4 	bl	7c8c <BASIC$$Code+0x7c8c>
    39b8:	eb000d82 	bl	6fc8 <BASIC$$Code+0x6fc8>
    39bc:	e92d0200 	stmfd	sp!, {r9}
    39c0:	e59b0008 	ldr	r0, [fp, #8]
    39c4:	e59b900c 	ldr	r9, [fp, #12]
    39c8:	eb0010af 	bl	7c8c <BASIC$$Code+0x7c8c>
    39cc:	e8bb0030 	ldm	fp!, {r4, r5}
    39d0:	eb000578 	bl	4fb8 <BASIC$$Code+0x4fb8>
    39d4:	eb000d8f 	bl	7018 <BASIC$$Code+0x7018>
    39d8:	e1a0d00b 	mov	sp, fp
    39dc:	eb000574 	bl	4fb4 <BASIC$$Code+0x4fb4>
    39e0:	eafff392 	b	830 <BASIC$$Code+0x830>
    39e4:	e1390005 	teq	r9, r5
    39e8:	1affffee 	bne	39a8 <BASIC$$Code+0x39a8>
    39ec:	e5d01000 	ldrb	r1, [r0]
    39f0:	e5d42000 	ldrb	r2, [r4]
    39f4:	e4c41001 	strb	r1, [r4], #1
    39f8:	e4c02001 	strb	r2, [r0], #1
    39fc:	e2555001 	subs	r5, r5, #1
    3a00:	8afffff9 	bhi	39ec <BASIC$$Code+0x39ec>
    3a04:	eafff389 	b	830 <BASIC$$Code+0x830>
    3a08:	e3550c01 	cmp	r5, #256	; 0x100
    3a0c:	3affffe5 	bcc	39a8 <BASIC$$Code+0x39a8>
    3a10:	e1590005 	cmp	r9, r5
    3a14:	1a001bce 	bne	a954 <BASIC$$Code+0xa954>
    3a18:	e5901000 	ldr	r1, [r0]
    3a1c:	e5942000 	ldr	r2, [r4]
    3a20:	e5841000 	str	r1, [r4]
    3a24:	e5802000 	str	r2, [r0]
    3a28:	eafff380 	b	830 <BASIC$$Code+0x830>
    3a2c:	e3a04000 	mov	r4, #0
    3a30:	e3a05080 	mov	r5, #128	; 0x80
    3a34:	ebfff57f 	bl	1038 <BASIC$$Code+0x1038>
    3a38:	e33a0088 	teq	sl, #136	; 0x88
    3a3c:	03a04101 	moveq	r4, #1073741824	; 0x40000000
    3a40:	0bfff57c 	bleq	1038 <BASIC$$Code+0x1038>
    3a44:	e35a00f2 	cmp	sl, #242	; 0xf2
    3a48:	135a00a4 	cmpne	sl, #164	; 0xa4
    3a4c:	02844102 	addeq	r4, r4, #-2147483648	; 0x80000000
    3a50:	028400f2 	addeq	r0, r4, #242	; 0xf2
    3a54:	0a000007 	beq	3a78 <BASIC$$Code+0x3a78>
    3a58:	e35a008d 	cmp	sl, #141	; 0x8d
    3a5c:	0a000009 	beq	3a88 <BASIC$$Code+0x3a88>
    3a60:	135a00ee 	cmpne	sl, #238	; 0xee
    3a64:	02840cff 	addeq	r0, r4, #65280	; 0xff00
    3a68:	0a000002 	beq	3a78 <BASIC$$Code+0x3a78>
    3a6c:	e23a0087 	eors	r0, sl, #135	; 0x87
    3a70:	1a000007 	bne	3a94 <BASIC$$Code+0x3a94>
    3a74:	e3a05000 	mov	r5, #0
    3a78:	ebfff58c 	bl	10b0 <BASIC$$Code+0x10b0>
    3a7c:	e5880294 	str	r0, [r8, #660]	; 0x294
    3a80:	e5c85291 	strb	r5, [r8, #657]	; 0x291
    3a84:	eafff369 	b	830 <BASIC$$Code+0x830>
    3a88:	ebfff560 	bl	1010 <BASIC$$Code+0x1010>
    3a8c:	e0800004 	add	r0, r0, r4
    3a90:	eafffff8 	b	3a78 <BASIC$$Code+0x3a78>
    3a94:	e92d0030 	push	{r4, r5}
    3a98:	e24cc001 	sub	ip, ip, #1
    3a9c:	ebfff57a 	bl	108c <BASIC$$Code+0x108c>
    3aa0:	e8bd0030 	pop	{r4, r5}
    3aa4:	e0800004 	add	r0, r0, r4
    3aa8:	eafffff3 	b	3a7c <BASIC$$Code+0x3a7c>
    3aac:	ebfff576 	bl	108c <BASIC$$Code+0x108c>
    3ab0:	e5984290 	ldr	r4, [r8, #656]	; 0x290
    3ab4:	e3540000 	cmp	r4, #0
    3ab8:	1b000517 	blne	4f1c <BASIC$$Code+0x4f1c>
    3abc:	e59d4000 	ldr	r4, [sp]
    3ac0:	e35400fd 	cmp	r4, #253	; 0xfd
    3ac4:	1a000004 	bne	3adc <BASIC$$Code+0x3adc>
    3ac8:	e3300000 	teq	r0, #0
    3acc:	059dc004 	ldreq	ip, [sp, #4]
    3ad0:	0afff358 	beq	838 <BASIC$$Code+0x838>
    3ad4:	e28dd008 	add	sp, sp, #8
    3ad8:	eafff354 	b	830 <BASIC$$Code+0x830>
    3adc:	ebffff4d 	bl	3818 <BASIC$$Code+0x3818>
    3ae0:	0afffff5 	beq	3abc <BASIC$$Code+0x3abc>
    3ae4:	ea001d26 	b	af84 <BASIC$$Code+0xaf84>
    3ae8:	ebfff567 	bl	108c <BASIC$$Code+0x108c>
    3aec:	e2400001 	sub	r0, r0, #1
    3af0:	e588017c 	str	r0, [r8, #380]	; 0x17c
    3af4:	eafff34d 	b	830 <BASIC$$Code+0x830>
    3af8:	ebfff54e 	bl	1038 <BASIC$$Code+0x1038>
    3afc:	e24cb001 	sub	fp, ip, #1
    3b00:	e92d0800 	stmfd	sp!, {fp}
    3b04:	eb000db4 	bl	71dc <BASIC$$Code+0x71dc>
    3b08:	eb001570 	bl	90d0 <BASIC$$Code+0x90d0>
    3b0c:	e1a0c00b 	mov	ip, fp
    3b10:	e3500000 	cmp	r0, #0
    3b14:	024cc001 	subeq	ip, ip, #1
    3b18:	0a000007 	beq	3b3c <BASIC$$Code+0x3b3c>
    3b1c:	eb0004f2 	bl	4eec <BASIC$$Code+0x4eec>
    3b20:	e3a000ce 	mov	r0, #206	; 0xce
    3b24:	e92d1001 	push	{r0, ip}
    3b28:	eafff342 	b	838 <BASIC$$Code+0x838>
    3b2c:	e4dca001 	ldrb	sl, [ip], #1
    3b30:	e35a00ff 	cmp	sl, #255	; 0xff
    3b34:	2afff27d 	bcs	530 <BASIC$$Code+0x530>
    3b38:	e28cc002 	add	ip, ip, #2
    3b3c:	e3a01000 	mov	r1, #0
    3b40:	e4dca001 	ldrb	sl, [ip], #1
    3b44:	e35a000d 	cmp	sl, #13
    3b48:	0afffff7 	beq	3b2c <BASIC$$Code+0x3b2c>
    3b4c:	e35a0022 	cmp	sl, #34	; 0x22
    3b50:	02211001 	eoreq	r1, r1, #1
    3b54:	e3310000 	teq	r1, #0
    3b58:	1afffff8 	bne	3b40 <BASIC$$Code+0x3b40>
    3b5c:	e35a00dc 	cmp	sl, #220	; 0xdc
    3b60:	135a00f4 	cmpne	sl, #244	; 0xf4
    3b64:	03a01004 	moveq	r1, #4
    3b68:	0afffff4 	beq	3b40 <BASIC$$Code+0x3b40>
    3b6c:	e35a0095 	cmp	sl, #149	; 0x95
    3b70:	02800001 	addeq	r0, r0, #1
    3b74:	e35a00ce 	cmp	sl, #206	; 0xce
    3b78:	02400001 	subeq	r0, r0, #1
    3b7c:	1affffef 	bne	3b40 <BASIC$$Code+0x3b40>
    3b80:	e3700001 	cmn	r0, #1
    3b84:	1affffed 	bne	3b40 <BASIC$$Code+0x3b40>
    3b88:	e28dd004 	add	sp, sp, #4
    3b8c:	ebfff547 	bl	10b0 <BASIC$$Code+0x10b0>
    3b90:	eafff326 	b	830 <BASIC$$Code+0x830>
    3b94:	ebfff52f 	bl	1058 <BASIC$$Code+0x1058>
    3b98:	e92d0001 	stmfd	sp!, {r0}
    3b9c:	eb000d8e 	bl	71dc <BASIC$$Code+0x71dc>
    3ba0:	1a001b31 	bne	a86c <BASIC$$Code+0xa86c>
    3ba4:	ebfff53e 	bl	10a4 <BASIC$$Code+0x10a4>
    3ba8:	e8bd0080 	ldmfd	sp!, {r7}
    3bac:	e3a00000 	mov	r0, #0
    3bb0:	e4c20001 	strb	r0, [r2], #1
    3bb4:	eb000d07 	bl	6fd8 <BASIC$$Code+0x6fd8>
    3bb8:	e58d7000 	str	r7, [sp]
    3bbc:	e1a0e00d 	mov	lr, sp
    3bc0:	eafff460 	b	d48 <BASIC$$Code+0xd48>
    3bc4:	ebfff52b 	bl	1078 <BASIC$$Code+0x1078>
    3bc8:	e2800003 	add	r0, r0, #3
    3bcc:	e3c00003 	bic	r0, r0, #3
    3bd0:	e2881c07 	add	r1, r8, #1792	; 0x700
    3bd4:	e1500001 	cmp	r0, r1
    3bd8:	3a000005 	bcc	3bf4 <BASIC$$Code+0x3bf4>
    3bdc:	e59812a8 	ldr	r1, [r8, #680]	; 0x2a8
    3be0:	e1500001 	cmp	r0, r1
    3be4:	2a000002 	bcs	3bf4 <BASIC$$Code+0x3bf4>
    3be8:	e5880160 	str	r0, [r8, #352]	; 0x160
    3bec:	ebfff441 	bl	cf8 <BASIC$$Code+0xcf8>
    3bf0:	eafff30e 	b	830 <BASIC$$Code+0x830>
    3bf4:	ebfff4df 	bl	f78 <BASIC$$Code+0xf78>
    3bf8:	2074754f 	rsbscs	r7, r4, pc, asr #10
    3bfc:	7220666f 	eorvc	r6, r0, #116391936	; 0x6f00000
    3c00:	65676e61 	strbvs	r6, [r7, #-3681]!	; 0xfffff19f
    3c04:	6c617620 	stclvs	6, cr7, [r1], #-128	; 0xffffff80
    3c08:	61206575 			; <UNDEFINED> instruction: 0x61206575
    3c0c:	67697373 			; <UNDEFINED> instruction: 0x67697373
    3c10:	2064656e 	rsbcs	r6, r4, lr, ror #10
    3c14:	50206f74 	eorpl	r6, r0, r4, ror pc
    3c18:	0a454741 	beq	1155924 <BASIC$$Code+0x1155924>
    3c1c:	0000000d 	andeq	r0, r0, sp
    3c20:	eafff302 	b	830 <BASIC$$Code+0x830>
    3c24:	e5dca000 	ldrb	sl, [ip]
    3c28:	e35a0024 	cmp	sl, #36	; 0x24
    3c2c:	0a000008 	beq	3c54 <BASIC$$Code+0x3c54>
    3c30:	ebfff510 	bl	1078 <BASIC$$Code+0x1078>
    3c34:	e1a04000 	mov	r4, r0
    3c38:	e3a00001 	mov	r0, #1
    3c3c:	e2881c03 	add	r1, r8, #768	; 0x300
    3c40:	ef000007 	svc	0x00000007
    3c44:	e5910000 	ldr	r0, [r1]
    3c48:	e0400004 	sub	r0, r0, r4
    3c4c:	e5880298 	str	r0, [r8, #664]	; 0x298
    3c50:	eafff2f6 	b	830 <BASIC$$Code+0x830>
    3c54:	e28cc001 	add	ip, ip, #1
    3c58:	ebfff4f6 	bl	1038 <BASIC$$Code+0x1038>
    3c5c:	e35a003d 	cmp	sl, #61	; 0x3d
    3c60:	1a001ad9 	bne	a7cc <BASIC$$Code+0xa7cc>
    3c64:	eb000d5b 	bl	71d8 <BASIC$$Code+0x71d8>
    3c68:	1a001aff 	bne	a86c <BASIC$$Code+0xa86c>
    3c6c:	ebfff50c 	bl	10a4 <BASIC$$Code+0x10a4>
    3c70:	e2881c03 	add	r1, r8, #768	; 0x300
    3c74:	e0420001 	sub	r0, r2, r1
    3c78:	e5610001 	strb	r0, [r1, #-1]!
    3c7c:	e3a0000f 	mov	r0, #15
    3c80:	ef000007 	svc	0x00000007
    3c84:	eafff2e9 	b	830 <BASIC$$Code+0x830>
    3c88:	ebfff4fa 	bl	1078 <BASIC$$Code+0x1078>
    3c8c:	e2800003 	add	r0, r0, #3
    3c90:	e3c00003 	bic	r0, r0, #3
    3c94:	e2881c07 	add	r1, r8, #1792	; 0x700
    3c98:	e1500001 	cmp	r0, r1
    3c9c:	3a000008 	bcc	3cc4 <BASIC$$Code+0x3cc4>
    3ca0:	e59812a8 	ldr	r1, [r8, #680]	; 0x2a8
    3ca4:	e1500001 	cmp	r0, r1
    3ca8:	2a000005 	bcs	3cc4 <BASIC$$Code+0x3cc4>
    3cac:	e5880168 	str	r0, [r8, #360]	; 0x168
    3cb0:	e5880170 	str	r0, [r8, #368]	; 0x170
    3cb4:	e3a00000 	mov	r0, #0
    3cb8:	e5880180 	str	r0, [r8, #384]	; 0x180
    3cbc:	ebfff40d 	bl	cf8 <BASIC$$Code+0xcf8>
    3cc0:	eafff2da 	b	830 <BASIC$$Code+0x830>
    3cc4:	ebfff4ab 	bl	f78 <BASIC$$Code+0xf78>
    3cc8:	2074754f 	rsbscs	r7, r4, pc, asr #10
    3ccc:	7220666f 	eorvc	r6, r0, #116391936	; 0x6f00000
    3cd0:	65676e61 	strbvs	r6, [r7, #-3681]!	; 0xfffff19f
    3cd4:	6c617620 	stclvs	6, cr7, [r1], #-128	; 0xffffff80
    3cd8:	61206575 			; <UNDEFINED> instruction: 0x61206575
    3cdc:	67697373 			; <UNDEFINED> instruction: 0x67697373
    3ce0:	2064656e 	rsbcs	r6, r4, lr, ror #10
    3ce4:	4c206f74 	stcmi	15, cr6, [r0], #-464	; 0xfffffe30
    3ce8:	4d454d4f 	stclmi	13, cr4, [r5, #-316]	; 0xfffffec4
    3cec:	00000d0a 	andeq	r0, r0, sl, lsl #26
    3cf0:	eafff2ce 	b	830 <BASIC$$Code+0x830>
    3cf4:	ebfff4df 	bl	1078 <BASIC$$Code+0x1078>
    3cf8:	e3c00003 	bic	r0, r0, #3
    3cfc:	e2881c07 	add	r1, r8, #1792	; 0x700
    3d00:	e1500001 	cmp	r0, r1
    3d04:	3a000009 	bcc	3d30 <BASIC$$Code+0x3d30>
    3d08:	e59812a8 	ldr	r1, [r8, #680]	; 0x2a8
    3d0c:	e1500001 	cmp	r0, r1
    3d10:	2a000006 	bcs	3d30 <BASIC$$Code+0x3d30>
    3d14:	e588016c 	str	r0, [r8, #364]	; 0x16c
    3d18:	ebfffed7 	bl	387c <BASIC$$Code+0x387c>
    3d1c:	e598d16c 	ldr	sp, [r8, #364]	; 0x16c
    3d20:	e3a00000 	mov	r0, #0
    3d24:	e92d03ff 	push	{r0, r1, r2, r3, r4, r5, r6, r7, r8, r9}
    3d28:	e588d288 	str	sp, [r8, #648]	; 0x288
    3d2c:	eafff2bf 	b	830 <BASIC$$Code+0x830>
    3d30:	ebfff490 	bl	f78 <BASIC$$Code+0xf78>
    3d34:	2074754f 	rsbscs	r7, r4, pc, asr #10
    3d38:	7220666f 	eorvc	r6, r0, #116391936	; 0x6f00000
    3d3c:	65676e61 	strbvs	r6, [r7, #-3681]!	; 0xfffff19f
    3d40:	6c617620 	stclvs	6, cr7, [r1], #-128	; 0xffffff80
    3d44:	61206575 			; <UNDEFINED> instruction: 0x61206575
    3d48:	67697373 			; <UNDEFINED> instruction: 0x67697373
    3d4c:	2064656e 	rsbcs	r6, r4, lr, ror #10
    3d50:	48206f74 	stmdami	r0!, {r2, r4, r5, r6, r8, r9, sl, fp, sp, lr}
    3d54:	4d454d49 	stclmi	13, cr4, [r5, #-292]	; 0xfffffedc
    3d58:	00000d0a 	andeq	r0, r0, sl, lsl #26
    3d5c:	eafff2b3 	b	830 <BASIC$$Code+0x830>
    3d60:	eb000bb9 	bl	6c4c <BASIC$$Code+0x6c4c>
    3d64:	0a001bec 	beq	ad1c <BASIC$$Code+0xad1c>
    3d68:	e3590080 	cmp	r9, #128	; 0x80
    3d6c:	1a001ac7 	bne	a890 <BASIC$$Code+0xa890>
    3d70:	e92d0001 	stmfd	sp!, {r0}
    3d74:	e3a00001 	mov	r0, #1
    3d78:	e92d0001 	stmfd	sp!, {r0}
    3d7c:	ebfff4b1 	bl	1048 <BASIC$$Code+0x1048>
    3d80:	e3a000ff 	mov	r0, #255	; 0xff
    3d84:	e35a002c 	cmp	sl, #44	; 0x2c
    3d88:	1a000012 	bne	3dd8 <BASIC$$Code+0x3dd8>
    3d8c:	eb000d12 	bl	71dc <BASIC$$Code+0x71dc>
    3d90:	eb0014ce 	bl	90d0 <BASIC$$Code+0x90d0>
    3d94:	ea00000f 	b	3dd8 <BASIC$$Code+0x3dd8>
    3d98:	eb000bab 	bl	6c4c <BASIC$$Code+0x6c4c>
    3d9c:	0a001bde 	beq	ad1c <BASIC$$Code+0xad1c>
    3da0:	e3590080 	cmp	r9, #128	; 0x80
    3da4:	1a001ab9 	bne	a890 <BASIC$$Code+0xa890>
    3da8:	ebfff4a6 	bl	1048 <BASIC$$Code+0x1048>
    3dac:	e35a002c 	cmp	sl, #44	; 0x2c
    3db0:	1a001a95 	bne	a80c <BASIC$$Code+0xa80c>
    3db4:	e92d0001 	stmfd	sp!, {r0}
    3db8:	eb000d07 	bl	71dc <BASIC$$Code+0x71dc>
    3dbc:	eb0014c3 	bl	90d0 <BASIC$$Code+0x90d0>
    3dc0:	e92d0001 	stmfd	sp!, {r0}
    3dc4:	e3a000ff 	mov	r0, #255	; 0xff
    3dc8:	e35a002c 	cmp	sl, #44	; 0x2c
    3dcc:	1a000001 	bne	3dd8 <BASIC$$Code+0x3dd8>
    3dd0:	eb000d01 	bl	71dc <BASIC$$Code+0x71dc>
    3dd4:	eb0014bd 	bl	90d0 <BASIC$$Code+0x90d0>
    3dd8:	e92d0001 	stmfd	sp!, {r0}
    3ddc:	e35a0029 	cmp	sl, #41	; 0x29
    3de0:	1a001bdf 	bne	ad64 <BASIC$$Code+0xad64>
    3de4:	ebfff497 	bl	1048 <BASIC$$Code+0x1048>
    3de8:	e35a003d 	cmp	sl, #61	; 0x3d
    3dec:	1a001a76 	bne	a7cc <BASIC$$Code+0xa7cc>
    3df0:	eb000cf9 	bl	71dc <BASIC$$Code+0x71dc>
    3df4:	1a001a9c 	bne	a86c <BASIC$$Code+0xa86c>
    3df8:	ebfff4a9 	bl	10a4 <BASIC$$Code+0x10a4>
    3dfc:	e8bd0070 	pop	{r4, r5, r6}
    3e00:	e2881c03 	add	r1, r8, #768	; 0x300
    3e04:	e1520001 	cmp	r2, r1
    3e08:	0afff288 	beq	830 <BASIC$$Code+0x830>
    3e0c:	e3c67003 	bic	r7, r6, #3
    3e10:	e2061003 	and	r1, r6, #3
    3e14:	e8970081 	ldm	r7, {r0, r7}
    3e18:	e1b01181 	lsls	r1, r1, #3
    3e1c:	11a00130 	lsrne	r0, r0, r1
    3e20:	12611020 	rsbne	r1, r1, #32
    3e24:	11800117 	orrne	r0, r0, r7, lsl r1
    3e28:	e2451001 	sub	r1, r5, #1
    3e2c:	e35100ff 	cmp	r1, #255	; 0xff
    3e30:	23a05001 	movcs	r5, #1
    3e34:	e5d61004 	ldrb	r1, [r6, #4]
    3e38:	e1550001 	cmp	r5, r1
    3e3c:	8afff27b 	bhi	830 <BASIC$$Code+0x830>
    3e40:	e0801001 	add	r1, r0, r1
    3e44:	e0807005 	add	r7, r0, r5
    3e48:	e2477001 	sub	r7, r7, #1
    3e4c:	e2883c03 	add	r3, r8, #768	; 0x300
    3e50:	e4d35001 	ldrb	r5, [r3], #1
    3e54:	e4c75001 	strb	r5, [r7], #1
    3e58:	e1330002 	teq	r3, r2
    3e5c:	0afff273 	beq	830 <BASIC$$Code+0x830>
    3e60:	e1570001 	cmp	r7, r1
    3e64:	2afff271 	bcs	830 <BASIC$$Code+0x830>
    3e68:	e2544001 	subs	r4, r4, #1
    3e6c:	8afffff7 	bhi	3e50 <BASIC$$Code+0x3e50>
    3e70:	eafff26e 	b	830 <BASIC$$Code+0x830>
    3e74:	eb000b74 	bl	6c4c <BASIC$$Code+0x6c4c>
    3e78:	0a001ba7 	beq	ad1c <BASIC$$Code+0xad1c>
    3e7c:	e3590080 	cmp	r9, #128	; 0x80
    3e80:	1a001a82 	bne	a890 <BASIC$$Code+0xa890>
    3e84:	e92d0001 	stmfd	sp!, {r0}
    3e88:	ebfff46e 	bl	1048 <BASIC$$Code+0x1048>
    3e8c:	e3a000ff 	mov	r0, #255	; 0xff
    3e90:	e35a002c 	cmp	sl, #44	; 0x2c
    3e94:	1a000001 	bne	3ea0 <BASIC$$Code+0x3ea0>
    3e98:	eb000ccf 	bl	71dc <BASIC$$Code+0x71dc>
    3e9c:	eb00148b 	bl	90d0 <BASIC$$Code+0x90d0>
    3ea0:	e92d0001 	stmfd	sp!, {r0}
    3ea4:	e35a0029 	cmp	sl, #41	; 0x29
    3ea8:	1a001bad 	bne	ad64 <BASIC$$Code+0xad64>
    3eac:	ebfff465 	bl	1048 <BASIC$$Code+0x1048>
    3eb0:	e35a003d 	cmp	sl, #61	; 0x3d
    3eb4:	1a001a44 	bne	a7cc <BASIC$$Code+0xa7cc>
    3eb8:	eb000cc7 	bl	71dc <BASIC$$Code+0x71dc>
    3ebc:	1a001a6a 	bne	a86c <BASIC$$Code+0xa86c>
    3ec0:	ebfff477 	bl	10a4 <BASIC$$Code+0x10a4>
    3ec4:	e8bd0050 	pop	{r4, r6}
    3ec8:	e2881c03 	add	r1, r8, #768	; 0x300
    3ecc:	e0520001 	subs	r0, r2, r1
    3ed0:	0afff256 	beq	830 <BASIC$$Code+0x830>
    3ed4:	e1540000 	cmp	r4, r0
    3ed8:	21a04000 	movcs	r4, r0
    3edc:	e5d65004 	ldrb	r5, [r6, #4]
    3ee0:	e0555004 	subs	r5, r5, r4
    3ee4:	e2855001 	add	r5, r5, #1
    3ee8:	2affffc7 	bcs	3e0c <BASIC$$Code+0x3e0c>
    3eec:	eafff24f 	b	830 <BASIC$$Code+0x830>
    3ef0:	ebfff46e 	bl	10b0 <BASIC$$Code+0x10b0>
    3ef4:	ebfff3c2 	bl	e04 <BASIC$$Code+0xe04>
    3ef8:	ef000110 	svc	0x00000110
    3efc:	eafff24b 	b	830 <BASIC$$Code+0x830>
    3f00:	ebfff46a 	bl	10b0 <BASIC$$Code+0x10b0>
    3f04:	ebfff3be 	bl	e04 <BASIC$$Code+0xe04>
    3f08:	ef00010c 	svc	0x0000010c
    3f0c:	eafff247 	b	830 <BASIC$$Code+0x830>
    3f10:	e3a00095 	mov	r0, #149	; 0x95
    3f14:	e3a0109d 	mov	r1, #157	; 0x9d
    3f18:	eb000010 	bl	3f60 <BASIC$$Code+0x3f60>
    3f1c:	e92d0001 	stmfd	sp!, {r0}
    3f20:	ebfff44c 	bl	1058 <BASIC$$Code+0x1058>
    3f24:	e92d0001 	stmfd	sp!, {r0}
    3f28:	ebfff44b 	bl	105c <BASIC$$Code+0x105c>
    3f2c:	e92d0001 	stmfd	sp!, {r0}
    3f30:	ebfff456 	bl	1090 <BASIC$$Code+0x1090>
    3f34:	e8bd0018 	pop	{r3, r4}
    3f38:	e0841000 	add	r1, r4, r0
    3f3c:	ef000119 	svc	0x00000119
    3f40:	ef000104 	svc	0x00000104
    3f44:	e1a00004 	mov	r0, r4
    3f48:	eb0001da 	bl	46b8 <BASIC$$Code+0x46b8>
    3f4c:	e1a00003 	mov	r0, r3
    3f50:	eb0001d8 	bl	46b8 <BASIC$$Code+0x46b8>
    3f54:	ef000119 	svc	0x00000119
    3f58:	e8bd0004 	ldmfd	sp!, {r2}
    3f5c:	ea000143 	b	4470 <BASIC$$Code+0x4470>
    3f60:	e92d4000 	stmfd	sp!, {lr}
    3f64:	ebfff433 	bl	1038 <BASIC$$Code+0x1038>
    3f68:	e35a00c8 	cmp	sl, #200	; 0xc8
    3f6c:	1a000004 	bne	3f84 <BASIC$$Code+0x3f84>
    3f70:	e4dca001 	ldrb	sl, [ip], #1
    3f74:	e33a0090 	teq	sl, #144	; 0x90
    3f78:	01a00001 	moveq	r0, r1
    3f7c:	08bd8000 	ldmfdeq	sp!, {pc}
    3f80:	e24cc001 	sub	ip, ip, #1
    3f84:	e24cc001 	sub	ip, ip, #1
    3f88:	e8bd8000 	ldmfd	sp!, {pc}
    3f8c:	eb000c91 	bl	71d8 <BASIC$$Code+0x71d8>
    3f90:	eb00144e 	bl	90d0 <BASIC$$Code+0x90d0>
    3f94:	e35a00c8 	cmp	sl, #200	; 0xc8
    3f98:	0a000005 	beq	3fb4 <BASIC$$Code+0x3fb4>
    3f9c:	e33a002c 	teq	sl, #44	; 0x2c
    3fa0:	0a00000f 	beq	3fe4 <BASIC$$Code+0x3fe4>
    3fa4:	ebfff43e 	bl	10a4 <BASIC$$Code+0x10a4>
    3fa8:	ef000111 	svc	0x00000111
    3fac:	ef000000 	svc	0x00000000
    3fb0:	eafff21e 	b	830 <BASIC$$Code+0x830>
    3fb4:	e4dba001 	ldrb	sl, [fp], #1
    3fb8:	e35a009c 	cmp	sl, #156	; 0x9c
    3fbc:	1a001b16 	bne	ac1c <BASIC$$Code+0xac1c>
    3fc0:	e92d0001 	stmfd	sp!, {r0}
    3fc4:	ebfff431 	bl	1090 <BASIC$$Code+0x1090>
    3fc8:	e1a01000 	mov	r1, r0
    3fcc:	e8bd0001 	ldmfd	sp!, {r0}
    3fd0:	ef000111 	svc	0x00000111
    3fd4:	ef000000 	svc	0x00000000
    3fd8:	e1a003a0 	lsr	r0, r0, #7
    3fdc:	e2000001 	and	r0, r0, #1
    3fe0:	ea000191 	b	462c <BASIC$$Code+0x462c>
    3fe4:	e92d0001 	stmfd	sp!, {r0}
    3fe8:	eb000c7b 	bl	71dc <BASIC$$Code+0x71dc>
    3fec:	eb001437 	bl	90d0 <BASIC$$Code+0x90d0>
    3ff0:	e33a002c 	teq	sl, #44	; 0x2c
    3ff4:	0a00000b 	beq	4028 <BASIC$$Code+0x4028>
    3ff8:	ebfff429 	bl	10a4 <BASIC$$Code+0x10a4>
    3ffc:	e1a01000 	mov	r1, r0
    4000:	e8bd0001 	ldmfd	sp!, {r0}
    4004:	ef000113 	svc	0x00000113
    4008:	ef000000 	svc	0x00000000
    400c:	e1a00001 	mov	r0, r1
    4010:	eb0001a8 	bl	46b8 <BASIC$$Code+0x46b8>
    4014:	e1a00821 	lsr	r0, r1, #16
    4018:	ef000000 	svc	0x00000000
    401c:	e1a00c21 	lsr	r0, r1, #24
    4020:	ef000000 	svc	0x00000000
    4024:	eafff201 	b	830 <BASIC$$Code+0x830>
    4028:	e92d0001 	stmfd	sp!, {r0}
    402c:	ebfff40a 	bl	105c <BASIC$$Code+0x105c>
    4030:	e92d0001 	stmfd	sp!, {r0}
    4034:	ebfff415 	bl	1090 <BASIC$$Code+0x1090>
    4038:	e1a05000 	mov	r5, r0
    403c:	ef000113 	svc	0x00000113
    4040:	e8bd000e 	pop	{r1, r2, r3}
    4044:	e1a00003 	mov	r0, r3
    4048:	ef000000 	svc	0x00000000
    404c:	ef000110 	svc	0x00000110
    4050:	e1a00002 	mov	r0, r2
    4054:	ef000000 	svc	0x00000000
    4058:	e1a00001 	mov	r0, r1
    405c:	ef000000 	svc	0x00000000
    4060:	e1a00005 	mov	r0, r5
    4064:	ef000000 	svc	0x00000000
    4068:	eafff1f0 	b	830 <BASIC$$Code+0x830>
    406c:	ef000117 	svc	0x00000117
    4070:	ef000101 	svc	0x00000101
    4074:	ef000101 	svc	0x00000101
    4078:	ebfff3c3 	bl	f8c <BASIC$$Code+0xf8c>
    407c:	eafff1eb 	b	830 <BASIC$$Code+0x830>
    4080:	ebfff40a 	bl	10b0 <BASIC$$Code+0x10b0>
    4084:	ef000117 	svc	0x00000117
    4088:	ef000101 	svc	0x00000101
    408c:	ebfff3bd 	bl	f88 <BASIC$$Code+0xf88>
    4090:	eafff1e6 	b	830 <BASIC$$Code+0x830>
    4094:	e3a00005 	mov	r0, #5
    4098:	ea0000db 	b	440c <BASIC$$Code+0x440c>
    409c:	e3a00085 	mov	r0, #133	; 0x85
    40a0:	ea0000d9 	b	440c <BASIC$$Code+0x440c>
    40a4:	eb000c4b 	bl	71d8 <BASIC$$Code+0x71d8>
    40a8:	eb001408 	bl	90d0 <BASIC$$Code+0x90d0>
    40ac:	e35a002c 	cmp	sl, #44	; 0x2c
    40b0:	0a000017 	beq	4114 <BASIC$$Code+0x4114>
    40b4:	e35a00c8 	cmp	sl, #200	; 0xc8
    40b8:	0a000004 	beq	40d0 <BASIC$$Code+0x40d0>
    40bc:	ebfff3f8 	bl	10a4 <BASIC$$Code+0x10a4>
    40c0:	ef000112 	svc	0x00000112
    40c4:	ef000100 	svc	0x00000100
    40c8:	ef000000 	svc	0x00000000
    40cc:	eafff1d7 	b	830 <BASIC$$Code+0x830>
    40d0:	e1a01000 	mov	r1, r0
    40d4:	e3a00000 	mov	r0, #0
    40d8:	e4dba001 	ldrb	sl, [fp], #1
    40dc:	e35a009c 	cmp	sl, #156	; 0x9c
    40e0:	1a001acd 	bne	ac1c <BASIC$$Code+0xac1c>
    40e4:	e92d0003 	push	{r0, r1}
    40e8:	ebfff3e8 	bl	1090 <BASIC$$Code+0x1090>
    40ec:	e1a01000 	mov	r1, r0
    40f0:	e8bd0005 	pop	{r0, r2}
    40f4:	ef000112 	svc	0x00000112
    40f8:	ef000000 	svc	0x00000000
    40fc:	e1a00002 	mov	r0, r2
    4100:	ef000000 	svc	0x00000000
    4104:	e3100080 	tst	r0, #128	; 0x80
    4108:	03a00002 	moveq	r0, #2
    410c:	13a00003 	movne	r0, #3
    4110:	ea000145 	b	462c <BASIC$$Code+0x462c>
    4114:	e92d0001 	stmfd	sp!, {r0}
    4118:	eb000c2f 	bl	71dc <BASIC$$Code+0x71dc>
    411c:	eb0013eb 	bl	90d0 <BASIC$$Code+0x90d0>
    4120:	e1a01000 	mov	r1, r0
    4124:	e8bd0001 	ldmfd	sp!, {r0}
    4128:	e35a00c8 	cmp	sl, #200	; 0xc8
    412c:	0affffe9 	beq	40d8 <BASIC$$Code+0x40d8>
    4130:	ef000112 	svc	0x00000112
    4134:	ef000000 	svc	0x00000000
    4138:	e1a00001 	mov	r0, r1
    413c:	ef000000 	svc	0x00000000
    4140:	eafff1ba 	b	830 <BASIC$$Code+0x830>
    4144:	ebfff3bb 	bl	1038 <BASIC$$Code+0x1038>
    4148:	e33a00e8 	teq	sl, #232	; 0xe8
    414c:	03a05000 	moveq	r5, #0
    4150:	03a04000 	moveq	r4, #0
    4154:	0afffb99 	beq	2fc0 <BASIC$$Code+0x2fc0>
    4158:	e24cc001 	sub	ip, ip, #1
    415c:	ebfff3bd 	bl	1058 <BASIC$$Code+0x1058>
    4160:	e92d0001 	stmfd	sp!, {r0}
    4164:	ebfff3bc 	bl	105c <BASIC$$Code+0x105c>
    4168:	e92d0001 	stmfd	sp!, {r0}
    416c:	ebfff3ba 	bl	105c <BASIC$$Code+0x105c>
    4170:	e92d0001 	stmfd	sp!, {r0}
    4174:	ebfff3c5 	bl	1090 <BASIC$$Code+0x1090>
    4178:	e8bd0016 	pop	{r1, r2, r4}
    417c:	e1a03000 	mov	r3, r0
    4180:	ef000119 	svc	0x00000119
    4184:	ef000104 	svc	0x00000104
    4188:	e1a00004 	mov	r0, r4
    418c:	eb000149 	bl	46b8 <BASIC$$Code+0x46b8>
    4190:	e1a00002 	mov	r0, r2
    4194:	eb000147 	bl	46b8 <BASIC$$Code+0x46b8>
    4198:	ef000119 	svc	0x00000119
    419c:	ef000105 	svc	0x00000105
    41a0:	ea0000b4 	b	4478 <BASIC$$Code+0x4478>
    41a4:	ebfff3b8 	bl	108c <BASIC$$Code+0x108c>
    41a8:	ebfff315 	bl	e04 <BASIC$$Code+0xe04>
    41ac:	ef000116 	svc	0x00000116
    41b0:	ef000000 	svc	0x00000000
    41b4:	eafff19d 	b	830 <BASIC$$Code+0x830>
    41b8:	ebfff39e 	bl	1038 <BASIC$$Code+0x1038>
    41bc:	e35a00fb 	cmp	sl, #251	; 0xfb
    41c0:	0a00007c 	beq	43b8 <BASIC$$Code+0x43b8>
    41c4:	e35a00ee 	cmp	sl, #238	; 0xee
    41c8:	0a00006e 	beq	4388 <BASIC$$Code+0x4388>
    41cc:	e35a0087 	cmp	sl, #135	; 0x87
    41d0:	0a000069 	beq	437c <BASIC$$Code+0x437c>
    41d4:	e35a00b8 	cmp	sl, #184	; 0xb8
    41d8:	0a00005a 	beq	4348 <BASIC$$Code+0x4348>
    41dc:	e35a0088 	cmp	sl, #136	; 0x88
    41e0:	0a000044 	beq	42f8 <BASIC$$Code+0x42f8>
    41e4:	e35a00c8 	cmp	sl, #200	; 0xc8
    41e8:	0a000026 	beq	4288 <BASIC$$Code+0x4288>
    41ec:	e24cc001 	sub	ip, ip, #1
    41f0:	eb000a4f 	bl	6b34 <BASIC$$Code+0x6b34>
    41f4:	0a001b97 	beq	b058 <BASIC$$Code+0xb058>
    41f8:	e3590080 	cmp	r9, #128	; 0x80
    41fc:	2a001b95 	bcs	b058 <BASIC$$Code+0xb058>
    4200:	e92d0201 	push	{r0, r9}
    4204:	e1a0c00b 	mov	ip, fp
    4208:	ebfff38a 	bl	1038 <BASIC$$Code+0x1038>
    420c:	e35a002c 	cmp	sl, #44	; 0x2c
    4210:	1a00197d 	bne	a80c <BASIC$$Code+0xa80c>
    4214:	eb000a46 	bl	6b34 <BASIC$$Code+0x6b34>
    4218:	0a001b8e 	beq	b058 <BASIC$$Code+0xb058>
    421c:	e3590080 	cmp	r9, #128	; 0x80
    4220:	2a001b8c 	bcs	b058 <BASIC$$Code+0xb058>
    4224:	e92d0201 	push	{r0, r9}
    4228:	e1a0c00b 	mov	ip, fp
    422c:	ebfff381 	bl	1038 <BASIC$$Code+0x1038>
    4230:	e35a002c 	cmp	sl, #44	; 0x2c
    4234:	1a001974 	bne	a80c <BASIC$$Code+0xa80c>
    4238:	eb000a3d 	bl	6b34 <BASIC$$Code+0x6b34>
    423c:	0a001b85 	beq	b058 <BASIC$$Code+0xb058>
    4240:	e3590080 	cmp	r9, #128	; 0x80
    4244:	2a001b83 	bcs	b058 <BASIC$$Code+0xb058>
    4248:	e1a0c00b 	mov	ip, fp
    424c:	ebfff397 	bl	10b0 <BASIC$$Code+0x10b0>
    4250:	e92d0201 	push	{r0, r9}
    4254:	ef00001c 	svc	0x0000001c
    4258:	e1a06000 	mov	r6, r0
    425c:	e1a07001 	mov	r7, r1
    4260:	e1a00002 	mov	r0, r2
    4264:	e3a09101 	mov	r9, #1073741824	; 0x40000000
    4268:	eb000351 	bl	4fb4 <BASIC$$Code+0x4fb4>
    426c:	e1a00007 	mov	r0, r7
    4270:	e3a09101 	mov	r9, #1073741824	; 0x40000000
    4274:	eb00034e 	bl	4fb4 <BASIC$$Code+0x4fb4>
    4278:	e1a00006 	mov	r0, r6
    427c:	e3a09101 	mov	r9, #1073741824	; 0x40000000
    4280:	eb00034b 	bl	4fb4 <BASIC$$Code+0x4fb4>
    4284:	eafff169 	b	830 <BASIC$$Code+0x830>
    4288:	e4dca001 	ldrb	sl, [ip], #1
    428c:	e35a0093 	cmp	sl, #147	; 0x93
    4290:	1a001a61 	bne	ac1c <BASIC$$Code+0xac1c>
    4294:	ebfff36f 	bl	1058 <BASIC$$Code+0x1058>
    4298:	e92d0001 	stmfd	sp!, {r0}
    429c:	ebfff36e 	bl	105c <BASIC$$Code+0x105c>
    42a0:	e92d0001 	stmfd	sp!, {r0}
    42a4:	ebfff36c 	bl	105c <BASIC$$Code+0x105c>
    42a8:	e92d0001 	stmfd	sp!, {r0}
    42ac:	ebfff377 	bl	1090 <BASIC$$Code+0x1090>
    42b0:	e8bd000e 	pop	{r1, r2, r3}
    42b4:	e0824000 	add	r4, r2, r0
    42b8:	e0815003 	add	r5, r1, r3
    42bc:	e3a000ff 	mov	r0, #255	; 0xff
    42c0:	e3800cff 	orr	r0, r0, #65280	; 0xff00
    42c4:	e0033000 	and	r3, r3, r0
    42c8:	e1832802 	orr	r2, r3, r2, lsl #16
    42cc:	e0055000 	and	r5, r5, r0
    42d0:	e1853804 	orr	r3, r5, r4, lsl #16
    42d4:	e2881c03 	add	r1, r8, #768	; 0x300
    42d8:	e2811003 	add	r1, r1, #3
    42dc:	e3a00001 	mov	r0, #1
    42e0:	e5c10000 	strb	r0, [r1]
    42e4:	e5812001 	str	r2, [r1, #1]
    42e8:	e5813005 	str	r3, [r1, #5]
    42ec:	e3a00015 	mov	r0, #21
    42f0:	ef000007 	svc	0x00000007
    42f4:	eafff14d 	b	830 <BASIC$$Code+0x830>
    42f8:	eb000bb6 	bl	71d8 <BASIC$$Code+0x71d8>
    42fc:	eb001373 	bl	90d0 <BASIC$$Code+0x90d0>
    4300:	e20010ff 	and	r1, r0, #255	; 0xff
    4304:	e35a002c 	cmp	sl, #44	; 0x2c
    4308:	1a000004 	bne	4320 <BASIC$$Code+0x4320>
    430c:	e92d0001 	stmfd	sp!, {r0}
    4310:	eb000bb1 	bl	71dc <BASIC$$Code+0x71dc>
    4314:	eb00136d 	bl	90d0 <BASIC$$Code+0x90d0>
    4318:	e20010ff 	and	r1, r0, #255	; 0xff
    431c:	e8bd0001 	ldmfd	sp!, {r0}
    4320:	ebfff35f 	bl	10a4 <BASIC$$Code+0x10a4>
    4324:	e1a00400 	lsl	r0, r0, #8
    4328:	e2000cff 	and	r0, r0, #65280	; 0xff00
    432c:	e3800002 	orr	r0, r0, #2
    4330:	e1800801 	orr	r0, r0, r1, lsl #16
    4334:	e2881c03 	add	r1, r8, #768	; 0x300
    4338:	e5810000 	str	r0, [r1]
    433c:	e3a00015 	mov	r0, #21
    4340:	ef000007 	svc	0x00000007
    4344:	eafff139 	b	830 <BASIC$$Code+0x830>
    4348:	ebfff342 	bl	1058 <BASIC$$Code+0x1058>
    434c:	e92d0001 	stmfd	sp!, {r0}
    4350:	ebfff34e 	bl	1090 <BASIC$$Code+0x1090>
    4354:	e8bd0002 	ldmfd	sp!, {r1}
    4358:	e92d0001 	stmfd	sp!, {r0}
    435c:	e1a01801 	lsl	r1, r1, #16
    4360:	e3811c03 	orr	r1, r1, #768	; 0x300
    4364:	e92d0002 	stmfd	sp!, {r1}
    4368:	e28d1001 	add	r1, sp, #1
    436c:	e3a00015 	mov	r0, #21
    4370:	ef000007 	svc	0x00000007
    4374:	e28dd008 	add	sp, sp, #8
    4378:	eafff12c 	b	830 <BASIC$$Code+0x830>
    437c:	e3a00000 	mov	r0, #0
    4380:	ebfff34a 	bl	10b0 <BASIC$$Code+0x10b0>
    4384:	ea000007 	b	43a8 <BASIC$$Code+0x43a8>
    4388:	e3a00001 	mov	r0, #1
    438c:	ebfff329 	bl	1038 <BASIC$$Code+0x1038>
    4390:	e35a003a 	cmp	sl, #58	; 0x3a
    4394:	135a000d 	cmpne	sl, #13
    4398:	135a008b 	cmpne	sl, #139	; 0x8b
    439c:	0a000001 	beq	43a8 <BASIC$$Code+0x43a8>
    43a0:	e24cc001 	sub	ip, ip, #1
    43a4:	ebfff338 	bl	108c <BASIC$$Code+0x108c>
    43a8:	e1a01000 	mov	r1, r0
    43ac:	e3a0006a 	mov	r0, #106	; 0x6a
    43b0:	ef000006 	svc	0x00000006
    43b4:	eafff11d 	b	830 <BASIC$$Code+0x830>
    43b8:	ebfff326 	bl	1058 <BASIC$$Code+0x1058>
    43bc:	e92d0001 	stmfd	sp!, {r0}
    43c0:	ebfff325 	bl	105c <BASIC$$Code+0x105c>
    43c4:	e92d0001 	stmfd	sp!, {r0}
    43c8:	ebfff323 	bl	105c <BASIC$$Code+0x105c>
    43cc:	e92d0001 	stmfd	sp!, {r0}
    43d0:	ebfff32e 	bl	1090 <BASIC$$Code+0x1090>
    43d4:	e1a05000 	mov	r5, r0
    43d8:	ef000113 	svc	0x00000113
    43dc:	e8bd000e 	pop	{r1, r2, r3}
    43e0:	e1a00003 	mov	r0, r3
    43e4:	ef000000 	svc	0x00000000
    43e8:	ef000119 	svc	0x00000119
    43ec:	e1a00002 	mov	r0, r2
    43f0:	ef000000 	svc	0x00000000
    43f4:	e1a00001 	mov	r0, r1
    43f8:	ef000000 	svc	0x00000000
    43fc:	e1a00005 	mov	r0, r5
    4400:	ef000000 	svc	0x00000000
    4404:	eafff109 	b	830 <BASIC$$Code+0x830>
    4408:	e3a00004 	mov	r0, #4
    440c:	ebfff309 	bl	1038 <BASIC$$Code+0x1038>
    4410:	e35a0042 	cmp	sl, #66	; 0x42
    4414:	124cc001 	subne	ip, ip, #1
    4418:	1a00000d 	bne	4454 <BASIC$$Code+0x4454>
    441c:	e4dca001 	ldrb	sl, [ip], #1
    4420:	e35a0059 	cmp	sl, #89	; 0x59
    4424:	02400004 	subeq	r0, r0, #4
    4428:	124cc002 	subne	ip, ip, #2
    442c:	ea000008 	b	4454 <BASIC$$Code+0x4454>
    4430:	ebfff308 	bl	1058 <BASIC$$Code+0x1058>
    4434:	e92d0001 	stmfd	sp!, {r0}
    4438:	ebfff314 	bl	1090 <BASIC$$Code+0x1090>
    443c:	ef00011d 	svc	0x0000011d
    4440:	e8bd0002 	ldmfd	sp!, {r1}
    4444:	e1a03000 	mov	r3, r0
    4448:	ea00000a 	b	4478 <BASIC$$Code+0x4478>
    444c:	ebfff301 	bl	1058 <BASIC$$Code+0x1058>
    4450:	e1a0c00b 	mov	ip, fp
    4454:	e92d0001 	stmfd	sp!, {r0}
    4458:	ebfff2fe 	bl	1058 <BASIC$$Code+0x1058>
    445c:	e92d0001 	stmfd	sp!, {r0}
    4460:	ebfff30a 	bl	1090 <BASIC$$Code+0x1090>
    4464:	e8bd0006 	pop	{r1, r2}
    4468:	e1a03000 	mov	r3, r0
    446c:	ef000119 	svc	0x00000119
    4470:	e1a00002 	mov	r0, r2
    4474:	ef000000 	svc	0x00000000
    4478:	e1a00001 	mov	r0, r1
    447c:	eb00008d 	bl	46b8 <BASIC$$Code+0x46b8>
    4480:	e1a00003 	mov	r0, r3
    4484:	eb00008b 	bl	46b8 <BASIC$$Code+0x46b8>
    4488:	eafff0e8 	b	830 <BASIC$$Code+0x830>
    448c:	ebfff2e9 	bl	1038 <BASIC$$Code+0x1038>
    4490:	e3a00045 	mov	r0, #69	; 0x45
    4494:	e35a00b8 	cmp	sl, #184	; 0xb8
    4498:	1affffdc 	bne	4410 <BASIC$$Code+0x4410>
    449c:	ebfff2ed 	bl	1058 <BASIC$$Code+0x1058>
    44a0:	e92d0001 	stmfd	sp!, {r0}
    44a4:	ebfff2f9 	bl	1090 <BASIC$$Code+0x1090>
    44a8:	e8bd0002 	ldmfd	sp!, {r1}
    44ac:	e92d0001 	stmfd	sp!, {r0}
    44b0:	e1a01801 	lsl	r1, r1, #16
    44b4:	e3811c05 	orr	r1, r1, #1280	; 0x500
    44b8:	e92d0002 	stmfd	sp!, {r1}
    44bc:	e28d1001 	add	r1, sp, #1
    44c0:	e3a00015 	mov	r0, #21
    44c4:	ef000007 	svc	0x00000007
    44c8:	e28dd008 	add	sp, sp, #8
    44cc:	eafff0d7 	b	830 <BASIC$$Code+0x830>
    44d0:	e3a00000 	mov	r0, #0
    44d4:	e3a01065 	mov	r1, #101	; 0x65
    44d8:	ebfffea0 	bl	3f60 <BASIC$$Code+0x3f60>
    44dc:	e92d0001 	stmfd	sp!, {r0}
    44e0:	ebfff2dc 	bl	1058 <BASIC$$Code+0x1058>
    44e4:	e92d0001 	stmfd	sp!, {r0}
    44e8:	ebfff2db 	bl	105c <BASIC$$Code+0x105c>
    44ec:	e92d0001 	stmfd	sp!, {r0}
    44f0:	eb000b39 	bl	71dc <BASIC$$Code+0x71dc>
    44f4:	eb0012f5 	bl	90d0 <BASIC$$Code+0x90d0>
    44f8:	e92d0001 	stmfd	sp!, {r0}
    44fc:	e35a002c 	cmp	sl, #44	; 0x2c
    4500:	1a000001 	bne	450c <BASIC$$Code+0x450c>
    4504:	eb000b34 	bl	71dc <BASIC$$Code+0x71dc>
    4508:	eb0012f0 	bl	90d0 <BASIC$$Code+0x90d0>
    450c:	e8bd0038 	pop	{r3, r4, r5}
    4510:	e0851003 	add	r1, r5, r3
    4514:	e0843000 	add	r3, r4, r0
    4518:	e35a00b8 	cmp	sl, #184	; 0xb8
    451c:	0a000022 	beq	45ac <BASIC$$Code+0x45ac>
    4520:	ebfff2df 	bl	10a4 <BASIC$$Code+0x10a4>
    4524:	ef000119 	svc	0x00000119
    4528:	ef000104 	svc	0x00000104
    452c:	e1a00005 	mov	r0, r5
    4530:	eb000060 	bl	46b8 <BASIC$$Code+0x46b8>
    4534:	e1a00004 	mov	r0, r4
    4538:	eb00005e 	bl	46b8 <BASIC$$Code+0x46b8>
    453c:	e8bd0004 	ldmfd	sp!, {r2}
    4540:	ef000119 	svc	0x00000119
    4544:	e3320000 	teq	r2, #0
    4548:	1affffc8 	bne	4470 <BASIC$$Code+0x4470>
    454c:	ef00010d 	svc	0x0000010d
    4550:	e1a00001 	mov	r0, r1
    4554:	eb000057 	bl	46b8 <BASIC$$Code+0x46b8>
    4558:	e1a00004 	mov	r0, r4
    455c:	eb000055 	bl	46b8 <BASIC$$Code+0x46b8>
    4560:	ef000119 	svc	0x00000119
    4564:	ef00010d 	svc	0x0000010d
    4568:	e1a00001 	mov	r0, r1
    456c:	eb000051 	bl	46b8 <BASIC$$Code+0x46b8>
    4570:	e1a00003 	mov	r0, r3
    4574:	eb00004f 	bl	46b8 <BASIC$$Code+0x46b8>
    4578:	ef000119 	svc	0x00000119
    457c:	ef00010d 	svc	0x0000010d
    4580:	e1a00005 	mov	r0, r5
    4584:	eb00004b 	bl	46b8 <BASIC$$Code+0x46b8>
    4588:	e1a00003 	mov	r0, r3
    458c:	eb000049 	bl	46b8 <BASIC$$Code+0x46b8>
    4590:	ef000119 	svc	0x00000119
    4594:	ef00010d 	svc	0x0000010d
    4598:	e1a00005 	mov	r0, r5
    459c:	eb000045 	bl	46b8 <BASIC$$Code+0x46b8>
    45a0:	e1a00004 	mov	r0, r4
    45a4:	eb000043 	bl	46b8 <BASIC$$Code+0x46b8>
    45a8:	eafff0a0 	b	830 <BASIC$$Code+0x830>
    45ac:	e92d003a 	push	{r1, r3, r4, r5}
    45b0:	ebfff2a9 	bl	105c <BASIC$$Code+0x105c>
    45b4:	e92d0001 	stmfd	sp!, {r0}
    45b8:	ebfff2b4 	bl	1090 <BASIC$$Code+0x1090>
    45bc:	e8bd007e 	pop	{r1, r2, r3, r4, r5, r6}
    45c0:	e1a07000 	mov	r7, r0
    45c4:	ef000119 	svc	0x00000119
    45c8:	ef000104 	svc	0x00000104
    45cc:	e1a00005 	mov	r0, r5
    45d0:	eb000038 	bl	46b8 <BASIC$$Code+0x46b8>
    45d4:	e1a00004 	mov	r0, r4
    45d8:	eb000036 	bl	46b8 <BASIC$$Code+0x46b8>
    45dc:	ef000119 	svc	0x00000119
    45e0:	ef000104 	svc	0x00000104
    45e4:	e1a00002 	mov	r0, r2
    45e8:	eb000032 	bl	46b8 <BASIC$$Code+0x46b8>
    45ec:	e1a00003 	mov	r0, r3
    45f0:	eb000030 	bl	46b8 <BASIC$$Code+0x46b8>
    45f4:	e3360000 	teq	r6, #0
    45f8:	ef000119 	svc	0x00000119
    45fc:	0f0001be 	svceq	0x000001be
    4600:	1f0001bd 	svcne	0x000001bd
    4604:	e1a00001 	mov	r0, r1
    4608:	eb00002a 	bl	46b8 <BASIC$$Code+0x46b8>
    460c:	e1a00007 	mov	r0, r7
    4610:	eb000028 	bl	46b8 <BASIC$$Code+0x46b8>
    4614:	eafff085 	b	830 <BASIC$$Code+0x830>
    4618:	ebfff28e 	bl	1058 <BASIC$$Code+0x1058>
    461c:	e92d0001 	stmfd	sp!, {r0}
    4620:	ebfff29a 	bl	1090 <BASIC$$Code+0x1090>
    4624:	e1a01000 	mov	r1, r0
    4628:	e8bd0001 	ldmfd	sp!, {r0}
    462c:	ef000117 	svc	0x00000117
    4630:	ef000111 	svc	0x00000111
    4634:	ef000000 	svc	0x00000000
    4638:	e1a00001 	mov	r0, r1
    463c:	ef000000 	svc	0x00000000
    4640:	ef000100 	svc	0x00000100
    4644:	ef000100 	svc	0x00000100
    4648:	ef000100 	svc	0x00000100
    464c:	ef000100 	svc	0x00000100
    4650:	ef000100 	svc	0x00000100
    4654:	ef000100 	svc	0x00000100
    4658:	eafff074 	b	830 <BASIC$$Code+0x830>
    465c:	e1a00420 	lsr	r0, r0, #8
    4660:	ef000000 	svc	0x00000000
    4664:	ebfff273 	bl	1038 <BASIC$$Code+0x1038>
    4668:	e35a003a 	cmp	sl, #58	; 0x3a
    466c:	0afff06f 	beq	830 <BASIC$$Code+0x830>
    4670:	e35a000d 	cmp	sl, #13
    4674:	0afff06d 	beq	830 <BASIC$$Code+0x830>
    4678:	e35a008b 	cmp	sl, #139	; 0x8b
    467c:	0afff06b 	beq	830 <BASIC$$Code+0x830>
    4680:	e24cb001 	sub	fp, ip, #1
    4684:	eb000ad4 	bl	71dc <BASIC$$Code+0x71dc>
    4688:	e1a0c00b 	mov	ip, fp
    468c:	eb00128f 	bl	90d0 <BASIC$$Code+0x90d0>
    4690:	ef000000 	svc	0x00000000
    4694:	e35a002c 	cmp	sl, #44	; 0x2c
    4698:	0afffff1 	beq	4664 <BASIC$$Code+0x4664>
    469c:	e35a003b 	cmp	sl, #59	; 0x3b
    46a0:	0affffed 	beq	465c <BASIC$$Code+0x465c>
    46a4:	e35a007c 	cmp	sl, #124	; 0x7c
    46a8:	1affffee 	bne	4668 <BASIC$$Code+0x4668>
    46ac:	ebfff235 	bl	f88 <BASIC$$Code+0xf88>
    46b0:	ef000100 	svc	0x00000100
    46b4:	eaffffea 	b	4664 <BASIC$$Code+0x4664>
    46b8:	ef000000 	svc	0x00000000
    46bc:	e1a00420 	lsr	r0, r0, #8
    46c0:	ef000000 	svc	0x00000000
    46c4:	e1a0f00e 	mov	pc, lr
    46c8:	ebfff278 	bl	10b0 <BASIC$$Code+0x10b0>
    46cc:	e3a00013 	mov	r0, #19
    46d0:	ef000006 	svc	0x00000006
    46d4:	eafff055 	b	830 <BASIC$$Code+0x830>
    46d8:	e3a00003 	mov	r0, #3
    46dc:	ea000000 	b	46e4 <BASIC$$Code+0x46e4>
    46e0:	e3a00001 	mov	r0, #1
    46e4:	e92d0001 	stmfd	sp!, {r0}
    46e8:	eb000bec 	bl	76a0 <BASIC$$Code+0x76a0>
    46ec:	e92d0001 	stmfd	sp!, {r0}
    46f0:	e1a0c00b 	mov	ip, fp
    46f4:	ebfff25f 	bl	1078 <BASIC$$Code+0x1078>
    46f8:	e1a02000 	mov	r2, r0
    46fc:	e8bd0002 	ldmfd	sp!, {r1}
    4700:	e8bd0001 	ldmfd	sp!, {r0}
    4704:	ef000009 	svc	0x00000009
    4708:	eafff048 	b	830 <BASIC$$Code+0x830>
    470c:	eb000be3 	bl	76a0 <BASIC$$Code+0x76a0>
    4710:	ebfff24c 	bl	1048 <BASIC$$Code+0x1048>
    4714:	e35a002c 	cmp	sl, #44	; 0x2c
    4718:	1a00183b 	bne	a80c <BASIC$$Code+0xa80c>
    471c:	e92d0002 	stmfd	sp!, {r1}
    4720:	eb000aad 	bl	71dc <BASIC$$Code+0x71dc>
    4724:	0a000004 	beq	473c <BASIC$$Code+0x473c>
    4728:	4b00126a 	blmi	90d8 <BASIC$$Code+0x90d8>
    472c:	ebfff25c 	bl	10a4 <BASIC$$Code+0x10a4>
    4730:	e8bd0002 	ldmfd	sp!, {r1}
    4734:	ef00000b 	svc	0x0000000b
    4738:	eafff03c 	b	830 <BASIC$$Code+0x830>
    473c:	e33a003b 	teq	sl, #59	; 0x3b
    4740:	13a0000a 	movne	r0, #10
    4744:	14c20001 	strbne	r0, [r2], #1
    4748:	0bfff23e 	bleq	1048 <BASIC$$Code+0x1048>
    474c:	ebfff254 	bl	10a4 <BASIC$$Code+0x10a4>
    4750:	e2883c03 	add	r3, r8, #768	; 0x300
    4754:	e8bd0002 	ldmfd	sp!, {r1}
    4758:	e1320003 	teq	r2, r3
    475c:	14d30001 	ldrbne	r0, [r3], #1
    4760:	1f00000b 	svcne	0x0000000b
    4764:	1afffffb 	bne	4758 <BASIC$$Code+0x4758>
    4768:	eafff030 	b	830 <BASIC$$Code+0x830>
    476c:	eb000bcb 	bl	76a0 <BASIC$$Code+0x76a0>
    4770:	ebfff234 	bl	1048 <BASIC$$Code+0x1048>
    4774:	ebfff24a 	bl	10a4 <BASIC$$Code+0x10a4>
    4778:	e3a00000 	mov	r0, #0
    477c:	ef00000d 	svc	0x0000000d
    4780:	eafff02a 	b	830 <BASIC$$Code+0x830>
    4784:	e1a0b00c 	mov	fp, ip
    4788:	eb000bca 	bl	76b8 <BASIC$$Code+0x76b8>
    478c:	e92d0001 	stmfd	sp!, {r0}
    4790:	e1a0c00b 	mov	ip, fp
    4794:	ebfff227 	bl	1038 <BASIC$$Code+0x1038>
    4798:	e35a002c 	cmp	sl, #44	; 0x2c
    479c:	1a000031 	bne	4868 <BASIC$$Code+0x4868>
    47a0:	eb0008e3 	bl	6b34 <BASIC$$Code+0x6b34>
    47a4:	0a00191c 	beq	ac1c <BASIC$$Code+0xac1c>
    47a8:	e1a04000 	mov	r4, r0
    47ac:	e1a05009 	mov	r5, r9
    47b0:	e59d1000 	ldr	r1, [sp]
    47b4:	ef00000a 	svc	0x0000000a
    47b8:	e3550080 	cmp	r5, #128	; 0x80
    47bc:	3a00000d 	bcc	47f8 <BASIC$$Code+0x47f8>
    47c0:	e1b09c00 	lsls	r9, r0, #24
    47c4:	1a001828 	bne	a86c <BASIC$$Code+0xa86c>
    47c8:	ef00000a 	svc	0x0000000a
    47cc:	e3300000 	teq	r0, #0
    47d0:	e2882c03 	add	r2, r8, #768	; 0x300
    47d4:	e0822000 	add	r2, r2, r0
    47d8:	0a000011 	beq	4824 <BASIC$$Code+0x4824>
    47dc:	e1a03000 	mov	r3, r0
    47e0:	e1a06002 	mov	r6, r2
    47e4:	ef00000a 	svc	0x0000000a
    47e8:	e5660001 	strb	r0, [r6, #-1]!
    47ec:	e2533001 	subs	r3, r3, #1
    47f0:	1afffffb 	bne	47e4 <BASIC$$Code+0x47e4>
    47f4:	ea00000a 	b	4824 <BASIC$$Code+0x4824>
    47f8:	e1b09c00 	lsls	r9, r0, #24
    47fc:	0a001806 	beq	a81c <BASIC$$Code+0xa81c>
    4800:	4a000009 	bmi	482c <BASIC$$Code+0x482c>
    4804:	ef00000a 	svc	0x0000000a
    4808:	e1a02c00 	lsl	r2, r0, #24
    480c:	ef00000a 	svc	0x0000000a
    4810:	e1822800 	orr	r2, r2, r0, lsl #16
    4814:	ef00000a 	svc	0x0000000a
    4818:	e1822400 	orr	r2, r2, r0, lsl #8
    481c:	ef00000a 	svc	0x0000000a
    4820:	e1820000 	orr	r0, r2, r0
    4824:	eb0001e3 	bl	4fb8 <BASIC$$Code+0x4fb8>
    4828:	eaffffd8 	b	4790 <BASIC$$Code+0x4790>
    482c:	e2889c03 	add	r9, r8, #768	; 0x300
    4830:	e3a02000 	mov	r2, #0
    4834:	ef00000a 	svc	0x0000000a
    4838:	e7c90002 	strb	r0, [r9, r2]
    483c:	e2822001 	add	r2, r2, #1
    4840:	e3520005 	cmp	r2, #5
    4844:	1afffffa 	bne	4834 <BASIC$$Code+0x4834>
    4848:	e8990003 	ldm	r9, {r0, r1}
    484c:	e2003102 	and	r3, r0, #-2147483648	; 0x80000000
    4850:	e21110ff 	ands	r1, r1, #255	; 0xff
    4854:	03300000 	teqeq	r0, #0
    4858:	13800102 	orrne	r0, r0, #-2147483648	; 0x80000000
    485c:	e3a09102 	mov	r9, #-2147483648	; 0x80000000
    4860:	eaffffef 	b	4824 <BASIC$$Code+0x4824>
    4864:	e1a0c00b 	mov	ip, fp
    4868:	e28dd004 	add	sp, sp, #4
    486c:	eaffef79 	b	658 <BASIC$$Code+0x658>
    4870:	e1a0b00c 	mov	fp, ip
    4874:	eb000b8f 	bl	76b8 <BASIC$$Code+0x76b8>
    4878:	e92d0001 	stmfd	sp!, {r0}
    487c:	ebfff1f1 	bl	1048 <BASIC$$Code+0x1048>
    4880:	e35a002c 	cmp	sl, #44	; 0x2c
    4884:	1afffff6 	bne	4864 <BASIC$$Code+0x4864>
    4888:	eb000a53 	bl	71dc <BASIC$$Code+0x71dc>
    488c:	eb00136b 	bl	9640 <BASIC$$Code+0x9640>
    4890:	e1a00c29 	lsr	r0, r9, #24
    4894:	e59d1000 	ldr	r1, [sp]
    4898:	ef00000b 	svc	0x0000000b
    489c:	e3390000 	teq	r9, #0
    48a0:	0a000009 	beq	48cc <BASIC$$Code+0x48cc>
    48a4:	4a000012 	bmi	48f4 <BASIC$$Code+0x48f4>
    48a8:	e1a00c24 	lsr	r0, r4, #24
    48ac:	ef00000b 	svc	0x0000000b
    48b0:	e1a00824 	lsr	r0, r4, #16
    48b4:	ef00000b 	svc	0x0000000b
    48b8:	e1a00424 	lsr	r0, r4, #8
    48bc:	ef00000b 	svc	0x0000000b
    48c0:	e1a00004 	mov	r0, r4
    48c4:	ef00000b 	svc	0x0000000b
    48c8:	eaffffec 	b	4880 <BASIC$$Code+0x4880>
    48cc:	e2883c03 	add	r3, r8, #768	; 0x300
    48d0:	e0420003 	sub	r0, r2, r3
    48d4:	ef00000b 	svc	0x0000000b
    48d8:	e3300000 	teq	r0, #0
    48dc:	0affffe7 	beq	4880 <BASIC$$Code+0x4880>
    48e0:	e5720001 	ldrb	r0, [r2, #-1]!
    48e4:	ef00000b 	svc	0x0000000b
    48e8:	e1320003 	teq	r2, r3
    48ec:	1afffffb 	bne	48e0 <BASIC$$Code+0x48e0>
    48f0:	eaffffe2 	b	4880 <BASIC$$Code+0x4880>
    48f4:	e2889c03 	add	r9, r8, #768	; 0x300
    48f8:	eb001354 	bl	9650 <BASIC$$Code+0x9650>
    48fc:	eb00146f 	bl	9ac0 <BASIC$$Code+0x9ac0>
    4900:	e59d1000 	ldr	r1, [sp]
    4904:	e2892005 	add	r2, r9, #5
    4908:	e4d90001 	ldrb	r0, [r9], #1
    490c:	ef00000b 	svc	0x0000000b
    4910:	e1390002 	teq	r9, r2
    4914:	1afffffb 	bne	4908 <BASIC$$Code+0x4908>
    4918:	eaffffd8 	b	4880 <BASIC$$Code+0x4880>
    491c:	e598016c 	ldr	r0, [r8, #364]	; 0x16c
    4920:	e59812a8 	ldr	r1, [r8, #680]	; 0x2a8
    4924:	e1500001 	cmp	r0, r1
    4928:	1a0019e4 	bne	b0c0 <BASIC$$Code+0xb0c0>
    492c:	e240002c 	sub	r0, r0, #44	; 0x2c
    4930:	e150000d 	cmp	r0, sp
    4934:	2a0019e1 	bcs	b0c0 <BASIC$$Code+0xb0c0>
    4938:	eb000012 	bl	4988 <BASIC$$Code+0x4988>
    493c:	e59812a8 	ldr	r1, [r8, #680]	; 0x2a8
    4940:	e0411004 	sub	r1, r1, r4
    4944:	e59802a0 	ldr	r0, [r8, #672]	; 0x2a0
    4948:	e5210004 	str	r0, [r1, #-4]!
    494c:	e58812a8 	str	r1, [r8, #680]	; 0x2a8
    4950:	e588116c 	str	r1, [r8, #364]	; 0x16c
    4954:	e58812a0 	str	r1, [r8, #672]	; 0x2a0
    4958:	e5b20004 	ldr	r0, [r2, #4]!
    495c:	e5a10004 	str	r0, [r1, #4]!
    4960:	e2544004 	subs	r4, r4, #4
    4964:	8afffffb 	bhi	4958 <BASIC$$Code+0x4958>
    4968:	eaffefb0 	b	830 <BASIC$$Code+0x830>
    496c:	eb000005 	bl	4988 <BASIC$$Code+0x4988>
    4970:	e59832a4 	ldr	r3, [r8, #676]	; 0x2a4
    4974:	e58822a4 	str	r2, [r8, #676]	; 0x2a4
    4978:	e4823004 	str	r3, [r2], #4
    497c:	e0822004 	add	r2, r2, r4
    4980:	e5882170 	str	r2, [r8, #368]	; 0x170
    4984:	eaffefa9 	b	830 <BASIC$$Code+0x830>
    4988:	e92d4000 	stmfd	sp!, {lr}
    498c:	eb000a11 	bl	71d8 <BASIC$$Code+0x71d8>
    4990:	ebfff1cf 	bl	10d4 <BASIC$$Code+0x10d4>
    4994:	ebfff1c2 	bl	10a4 <BASIC$$Code+0x10a4>
    4998:	e3a000ff 	mov	r0, #255	; 0xff
    499c:	e2881c03 	add	r1, r8, #768	; 0x300
    49a0:	e5982170 	ldr	r2, [r8, #368]	; 0x170
    49a4:	e2822004 	add	r2, r2, #4
    49a8:	e3a03000 	mov	r3, #0
    49ac:	ef000008 	svc	0x00000008
    49b0:	e2844003 	add	r4, r4, #3
    49b4:	e3c44003 	bic	r4, r4, #3
    49b8:	e5982170 	ldr	r2, [r8, #368]	; 0x170
    49bc:	e2820004 	add	r0, r2, #4
    49c0:	e5d01000 	ldrb	r1, [r0]
    49c4:	e351000d 	cmp	r1, #13
    49c8:	1a0019c3 	bne	b0dc <BASIC$$Code+0xb0dc>
    49cc:	e5d01001 	ldrb	r1, [r0, #1]
    49d0:	e35100ff 	cmp	r1, #255	; 0xff
    49d4:	08bd8000 	ldmfdeq	sp!, {pc}
    49d8:	e5d01003 	ldrb	r1, [r0, #3]
    49dc:	e3510004 	cmp	r1, #4
    49e0:	20800001 	addcs	r0, r0, r1
    49e4:	2afffff5 	bcs	49c0 <BASIC$$Code+0x49c0>
    49e8:	ea0019bb 	b	b0dc <BASIC$$Code+0xb0dc>
    49ec:	eb0009f9 	bl	71d8 <BASIC$$Code+0x71d8>
    49f0:	ebfff1b7 	bl	10d4 <BASIC$$Code+0x10d4>
    49f4:	ebfff1aa 	bl	10a4 <BASIC$$Code+0x10a4>
    49f8:	e2880c03 	add	r0, r8, #768	; 0x300
    49fc:	eb0000a5 	bl	4c98 <BASIC$$Code+0x4c98>
    4a00:	ef000005 	svc	0x00000005
    4a04:	eaffef89 	b	830 <BASIC$$Code+0x830>
    4a08:	ebfff0c5 	bl	d24 <BASIC$$Code+0xd24>
    4a0c:	5359532a 	cmppl	r9, #-1476395008	; 0xa8000000
    4a10:	74697720 	strbtvc	r7, [r9], #-1824	; 0xfffff8e0
    4a14:	74732068 	ldrbtvc	r2, [r3], #-104	; 0xffffff98
    4a18:	676e6972 			; <UNDEFINED> instruction: 0x676e6972
    4a1c:	6d616e20 	stclvs	14, cr6, [r1, #-128]!	; 0xffffff80
    4a20:	6f6e2065 	svcvs	0x006e2065
    4a24:	65792074 	ldrbvs	r2, [r9, #-116]!	; 0xffffff8c
    4a28:	75732074 	ldrbvc	r2, [r3, #-116]!	; 0xffffff8c
    4a2c:	726f7070 	rsbvc	r7, pc, #112	; 0x70
    4a30:	00646574 	rsbeq	r6, r4, r4, ror r5
    4a34:	eb0009e7 	bl	71d8 <BASIC$$Code+0x71d8>
    4a38:	0afffff2 	beq	4a08 <BASIC$$Code+0x4a08>
    4a3c:	4b0011a5 	blmi	90d8 <BASIC$$Code+0x90d8>
    4a40:	e1a0900d 	mov	r9, sp
    4a44:	e92d0001 	stmfd	sp!, {r0}
    4a48:	e3a04000 	mov	r4, #0
    4a4c:	e3a05000 	mov	r5, #0
    4a50:	e3a06000 	mov	r6, #0
    4a54:	e3a07000 	mov	r7, #0
    4a58:	e92d02f0 	push	{r4, r5, r6, r7, r9}
    4a5c:	e92d00f0 	push	{r4, r5, r6, r7}
    4a60:	e35a002c 	cmp	sl, #44	; 0x2c
    4a64:	1a000020 	bne	4aec <BASIC$$Code+0x4aec>
    4a68:	e3540008 	cmp	r4, #8
    4a6c:	2a00197f 	bcs	b070 <BASIC$$Code+0xb070>
    4a70:	e92d0010 	stmfd	sp!, {r4}
    4a74:	ebfff173 	bl	1048 <BASIC$$Code+0x1048>
    4a78:	e35a002c 	cmp	sl, #44	; 0x2c
    4a7c:	0a000006 	beq	4a9c <BASIC$$Code+0x4a9c>
    4a80:	e24bb001 	sub	fp, fp, #1
    4a84:	eb0009d4 	bl	71dc <BASIC$$Code+0x71dc>
    4a88:	0a000005 	beq	4aa4 <BASIC$$Code+0x4aa4>
    4a8c:	e8bd0010 	ldmfd	sp!, {r4}
    4a90:	eb00118e 	bl	90d0 <BASIC$$Code+0x90d0>
    4a94:	e78d0104 	str	r0, [sp, r4, lsl #2]
    4a98:	ea000010 	b	4ae0 <BASIC$$Code+0x4ae0>
    4a9c:	e8bd0010 	ldmfd	sp!, {r4}
    4aa0:	ea00000e 	b	4ae0 <BASIC$$Code+0x4ae0>
    4aa4:	e3a00000 	mov	r0, #0
    4aa8:	e4c20001 	strb	r0, [r2], #1
    4aac:	e5987170 	ldr	r7, [r8, #368]	; 0x170
    4ab0:	e8bd0271 	pop	{r0, r4, r5, r6, r9}
    4ab4:	e8a70271 	stmia	r7!, {r0, r4, r5, r6, r9}
    4ab8:	e8bd0271 	pop	{r0, r4, r5, r6, r9}
    4abc:	e8a70271 	stmia	r7!, {r0, r4, r5, r6, r9}
    4ac0:	eb000944 	bl	6fd8 <BASIC$$Code+0x6fd8>
    4ac4:	e9370271 	ldmdb	r7!, {r0, r4, r5, r6, r9}
    4ac8:	e92d0271 	push	{r0, r4, r5, r6, r9}
    4acc:	e9370271 	ldmdb	r7!, {r0, r4, r5, r6, r9}
    4ad0:	e92d0271 	push	{r0, r4, r5, r6, r9}
    4ad4:	e8bd0010 	ldmfd	sp!, {r4}
    4ad8:	e28d0028 	add	r0, sp, #40	; 0x28
    4adc:	e78d0104 	str	r0, [sp, r4, lsl #2]
    4ae0:	e2844001 	add	r4, r4, #1
    4ae4:	e35a002c 	cmp	sl, #44	; 0x2c
    4ae8:	0affffde 	beq	4a68 <BASIC$$Code+0x4a68>
    4aec:	e1a0c00b 	mov	ip, fp
    4af0:	e35a00b8 	cmp	sl, #184	; 0xb8
    4af4:	1bfff16e 	blne	10b4 <BASIC$$Code+0x10b4>
    4af8:	e2889c03 	add	r9, r8, #768	; 0x300
    4afc:	e59d4020 	ldr	r4, [sp, #32]
    4b00:	e5145004 	ldr	r5, [r4, #-4]
    4b04:	e3c554ff 	bic	r5, r5, #-16777216	; 0xff000000
    4b08:	e59f60f8 	ldr	r6, [pc, #248]	; 4c08 <BASIC$$Code+0x4c08>
    4b0c:	e1866005 	orr	r6, r6, r5
    4b10:	e5896000 	str	r6, [r9]
    4b14:	e59f60f0 	ldr	r6, [pc, #240]	; 4c0c <BASIC$$Code+0x4c0c>
    4b18:	e5896004 	str	r6, [r9, #4]
    4b1c:	e8bd00ff 	pop	{r0, r1, r2, r3, r4, r5, r6, r7}
    4b20:	e1a0e00f 	mov	lr, pc
    4b24:	e1a0f009 	mov	pc, r9
    4b28:	e92d80ff 	push	{r0, r1, r2, r3, r4, r5, r6, r7, pc}
    4b2c:	e35a00b8 	cmp	sl, #184	; 0xb8
    4b30:	1a00002d 	bne	4bec <BASIC$$Code+0x4bec>
    4b34:	e3a07000 	mov	r7, #0
    4b38:	e3570008 	cmp	r7, #8
    4b3c:	2a001955 	bcs	b098 <BASIC$$Code+0xb098>
    4b40:	e92d0080 	stmfd	sp!, {r7}
    4b44:	eb0007fa 	bl	6b34 <BASIC$$Code+0x6b34>
    4b48:	e8bd0080 	ldmfd	sp!, {r7}
    4b4c:	0a000028 	beq	4bf4 <BASIC$$Code+0x4bf4>
    4b50:	e1a04000 	mov	r4, r0
    4b54:	e1a05009 	mov	r5, r9
    4b58:	e79d0107 	ldr	r0, [sp, r7, lsl #2]
    4b5c:	e3a09101 	mov	r9, #1073741824	; 0x40000000
    4b60:	e3550080 	cmp	r5, #128	; 0x80
    4b64:	3a00000c 	bcc	4b9c <BASIC$$Code+0x4b9c>
    4b68:	e3a09000 	mov	r9, #0
    4b6c:	e2882c03 	add	r2, r8, #768	; 0x300
    4b70:	e2823c01 	add	r3, r2, #256	; 0x100
    4b74:	e4d01001 	ldrb	r1, [r0], #1
    4b78:	e4c21001 	strb	r1, [r2], #1
    4b7c:	e1320003 	teq	r2, r3
    4b80:	1331000d 	teqne	r1, #13
    4b84:	13310000 	teqne	r1, #0
    4b88:	1331000a 	teqne	r1, #10
    4b8c:	1afffff8 	bne	4b74 <BASIC$$Code+0x4b74>
    4b90:	e1320003 	teq	r2, r3
    4b94:	024220ff 	subeq	r2, r2, #255	; 0xff
    4b98:	e2422001 	sub	r2, r2, #1
    4b9c:	e92d0080 	stmfd	sp!, {r7}
    4ba0:	eb000104 	bl	4fb8 <BASIC$$Code+0x4fb8>
    4ba4:	e8bd0080 	ldmfd	sp!, {r7}
    4ba8:	e2877001 	add	r7, r7, #1
    4bac:	e1a0c00b 	mov	ip, fp
    4bb0:	ebfff120 	bl	1038 <BASIC$$Code+0x1038>
    4bb4:	e35a002c 	cmp	sl, #44	; 0x2c
    4bb8:	0affffde 	beq	4b38 <BASIC$$Code+0x4b38>
    4bbc:	e35a003b 	cmp	sl, #59	; 0x3b
    4bc0:	1a000009 	bne	4bec <BASIC$$Code+0x4bec>
    4bc4:	eb0007da 	bl	6b34 <BASIC$$Code+0x6b34>
    4bc8:	0a001813 	beq	ac1c <BASIC$$Code+0xac1c>
    4bcc:	e1a04000 	mov	r4, r0
    4bd0:	e1a05009 	mov	r5, r9
    4bd4:	e59d0020 	ldr	r0, [sp, #32]
    4bd8:	e1a00e20 	lsr	r0, r0, #28
    4bdc:	e3a09101 	mov	r9, #1073741824	; 0x40000000
    4be0:	eb0000f4 	bl	4fb8 <BASIC$$Code+0x4fb8>
    4be4:	e1a0c00b 	mov	ip, fp
    4be8:	ebfff112 	bl	1038 <BASIC$$Code+0x1038>
    4bec:	e8bd22ff 	pop	{r0, r1, r2, r3, r4, r5, r6, r7, r9, sp}
    4bf0:	eaffee98 	b	658 <BASIC$$Code+0x658>
    4bf4:	ebfff10f 	bl	1038 <BASIC$$Code+0x1038>
    4bf8:	e35a002c 	cmp	sl, #44	; 0x2c
    4bfc:	024cb001 	subeq	fp, ip, #1
    4c00:	0affffe8 	beq	4ba8 <BASIC$$Code+0x4ba8>
    4c04:	ea001804 	b	ac1c <BASIC$$Code+0xac1c>
    4c08:	ef000000 	svc	0x00000000
    4c0c:	e1a0f00e 	mov	pc, lr
    4c10:	eb000970 	bl	71d8 <BASIC$$Code+0x71d8>
    4c14:	eb00112c 	bl	90cc <BASIC$$Code+0x90cc>
    4c18:	e35a002c 	cmp	sl, #44	; 0x2c
    4c1c:	0a000006 	beq	4c3c <BASIC$$Code+0x4c3c>
    4c20:	ebfff11f 	bl	10a4 <BASIC$$Code+0x10a4>
    4c24:	e1a09000 	mov	r9, r0
    4c28:	eb00003b 	bl	4d1c <BASIC$$Code+0x4d1c>
    4c2c:	1affeeff 	bne	830 <BASIC$$Code+0x830>
    4c30:	e1a04009 	mov	r4, r9
    4c34:	e3a05000 	mov	r5, #0
    4c38:	ea00000c 	b	4c70 <BASIC$$Code+0x4c70>
    4c3c:	e1a04000 	mov	r4, r0
    4c40:	e3a05000 	mov	r5, #0
    4c44:	e92d0030 	push	{r4, r5}
    4c48:	e1a0c00b 	mov	ip, fp
    4c4c:	eb0007b8 	bl	6b34 <BASIC$$Code+0x6b34>
    4c50:	0a0017f1 	beq	ac1c <BASIC$$Code+0xac1c>
    4c54:	e8bd0030 	pop	{r4, r5}
    4c58:	e2855001 	add	r5, r5, #1
    4c5c:	e92d0201 	push	{r0, r9}
    4c60:	ebfff0f8 	bl	1048 <BASIC$$Code+0x1048>
    4c64:	e35a002c 	cmp	sl, #44	; 0x2c
    4c68:	0afffff5 	beq	4c44 <BASIC$$Code+0x4c44>
    4c6c:	ebfff10c 	bl	10a4 <BASIC$$Code+0x10a4>
    4c70:	eb000000 	bl	4c78 <BASIC$$Code+0x4c78>
    4c74:	eaffeeed 	b	830 <BASIC$$Code+0x830>
    4c78:	e1a0900d 	mov	r9, sp
    4c7c:	e92d5d30 	push	{r4, r5, r8, sl, fp, ip, lr}
    4c80:	e1a0a005 	mov	sl, r5
    4c84:	e288bc03 	add	fp, r8, #768	; 0x300
    4c88:	e29800f8 	adds	r0, r8, #248	; 0xf8
    4c8c:	e89000ff 	ldm	r0, {r0, r1, r2, r3, r4, r5, r6, r7}
    4c90:	e28fe030 	add	lr, pc, #48	; 0x30
    4c94:	e8bd8000 	ldmfd	sp!, {pc}
    4c98:	e28f5028 	add	r5, pc, #40	; 0x28
    4c9c:	e1a0400d 	mov	r4, sp
    4ca0:	e1a0300c 	mov	r3, ip
    4ca4:	e1a02008 	mov	r2, r8
    4ca8:	e5151004 	ldr	r1, [r5, #-4]
    4cac:	e1a0f00e 	mov	pc, lr
    4cb0:	e8bd5d20 	pop	{r5, r8, sl, fp, ip, lr}
    4cb4:	e08dd185 	add	sp, sp, r5, lsl #3
    4cb8:	71a0f00e 	movvc	pc, lr
    4cbc:	e3c0e3ff 	bic	lr, r0, #-67108861	; 0xfc000003
    4cc0:	eafff020 	b	d48 <BASIC$$Code+0xd48>
    4cc4:	ba51c005 	blt	1474ce0 <BASIC$$Code+0x1474ce0>
    4cc8:	eafffff8 	b	4cb0 <BASIC$$Code+0x4cb0>
    4ccc:	00000300 	andeq	r0, r0, r0, lsl #6
    4cd0:	00000160 	andeq	r0, r0, r0, ror #2
    4cd4:	00000164 	andeq	r0, r0, r4, ror #2
    4cd8:	00000168 	andeq	r0, r0, r8, ror #2
    4cdc:	0000016c 	andeq	r0, r0, ip, ror #2
    4ce0:	000002a8 	andeq	r0, r0, r8, lsr #5
    4ce4:	00000170 	andeq	r0, r0, r0, ror r1
    4ce8:	00000178 	andeq	r0, r0, r8, ror r1
    4cec:	00000298 	muleq	r0, r8, r2
    4cf0:	00000290 	muleq	r0, r0, r2
    4cf4:	0000017c 	andeq	r0, r0, ip, ror r1
    4cf8:	ea000be3 	b	7c8c <BASIC$$Code+0x7c8c>
    4cfc:	ea0000ad 	b	4fb8 <BASIC$$Code+0x4fb8>
    4d00:	ea0000d8 	b	5068 <BASIC$$Code+0x5068>
    4d04:	ea0007d1 	b	6c50 <BASIC$$Code+0x6c50>
    4d08:	ea00075c 	b	6a80 <BASIC$$Code+0x6a80>
    4d0c:	ea000932 	b	71dc <BASIC$$Code+0x71dc>
    4d10:	eafff11a 	b	1180 <BASIC$$Code+0x1180>
    4d14:	eafff1ed 	b	14d0 <BASIC$$Code+0x14d0>
    4d18:	00000000 	andeq	r0, r0, r0
    4d1c:	e1a07429 	lsr	r7, r9, #8
    4d20:	e33700ff 	teq	r7, #255	; 0xff
    4d24:	1a000063 	bne	4eb8 <BASIC$$Code+0x4eb8>
    4d28:	e20970ff 	and	r7, r9, #255	; 0xff
    4d2c:	e59800f8 	ldr	r0, [r8, #248]	; 0xf8
    4d30:	e5981154 	ldr	r1, [r8, #340]	; 0x154
    4d34:	e5982158 	ldr	r2, [r8, #344]	; 0x158
    4d38:	e33700f7 	teq	r7, #247	; 0xf7
    4d3c:	0a000053 	beq	4e90 <BASIC$$Code+0x4e90>
    4d40:	e33700f4 	teq	r7, #244	; 0xf4
    4d44:	0a00004f 	beq	4e88 <BASIC$$Code+0x4e88>
    4d48:	e33700f1 	teq	r7, #241	; 0xf1
    4d4c:	0a00004b 	beq	4e80 <BASIC$$Code+0x4e80>
    4d50:	e33700ee 	teq	r7, #238	; 0xee
    4d54:	0a000047 	beq	4e78 <BASIC$$Code+0x4e78>
    4d58:	e33700e7 	teq	r7, #231	; 0xe7
    4d5c:	0a000041 	beq	4e68 <BASIC$$Code+0x4e68>
    4d60:	e33700e3 	teq	r7, #227	; 0xe3
    4d64:	0a000041 	beq	4e70 <BASIC$$Code+0x4e70>
    4d68:	e33700e0 	teq	r7, #224	; 0xe0
    4d6c:	0a00003b 	beq	4e60 <BASIC$$Code+0x4e60>
    4d70:	e33700dd 	teq	r7, #221	; 0xdd
    4d74:	0a000025 	beq	4e10 <BASIC$$Code+0x4e10>
    4d78:	e33700da 	teq	r7, #218	; 0xda
    4d7c:	0a000020 	beq	4e04 <BASIC$$Code+0x4e04>
    4d80:	e33700d7 	teq	r7, #215	; 0xd7
    4d84:	0a00001b 	beq	4df8 <BASIC$$Code+0x4df8>
    4d88:	e33700d4 	teq	r7, #212	; 0xd4
    4d8c:	0a000016 	beq	4dec <BASIC$$Code+0x4dec>
    4d90:	e33700d1 	teq	r7, #209	; 0xd1
    4d94:	0a000003 	beq	4da8 <BASIC$$Code+0x4da8>
    4d98:	e33700ce 	teq	r7, #206	; 0xce
    4d9c:	1a000045 	bne	4eb8 <BASIC$$Code+0x4eb8>
    4da0:	ef00000d 	svc	0x0000000d
    4da4:	ea00003b 	b	4e98 <BASIC$$Code+0x4e98>
    4da8:	e1a07001 	mov	r7, r1
    4dac:	e3a0500c 	mov	r5, #12
    4db0:	e7d74005 	ldrb	r4, [r7, r5]
    4db4:	e56d4001 	strb	r4, [sp, #-1]!
    4db8:	e2555001 	subs	r5, r5, #1
    4dbc:	1afffffb 	bne	4db0 <BASIC$$Code+0x4db0>
    4dc0:	e5d71000 	ldrb	r1, [r7]
    4dc4:	e8bd001c 	pop	{r2, r3, r4}
    4dc8:	ef00000c 	svc	0x0000000c
    4dcc:	e92d001c 	push	{r2, r3, r4}
    4dd0:	e3a05001 	mov	r5, #1
    4dd4:	e4dd4001 	ldrb	r4, [sp], #1
    4dd8:	e7c74005 	strb	r4, [r7, r5]
    4ddc:	e2855001 	add	r5, r5, #1
    4de0:	e335000d 	teq	r5, #13
    4de4:	1afffffa 	bne	4dd4 <BASIC$$Code+0x4dd4>
    4de8:	ea00002a 	b	4e98 <BASIC$$Code+0x4e98>
    4dec:	e1a01002 	mov	r1, r2
    4df0:	ef00000b 	svc	0x0000000b
    4df4:	ea000027 	b	4e98 <BASIC$$Code+0x4e98>
    4df8:	e1a01002 	mov	r1, r2
    4dfc:	ef00000a 	svc	0x0000000a
    4e00:	ea000024 	b	4e98 <BASIC$$Code+0x4e98>
    4e04:	e1a01002 	mov	r1, r2
    4e08:	ef000009 	svc	0x00000009
    4e0c:	ea000021 	b	4e98 <BASIC$$Code+0x4e98>
    4e10:	e1a07001 	mov	r7, r1
    4e14:	e3a05011 	mov	r5, #17
    4e18:	e7d74005 	ldrb	r4, [r7, r5]
    4e1c:	e56d4001 	strb	r4, [sp, #-1]!
    4e20:	e2455001 	sub	r5, r5, #1
    4e24:	e3550001 	cmp	r5, #1
    4e28:	1afffffa 	bne	4e18 <BASIC$$Code+0x4e18>
    4e2c:	e5d72001 	ldrb	r2, [r7, #1]
    4e30:	e5d71000 	ldrb	r1, [r7]
    4e34:	e1811402 	orr	r1, r1, r2, lsl #8
    4e38:	e8bd003c 	pop	{r2, r3, r4, r5}
    4e3c:	ef000008 	svc	0x00000008
    4e40:	e92d003c 	push	{r2, r3, r4, r5}
    4e44:	e3a05002 	mov	r5, #2
    4e48:	e4dd4001 	ldrb	r4, [sp], #1
    4e4c:	e7c74005 	strb	r4, [r7, r5]
    4e50:	e2855001 	add	r5, r5, #1
    4e54:	e3350012 	teq	r5, #18
    4e58:	1afffffa 	bne	4e48 <BASIC$$Code+0x4e48>
    4e5c:	ea00000d 	b	4e98 <BASIC$$Code+0x4e98>
    4e60:	ef000004 	svc	0x00000004
    4e64:	ea00000b 	b	4e98 <BASIC$$Code+0x4e98>
    4e68:	ef000003 	svc	0x00000003
    4e6c:	ea000009 	b	4e98 <BASIC$$Code+0x4e98>
    4e70:	e330000d 	teq	r0, #13
    4e74:	0f00010a 	svceq	0x0000010a
    4e78:	ef000000 	svc	0x00000000
    4e7c:	ea000005 	b	4e98 <BASIC$$Code+0x4e98>
    4e80:	ef000007 	svc	0x00000007
    4e84:	ea000003 	b	4e98 <BASIC$$Code+0x4e98>
    4e88:	ef000006 	svc	0x00000006
    4e8c:	ea000001 	b	4e98 <BASIC$$Code+0x4e98>
    4e90:	e1a00001 	mov	r0, r1
    4e94:	ef000005 	svc	0x00000005
    4e98:	e20000ff 	and	r0, r0, #255	; 0xff
    4e9c:	e20110ff 	and	r1, r1, #255	; 0xff
    4ea0:	e20220ff 	and	r2, r2, #255	; 0xff
    4ea4:	e1800401 	orr	r0, r0, r1, lsl #8
    4ea8:	e1800802 	orr	r0, r0, r2, lsl #16
    4eac:	23800401 	orrcs	r0, r0, #16777216	; 0x1000000
    4eb0:	e3b09101 	movs	r9, #1073741824	; 0x40000000
    4eb4:	e1a0f00e 	mov	pc, lr
    4eb8:	e3b00000 	movs	r0, #0
    4ebc:	e1a0f00e 	mov	pc, lr
    4ec0:	ebfff07a 	bl	10b0 <BASIC$$Code+0x10b0>
    4ec4:	ef000011 	svc	0x00000011
    4ec8:	e4dca001 	ldrb	sl, [ip], #1
    4ecc:	e35a000d 	cmp	sl, #13
    4ed0:	1afffffc 	bne	4ec8 <BASIC$$Code+0x4ec8>
    4ed4:	e4dca001 	ldrb	sl, [ip], #1
    4ed8:	e28cc002 	add	ip, ip, #2
    4edc:	e35a00ff 	cmp	sl, #255	; 0xff
    4ee0:	224cc004 	subcs	ip, ip, #4
    4ee4:	21a0f00e 	movcs	pc, lr
    4ee8:	e4dca001 	ldrb	sl, [ip], #1
    4eec:	e35a0020 	cmp	sl, #32
    4ef0:	135a003a 	cmpne	sl, #58	; 0x3a
    4ef4:	0afffffb 	beq	4ee8 <BASIC$$Code+0x4ee8>
    4ef8:	e35a000d 	cmp	sl, #13
    4efc:	0afffff4 	beq	4ed4 <BASIC$$Code+0x4ed4>
    4f00:	e35a008b 	cmp	sl, #139	; 0x8b
    4f04:	135a00f4 	cmpne	sl, #244	; 0xf4
    4f08:	135a00dd 	cmpne	sl, #221	; 0xdd
    4f0c:	135a00dc 	cmpne	sl, #220	; 0xdc
    4f10:	0affffec 	beq	4ec8 <BASIC$$Code+0x4ec8>
    4f14:	e24cc001 	sub	ip, ip, #1
    4f18:	e1a0f00e 	mov	pc, lr
    4f1c:	e3140080 	tst	r4, #128	; 0x80
    4f20:	1a001742 	bne	ac30 <BASIC$$Code+0xac30>
    4f24:	e3140902 	tst	r4, #32768	; 0x8000
    4f28:	1a00000c 	bne	4f60 <BASIC$$Code+0x4f60>
    4f2c:	e3a04000 	mov	r4, #0
    4f30:	e5884290 	str	r4, [r8, #656]	; 0x290
    4f34:	ebffef7a 	bl	d24 <BASIC$$Code+0xd24>
    4f38:	6b6e5500 	blvs	1b9a340 <BASIC$$Code+0x1b9a340>
    4f3c:	6e776f6e 	cdpvs	15, 7, cr6, cr7, cr14, {3}
    4f40:	74657320 	strbtvc	r7, [r5], #-800	; 0xfffffce0
    4f44:	676e6974 			; <UNDEFINED> instruction: 0x676e6974
    4f48:	20666f20 	rsbcs	r6, r6, r0, lsr #30
    4f4c:	65637865 	strbvs	r7, [r3, #-2149]!	; 0xfffff79b
    4f50:	6f697470 	svcvs	0x00697470
    4f54:	6f63206e 	svcvs	0x0063206e
    4f58:	6f72746e 	svcvs	0x0072746e
    4f5c:	00002e6c 	andeq	r2, r0, ip, ror #28
    4f60:	e5985294 	ldr	r5, [r8, #660]	; 0x294
    4f64:	e3550000 	cmp	r5, #0
    4f68:	d1a0f00e 	movle	pc, lr
    4f6c:	e55c4004 	ldrb	r4, [ip, #-4]
    4f70:	e354000d 	cmp	r4, #13
    4f74:	11a0f00e 	movne	pc, lr
    4f78:	e55c4003 	ldrb	r4, [ip, #-3]
    4f7c:	e55c6002 	ldrb	r6, [ip, #-2]
    4f80:	e0864404 	add	r4, r6, r4, lsl #8
    4f84:	e3c56101 	bic	r6, r5, #1073741824	; 0x40000000
    4f88:	e1540006 	cmp	r4, r6
    4f8c:	c1a0f00e 	movgt	pc, lr
    4f90:	e92d4001 	push	{r0, lr}
    4f94:	e1a00004 	mov	r0, r4
    4f98:	e3150101 	tst	r5, #1073741824	; 0x40000000
    4f9c:	0f00015b 	svceq	0x0000015b
    4fa0:	1f00017b 	svcne	0x0000017b
    4fa4:	e3a09000 	mov	r9, #0
    4fa8:	ebfff339 	bl	1c94 <BASIC$$Code+0x1c94>
    4fac:	eb000e8a 	bl	89dc <BASIC$$Code+0x89dc>
    4fb0:	e8bd8001 	pop	{r0, pc}
    4fb4:	e8bd0030 	pop	{r4, r5}
    4fb8:	e3550005 	cmp	r5, #5
    4fbc:	8a000022 	bhi	504c <BASIC$$Code+0x504c>
    4fc0:	0a000012 	beq	5010 <BASIC$$Code+0x5010>
    4fc4:	e3390000 	teq	r9, #0
    4fc8:	0a001613 	beq	a81c <BASIC$$Code+0xa81c>
    4fcc:	e1a0900e 	mov	r9, lr
    4fd0:	4b001041 	blmi	90dc <BASIC$$Code+0x90dc>
    4fd4:	e3550004 	cmp	r5, #4
    4fd8:	1a00000a 	bne	5008 <BASIC$$Code+0x5008>
    4fdc:	e3140003 	tst	r4, #3
    4fe0:	05840000 	streq	r0, [r4]
    4fe4:	01a0f009 	moveq	pc, r9
    4fe8:	e5c40000 	strb	r0, [r4]
    4fec:	e1a02420 	lsr	r2, r0, #8
    4ff0:	e5c42001 	strb	r2, [r4, #1]
    4ff4:	e1a02820 	lsr	r2, r0, #16
    4ff8:	e5c42002 	strb	r2, [r4, #2]
    4ffc:	e1a02c20 	lsr	r2, r0, #24
    5000:	e5c42003 	strb	r2, [r4, #3]
    5004:	e1a0f009 	mov	pc, r9
    5008:	e5c40000 	strb	r0, [r4]
    500c:	e1a0f009 	mov	pc, r9
    5010:	e3390000 	teq	r9, #0
    5014:	0a001600 	beq	a81c <BASIC$$Code+0xa81c>
    5018:	e1a0900e 	mov	r9, lr
    501c:	5b001013 	blpl	9070 <BASIC$$Code+0x9070>
    5020:	e5c41004 	strb	r1, [r4, #4]
    5024:	e3c02102 	bic	r2, r0, #-2147483648	; 0x80000000
    5028:	e1822003 	orr	r2, r2, r3
    502c:	e5c42000 	strb	r2, [r4]
    5030:	e1a02462 	ror	r2, r2, #8
    5034:	e5c42001 	strb	r2, [r4, #1]
    5038:	e1a02462 	ror	r2, r2, #8
    503c:	e5c42002 	strb	r2, [r4, #2]
    5040:	e1a02462 	ror	r2, r2, #8
    5044:	e5c42003 	strb	r2, [r4, #3]
    5048:	e1a0f009 	mov	pc, r9
    504c:	e3550c01 	cmp	r5, #256	; 0x100
    5050:	2a00173a 	bcs	ad40 <BASIC$$Code+0xad40>
    5054:	e3390000 	teq	r9, #0
    5058:	1a001603 	bne	a86c <BASIC$$Code+0xa86c>
    505c:	e3550080 	cmp	r5, #128	; 0x80
    5060:	1a000041 	bne	516c <BASIC$$Code+0x516c>
    5064:	e2883c03 	add	r3, r8, #768	; 0x300
    5068:	e3c41003 	bic	r1, r4, #3
    506c:	e2045003 	and	r5, r4, #3
    5070:	e8910003 	ldm	r1, {r0, r1}
    5074:	e1b05185 	lsls	r5, r5, #3
    5078:	11a00530 	lsrne	r0, r0, r5
    507c:	12655020 	rsbne	r5, r5, #32
    5080:	11800511 	orrne	r0, r0, r1, lsl r5
    5084:	e5d41004 	ldrb	r1, [r4, #4]
    5088:	e2811003 	add	r1, r1, #3
    508c:	e3c11003 	bic	r1, r1, #3
    5090:	e0425003 	sub	r5, r2, r3
    5094:	e2855003 	add	r5, r5, #3
    5098:	e3c55003 	bic	r5, r5, #3
    509c:	e1550001 	cmp	r5, r1
    50a0:	0a00002d 	beq	515c <BASIC$$Code+0x515c>
    50a4:	e5986170 	ldr	r6, [r8, #368]	; 0x170
    50a8:	e0817000 	add	r7, r1, r0
    50ac:	e1370006 	teq	r7, r6
    50b0:	0a000012 	beq	5100 <BASIC$$Code+0x5100>
    50b4:	e2886f5f 	add	r6, r8, #380	; 0x17c
    50b8:	e3510000 	cmp	r1, #0
    50bc:	0a000004 	beq	50d4 <BASIC$$Code+0x50d4>
    50c0:	e7967001 	ldr	r7, [r6, r1]
    50c4:	e7860001 	str	r0, [r6, r1]
    50c8:	e5807000 	str	r7, [r0]
    50cc:	e3550000 	cmp	r5, #0
    50d0:	0a00001e 	beq	5150 <BASIC$$Code+0x5150>
    50d4:	e7960005 	ldr	r0, [r6, r5]
    50d8:	e3300000 	teq	r0, #0
    50dc:	1a00000d 	bne	5118 <BASIC$$Code+0x5118>
    50e0:	e5980170 	ldr	r0, [r8, #368]	; 0x170
    50e4:	e5c40000 	strb	r0, [r4]
    50e8:	e1a01420 	lsr	r1, r0, #8
    50ec:	e5c41001 	strb	r1, [r4, #1]
    50f0:	e1a01820 	lsr	r1, r0, #16
    50f4:	e5c41002 	strb	r1, [r4, #2]
    50f8:	e1a01c20 	lsr	r1, r0, #24
    50fc:	e5c41003 	strb	r1, [r4, #3]
    5100:	e0801005 	add	r1, r0, r5
    5104:	e5881170 	str	r1, [r8, #368]	; 0x170
    5108:	e2811b01 	add	r1, r1, #1024	; 0x400
    510c:	e151000d 	cmp	r1, sp
    5110:	3a000009 	bcc	513c <BASIC$$Code+0x513c>
    5114:	ea00152d 	b	a5d0 <BASIC$$Code+0xa5d0>
    5118:	e5907000 	ldr	r7, [r0]
    511c:	e7867005 	str	r7, [r6, r5]
    5120:	e5c40000 	strb	r0, [r4]
    5124:	e1a01420 	lsr	r1, r0, #8
    5128:	e5c41001 	strb	r1, [r4, #1]
    512c:	e1a01820 	lsr	r1, r0, #16
    5130:	e5c41002 	strb	r1, [r4, #2]
    5134:	e1a01c20 	lsr	r1, r0, #24
    5138:	e5c41003 	strb	r1, [r4, #3]
    513c:	e1a01003 	mov	r1, r3
    5140:	e4915004 	ldr	r5, [r1], #4
    5144:	e4805004 	str	r5, [r0], #4
    5148:	e1510002 	cmp	r1, r2
    514c:	3afffffb 	bcc	5140 <BASIC$$Code+0x5140>
    5150:	e0420003 	sub	r0, r2, r3
    5154:	e5c40004 	strb	r0, [r4, #4]
    5158:	e1a0f00e 	mov	pc, lr
    515c:	e3550000 	cmp	r5, #0
    5160:	1afffff5 	bne	513c <BASIC$$Code+0x513c>
    5164:	e5c45004 	strb	r5, [r4, #4]
    5168:	e1a0f00e 	mov	pc, lr
    516c:	e2880c03 	add	r0, r8, #768	; 0x300
    5170:	e1300002 	teq	r0, r2
    5174:	0a000005 	beq	5190 <BASIC$$Code+0x5190>
    5178:	e3540902 	cmp	r4, #32768	; 0x8000
    517c:	3a001604 	bcc	a994 <BASIC$$Code+0xa994>
    5180:	e4d01001 	ldrb	r1, [r0], #1
    5184:	e4c41001 	strb	r1, [r4], #1
    5188:	e1300002 	teq	r0, r2
    518c:	1afffffb 	bne	5180 <BASIC$$Code+0x5180>
    5190:	e3a0100d 	mov	r1, #13
    5194:	e4c41001 	strb	r1, [r4], #1
    5198:	e1a0f00e 	mov	pc, lr
    519c:	e4dba001 	ldrb	sl, [fp], #1
    51a0:	e35a0020 	cmp	sl, #32
    51a4:	0afffffc 	beq	519c <BASIC$$Code+0x519c>
    51a8:	e35a002d 	cmp	sl, #45	; 0x2d
    51ac:	0a000168 	beq	5754 <BASIC$$Code+0x5754>
    51b0:	e92d0800 	stmfd	sp!, {fp}
    51b4:	eb0006a8 	bl	6c5c <BASIC$$Code+0x6c5c>
    51b8:	0a000174 	beq	5790 <BASIC$$Code+0x5790>
    51bc:	e28dd004 	add	sp, sp, #4
    51c0:	e3590c01 	cmp	r9, #256	; 0x100
    51c4:	3a00016f 	bcc	5788 <BASIC$$Code+0x5788>
    51c8:	ebffef9e 	bl	1048 <BASIC$$Code+0x1048>
    51cc:	e35a002b 	cmp	sl, #43	; 0x2b
    51d0:	135a002d 	cmpne	sl, #45	; 0x2d
    51d4:	135a002a 	cmpne	sl, #42	; 0x2a
    51d8:	135a002f 	cmpne	sl, #47	; 0x2f
    51dc:	135a002e 	cmpne	sl, #46	; 0x2e
    51e0:	0a00002a 	beq	5290 <BASIC$$Code+0x5290>
    51e4:	ebffefae 	bl	10a4 <BASIC$$Code+0x10a4>
    51e8:	e8bd0030 	pop	{r4, r5}
    51ec:	e1590005 	cmp	r9, r5
    51f0:	1a0015ba 	bne	a8e0 <BASIC$$Code+0xa8e0>
    51f4:	e5906000 	ldr	r6, [r0]
    51f8:	e5944000 	ldr	r4, [r4]
    51fc:	e3560010 	cmp	r6, #16
    5200:	23540010 	cmpcs	r4, #16
    5204:	3a00166d 	bcc	abc0 <BASIC$$Code+0xabc0>
    5208:	e4945004 	ldr	r5, [r4], #4
    520c:	e4967004 	ldr	r7, [r6], #4
    5210:	e1550007 	cmp	r5, r7
    5214:	1a0015ba 	bne	a904 <BASIC$$Code+0xa904>
    5218:	e3550000 	cmp	r5, #0
    521c:	1afffff9 	bne	5208 <BASIC$$Code+0x5208>
    5220:	e494b004 	ldr	fp, [r4], #4
    5224:	e2866004 	add	r6, r6, #4
    5228:	e2499c01 	sub	r9, r9, #256	; 0x100
    522c:	e3590005 	cmp	r9, #5
    5230:	8a000006 	bhi	5250 <BASIC$$Code+0x5250>
    5234:	008bb10b 	addeq	fp, fp, fp, lsl #2
    5238:	11a0b10b 	lslne	fp, fp, #2
    523c:	e4960004 	ldr	r0, [r6], #4
    5240:	e4840004 	str	r0, [r4], #4
    5244:	e25bb004 	subs	fp, fp, #4
    5248:	2afffffb 	bcs	523c <BASIC$$Code+0x523c>
    524c:	eaffed77 	b	830 <BASIC$$Code+0x830>
    5250:	e1a09006 	mov	r9, r6
    5254:	e3c97003 	bic	r7, r9, #3
    5258:	e2096003 	and	r6, r9, #3
    525c:	e8970088 	ldm	r7, {r3, r7}
    5260:	e1b06186 	lsls	r6, r6, #3
    5264:	11a03633 	lsrne	r3, r3, r6
    5268:	12666020 	rsbne	r6, r6, #32
    526c:	11833617 	orrne	r3, r3, r7, lsl r6
    5270:	e5d92004 	ldrb	r2, [r9, #4]
    5274:	e2899005 	add	r9, r9, #5
    5278:	e0822003 	add	r2, r2, r3
    527c:	ebffff79 	bl	5068 <BASIC$$Code+0x5068>
    5280:	e2844005 	add	r4, r4, #5
    5284:	e25bb001 	subs	fp, fp, #1
    5288:	1afffff1 	bne	5254 <BASIC$$Code+0x5254>
    528c:	eaffed67 	b	830 <BASIC$$Code+0x830>
    5290:	e92d0601 	push	{r0, r9, sl}
    5294:	e92d0800 	stmfd	sp!, {fp}
    5298:	eb00066c 	bl	6c50 <BASIC$$Code+0x6c50>
    529c:	0a0000b8 	beq	5584 <BASIC$$Code+0x5584>
    52a0:	e28dd004 	add	sp, sp, #4
    52a4:	ebffef80 	bl	10ac <BASIC$$Code+0x10ac>
    52a8:	e3590c01 	cmp	r9, #256	; 0x100
    52ac:	3a0000b2 	bcc	557c <BASIC$$Code+0x557c>
    52b0:	e8bd003e 	pop	{r1, r2, r3, r4, r5}
    52b4:	e1590002 	cmp	r9, r2
    52b8:	01520005 	cmpeq	r2, r5
    52bc:	1a001587 	bne	a8e0 <BASIC$$Code+0xa8e0>
    52c0:	e5900000 	ldr	r0, [r0]
    52c4:	e5911000 	ldr	r1, [r1]
    52c8:	e5944000 	ldr	r4, [r4]
    52cc:	e3500010 	cmp	r0, #16
    52d0:	23510010 	cmpcs	r1, #16
    52d4:	23540010 	cmpcs	r4, #16
    52d8:	3a001638 	bcc	abc0 <BASIC$$Code+0xabc0>
    52dc:	e353002e 	cmp	r3, #46	; 0x2e
    52e0:	0a00026c 	beq	5c98 <BASIC$$Code+0x5c98>
    52e4:	e4902004 	ldr	r2, [r0], #4
    52e8:	e4915004 	ldr	r5, [r1], #4
    52ec:	e4946004 	ldr	r6, [r4], #4
    52f0:	e1520005 	cmp	r2, r5
    52f4:	01550006 	cmpeq	r5, r6
    52f8:	1a001581 	bne	a904 <BASIC$$Code+0xa904>
    52fc:	e3560000 	cmp	r6, #0
    5300:	1afffff7 	bne	52e4 <BASIC$$Code+0x52e4>
    5304:	e494b004 	ldr	fp, [r4], #4
    5308:	e2800004 	add	r0, r0, #4
    530c:	e2811004 	add	r1, r1, #4
    5310:	e2499c01 	sub	r9, r9, #256	; 0x100
    5314:	e353002d 	cmp	r3, #45	; 0x2d
    5318:	0a000040 	beq	5420 <BASIC$$Code+0x5420>
    531c:	e353002a 	cmp	r3, #42	; 0x2a
    5320:	0a00005b 	beq	5494 <BASIC$$Code+0x5494>
    5324:	e353002f 	cmp	r3, #47	; 0x2f
    5328:	0a000076 	beq	5508 <BASIC$$Code+0x5508>
    532c:	e3590005 	cmp	r9, #5
    5330:	0a000007 	beq	5354 <BASIC$$Code+0x5354>
    5334:	2a000018 	bcs	539c <BASIC$$Code+0x539c>
    5338:	e4902004 	ldr	r2, [r0], #4
    533c:	e4913004 	ldr	r3, [r1], #4
    5340:	e0822003 	add	r2, r2, r3
    5344:	e4842004 	str	r2, [r4], #4
    5348:	e25bb001 	subs	fp, fp, #1
    534c:	1afffff9 	bne	5338 <BASIC$$Code+0x5338>
    5350:	eaffed36 	b	830 <BASIC$$Code+0x830>
    5354:	e92d0500 	push	{r8, sl}
    5358:	e1a0a004 	mov	sl, r4
    535c:	e1a08001 	mov	r8, r1
    5360:	e1a09000 	mov	r9, r0
    5364:	eb0011e6 	bl	9b04 <BASIC$$Code+0x9b04>
    5368:	e2894005 	add	r4, r9, #5
    536c:	e1a09008 	mov	r9, r8
    5370:	e1a08004 	mov	r8, r4
    5374:	eb00101d 	bl	93f0 <BASIC$$Code+0x93f0>
    5378:	e2894005 	add	r4, r9, #5
    537c:	e1a0900a 	mov	r9, sl
    5380:	eb0011ce 	bl	9ac0 <BASIC$$Code+0x9ac0>
    5384:	e1a09004 	mov	r9, r4
    5388:	e28aa005 	add	sl, sl, #5
    538c:	e25bb001 	subs	fp, fp, #1
    5390:	1afffff3 	bne	5364 <BASIC$$Code+0x5364>
    5394:	e8bd0500 	pop	{r8, sl}
    5398:	eaffed24 	b	830 <BASIC$$Code+0x830>
    539c:	e92d0401 	push	{r0, sl}
    53a0:	e1a0a001 	mov	sl, r1
    53a4:	e1a0000a 	mov	r0, sl
    53a8:	eb000a67 	bl	7d4c <BASIC$$Code+0x7d4c>
    53ac:	e28aa005 	add	sl, sl, #5
    53b0:	e59d0000 	ldr	r0, [sp]
    53b4:	e2801005 	add	r1, r0, #5
    53b8:	e58d1000 	str	r1, [sp]
    53bc:	e5d05004 	ldrb	r5, [r0, #4]
    53c0:	e3350000 	teq	r5, #0
    53c4:	0a00000e 	beq	5404 <BASIC$$Code+0x5404>
    53c8:	e3c03003 	bic	r3, r0, #3
    53cc:	e2001003 	and	r1, r0, #3
    53d0:	e8930009 	ldm	r3, {r0, r3}
    53d4:	e1b01181 	lsls	r1, r1, #3
    53d8:	11a00130 	lsrne	r0, r0, r1
    53dc:	12611020 	rsbne	r1, r1, #32
    53e0:	11800113 	orrne	r0, r0, r3, lsl r1
    53e4:	e0826005 	add	r6, r2, r5
    53e8:	e2881b01 	add	r1, r8, #1024	; 0x400
    53ec:	e1560001 	cmp	r6, r1
    53f0:	2a001617 	bcs	ac54 <BASIC$$Code+0xac54>
    53f4:	e4d01001 	ldrb	r1, [r0], #1
    53f8:	e4c21001 	strb	r1, [r2], #1
    53fc:	e2555001 	subs	r5, r5, #1
    5400:	1afffffb 	bne	53f4 <BASIC$$Code+0x53f4>
    5404:	e2883c03 	add	r3, r8, #768	; 0x300
    5408:	ebffff16 	bl	5068 <BASIC$$Code+0x5068>
    540c:	e2844005 	add	r4, r4, #5
    5410:	e25bb001 	subs	fp, fp, #1
    5414:	1affffe2 	bne	53a4 <BASIC$$Code+0x53a4>
    5418:	e8bd0401 	pop	{r0, sl}
    541c:	eaffed03 	b	830 <BASIC$$Code+0x830>
    5420:	e3590005 	cmp	r9, #5
    5424:	0a000007 	beq	5448 <BASIC$$Code+0x5448>
    5428:	2a00152c 	bcs	a8e0 <BASIC$$Code+0xa8e0>
    542c:	e4902004 	ldr	r2, [r0], #4
    5430:	e4913004 	ldr	r3, [r1], #4
    5434:	e0432002 	sub	r2, r3, r2
    5438:	e4842004 	str	r2, [r4], #4
    543c:	e25bb001 	subs	fp, fp, #1
    5440:	1afffff9 	bne	542c <BASIC$$Code+0x542c>
    5444:	eaffecf9 	b	830 <BASIC$$Code+0x830>
    5448:	e92d0500 	push	{r8, sl}
    544c:	e1a0a004 	mov	sl, r4
    5450:	e1a08001 	mov	r8, r1
    5454:	e1a09000 	mov	r9, r0
    5458:	eb0011a9 	bl	9b04 <BASIC$$Code+0x9b04>
    545c:	e2894005 	add	r4, r9, #5
    5460:	e1a09008 	mov	r9, r8
    5464:	e1a08004 	mov	r8, r4
    5468:	eb000fdf 	bl	93ec <BASIC$$Code+0x93ec>
    546c:	e2894005 	add	r4, r9, #5
    5470:	e1a0900a 	mov	r9, sl
    5474:	eb001191 	bl	9ac0 <BASIC$$Code+0x9ac0>
    5478:	e1a09008 	mov	r9, r8
    547c:	e1a08004 	mov	r8, r4
    5480:	e28aa005 	add	sl, sl, #5
    5484:	e25bb001 	subs	fp, fp, #1
    5488:	1afffff2 	bne	5458 <BASIC$$Code+0x5458>
    548c:	e8bd0500 	pop	{r8, sl}
    5490:	eaffece6 	b	830 <BASIC$$Code+0x830>
    5494:	e3590005 	cmp	r9, #5
    5498:	0a000007 	beq	54bc <BASIC$$Code+0x54bc>
    549c:	2a00150f 	bcs	a8e0 <BASIC$$Code+0xa8e0>
    54a0:	e4902004 	ldr	r2, [r0], #4
    54a4:	e4913004 	ldr	r3, [r1], #4
    54a8:	e0020293 	mul	r2, r3, r2
    54ac:	e4842004 	str	r2, [r4], #4
    54b0:	e25bb001 	subs	fp, fp, #1
    54b4:	1afffff9 	bne	54a0 <BASIC$$Code+0x54a0>
    54b8:	eaffecdc 	b	830 <BASIC$$Code+0x830>
    54bc:	e92d0500 	push	{r8, sl}
    54c0:	e1a0a004 	mov	sl, r4
    54c4:	e1a08001 	mov	r8, r1
    54c8:	e1a09000 	mov	r9, r0
    54cc:	eb00118c 	bl	9b04 <BASIC$$Code+0x9b04>
    54d0:	e2894005 	add	r4, r9, #5
    54d4:	e1a09008 	mov	r9, r8
    54d8:	e1a08004 	mov	r8, r4
    54dc:	eb000f36 	bl	91bc <BASIC$$Code+0x91bc>
    54e0:	e2894005 	add	r4, r9, #5
    54e4:	e1a0900a 	mov	r9, sl
    54e8:	eb001174 	bl	9ac0 <BASIC$$Code+0x9ac0>
    54ec:	e1a09008 	mov	r9, r8
    54f0:	e1a08004 	mov	r8, r4
    54f4:	e28aa005 	add	sl, sl, #5
    54f8:	e25bb001 	subs	fp, fp, #1
    54fc:	1afffff2 	bne	54cc <BASIC$$Code+0x54cc>
    5500:	e8bd0500 	pop	{r8, sl}
    5504:	eaffecc9 	b	830 <BASIC$$Code+0x830>
    5508:	e3590005 	cmp	r9, #5
    550c:	0a000007 	beq	5530 <BASIC$$Code+0x5530>
    5510:	2a0014f2 	bcs	a8e0 <BASIC$$Code+0xa8e0>
    5514:	e4903004 	ldr	r3, [r0], #4
    5518:	e4912004 	ldr	r2, [r1], #4
    551c:	eb0001c8 	bl	5c44 <BASIC$$Code+0x5c44>
    5520:	e4849004 	str	r9, [r4], #4
    5524:	e25bb001 	subs	fp, fp, #1
    5528:	1afffff9 	bne	5514 <BASIC$$Code+0x5514>
    552c:	eaffecbf 	b	830 <BASIC$$Code+0x830>
    5530:	e92d0500 	push	{r8, sl}
    5534:	e1a0a004 	mov	sl, r4
    5538:	e1a08001 	mov	r8, r1
    553c:	e1a09000 	mov	r9, r0
    5540:	eb00116f 	bl	9b04 <BASIC$$Code+0x9b04>
    5544:	e2894005 	add	r4, r9, #5
    5548:	e1a09008 	mov	r9, r8
    554c:	e1a08004 	mov	r8, r4
    5550:	eb000f53 	bl	92a4 <BASIC$$Code+0x92a4>
    5554:	e2894005 	add	r4, r9, #5
    5558:	e1a0900a 	mov	r9, sl
    555c:	eb001157 	bl	9ac0 <BASIC$$Code+0x9ac0>
    5560:	e1a09008 	mov	r9, r8
    5564:	e1a08004 	mov	r8, r4
    5568:	e28aa005 	add	sl, sl, #5
    556c:	e25bb001 	subs	fp, fp, #1
    5570:	1afffff2 	bne	5540 <BASIC$$Code+0x5540>
    5574:	e8bd0500 	pop	{r8, sl}
    5578:	eaffecac 	b	830 <BASIC$$Code+0x830>
    557c:	eb0009c2 	bl	7c8c <BASIC$$Code+0x7c8c>
    5580:	ea000002 	b	5590 <BASIC$$Code+0x5590>
    5584:	e8bd0800 	ldmfd	sp!, {fp}
    5588:	eb000855 	bl	76e4 <BASIC$$Code+0x76e4>
    558c:	ebffeec6 	bl	10ac <BASIC$$Code+0x10ac>
    5590:	e8bd08f0 	pop	{r4, r5, r6, r7, fp}
    5594:	e356002d 	cmp	r6, #45	; 0x2d
    5598:	1a000005 	bne	55b4 <BASIC$$Code+0x55b4>
    559c:	e3390000 	teq	r9, #0
    55a0:	42233102 	eormi	r3, r3, #-2147483648	; 0x80000000
    55a4:	52600000 	rsbpl	r0, r0, #0
    55a8:	e3300000 	teq	r0, #0
    55ac:	03a03000 	moveq	r3, #0
    55b0:	e3a0602b 	mov	r6, #43	; 0x2b
    55b4:	e356002b 	cmp	r6, #43	; 0x2b
    55b8:	03550d06 	cmpeq	r5, #384	; 0x180
    55bc:	0a00003b 	beq	56b0 <BASIC$$Code+0x56b0>
    55c0:	eb000680 	bl	6fc8 <BASIC$$Code+0x6fc8>
    55c4:	e92d0200 	stmfd	sp!, {r9}
    55c8:	e1a00004 	mov	r0, r4
    55cc:	e1a09005 	mov	r9, r5
    55d0:	e1a04007 	mov	r4, r7
    55d4:	e1a0500b 	mov	r5, fp
    55d8:	e1a07006 	mov	r7, r6
    55dc:	e2491c01 	sub	r1, r9, #256	; 0x100
    55e0:	e357002f 	cmp	r7, #47	; 0x2f
    55e4:	1a0000ab 	bne	5898 <BASIC$$Code+0x5898>
    55e8:	e1550009 	cmp	r5, r9
    55ec:	1a0014bb 	bne	a8e0 <BASIC$$Code+0xa8e0>
    55f0:	e5906000 	ldr	r6, [r0]
    55f4:	e5944000 	ldr	r4, [r4]
    55f8:	e3560010 	cmp	r6, #16
    55fc:	23540010 	cmpcs	r4, #16
    5600:	3a00156e 	bcc	abc0 <BASIC$$Code+0xabc0>
    5604:	e4945004 	ldr	r5, [r4], #4
    5608:	e4962004 	ldr	r2, [r6], #4
    560c:	e1550002 	cmp	r5, r2
    5610:	1a0014bb 	bne	a904 <BASIC$$Code+0xa904>
    5614:	e3550000 	cmp	r5, #0
    5618:	1afffff9 	bne	5604 <BASIC$$Code+0x5604>
    561c:	e494b004 	ldr	fp, [r4], #4
    5620:	e2866004 	add	r6, r6, #4
    5624:	e3510005 	cmp	r1, #5
    5628:	8a0014a3 	bhi	a8bc <BASIC$$Code+0xa8bc>
    562c:	0a000008 	beq	5654 <BASIC$$Code+0x5654>
    5630:	eb000678 	bl	7018 <BASIC$$Code+0x7018>
    5634:	eb000ea4 	bl	90cc <BASIC$$Code+0x90cc>
    5638:	e4962004 	ldr	r2, [r6], #4
    563c:	e1a03000 	mov	r3, r0
    5640:	eb00017f 	bl	5c44 <BASIC$$Code+0x5c44>
    5644:	e4849004 	str	r9, [r4], #4
    5648:	e25bb001 	subs	fp, fp, #1
    564c:	1afffff9 	bne	5638 <BASIC$$Code+0x5638>
    5650:	eaffec76 	b	830 <BASIC$$Code+0x830>
    5654:	eb00066f 	bl	7018 <BASIC$$Code+0x7018>
    5658:	eb000e80 	bl	9060 <BASIC$$Code+0x9060>
    565c:	e92d0500 	push	{r8, sl}
    5660:	e1a0a004 	mov	sl, r4
    5664:	e1a08006 	mov	r8, r6
    5668:	eb000667 	bl	700c <BASIC$$Code+0x700c>
    566c:	e3300000 	teq	r0, #0
    5670:	0a001571 	beq	ac3c <BASIC$$Code+0xac3c>
    5674:	e1a09008 	mov	r9, r8
    5678:	e2888005 	add	r8, r8, #5
    567c:	eb001120 	bl	9b04 <BASIC$$Code+0x9b04>
    5680:	0a000003 	beq	5694 <BASIC$$Code+0x5694>
    5684:	eb000fed 	bl	9640 <BASIC$$Code+0x9640>
    5688:	e1a0900d 	mov	r9, sp
    568c:	eb001117 	bl	9af0 <BASIC$$Code+0x9af0>
    5690:	eb000f1a 	bl	9300 <BASIC$$Code+0x9300>
    5694:	e1a0900a 	mov	r9, sl
    5698:	e28aa005 	add	sl, sl, #5
    569c:	eb001107 	bl	9ac0 <BASIC$$Code+0x9ac0>
    56a0:	e25bb001 	subs	fp, fp, #1
    56a4:	1afffff2 	bne	5674 <BASIC$$Code+0x5674>
    56a8:	e8bd0503 	pop	{r0, r1, r8, sl}
    56ac:	eaffec5f 	b	830 <BASIC$$Code+0x830>
    56b0:	e155000b 	cmp	r5, fp
    56b4:	1a001489 	bne	a8e0 <BASIC$$Code+0xa8e0>
    56b8:	e5946000 	ldr	r6, [r4]
    56bc:	eb000645 	bl	6fd8 <BASIC$$Code+0x6fd8>
    56c0:	e5974000 	ldr	r4, [r7]
    56c4:	e3540010 	cmp	r4, #16
    56c8:	23560010 	cmpcs	r6, #16
    56cc:	3a00153b 	bcc	abc0 <BASIC$$Code+0xabc0>
    56d0:	e4945004 	ldr	r5, [r4], #4
    56d4:	e4962004 	ldr	r2, [r6], #4
    56d8:	e1550002 	cmp	r5, r2
    56dc:	1a001488 	bne	a904 <BASIC$$Code+0xa904>
    56e0:	e3550000 	cmp	r5, #0
    56e4:	1afffff9 	bne	56d0 <BASIC$$Code+0x56d0>
    56e8:	e494b004 	ldr	fp, [r4], #4
    56ec:	e2866004 	add	r6, r6, #4
    56f0:	e92d0400 	stmfd	sp!, {sl}
    56f4:	e1a0a006 	mov	sl, r6
    56f8:	e1a0000a 	mov	r0, sl
    56fc:	eb000992 	bl	7d4c <BASIC$$Code+0x7d4c>
    5700:	e2883c03 	add	r3, r8, #768	; 0x300
    5704:	e59d5004 	ldr	r5, [sp, #4]
    5708:	e0551003 	subs	r1, r5, r3
    570c:	0a000008 	beq	5734 <BASIC$$Code+0x5734>
    5710:	e0816002 	add	r6, r1, r2
    5714:	e2885b01 	add	r5, r8, #1024	; 0x400
    5718:	e1560005 	cmp	r6, r5
    571c:	2a00154c 	bcs	ac54 <BASIC$$Code+0xac54>
    5720:	e28d6008 	add	r6, sp, #8
    5724:	e4d65001 	ldrb	r5, [r6], #1
    5728:	e4c25001 	strb	r5, [r2], #1
    572c:	e2511001 	subs	r1, r1, #1
    5730:	1afffffb 	bne	5724 <BASIC$$Code+0x5724>
    5734:	ebfffe4b 	bl	5068 <BASIC$$Code+0x5068>
    5738:	e2844005 	add	r4, r4, #5
    573c:	e28aa005 	add	sl, sl, #5
    5740:	e25bb001 	subs	fp, fp, #1
    5744:	1affffeb 	bne	56f8 <BASIC$$Code+0x56f8>
    5748:	e8bd0400 	ldmfd	sp!, {sl}
    574c:	eb000636 	bl	702c <BASIC$$Code+0x702c>
    5750:	eaffec36 	b	830 <BASIC$$Code+0x830>
    5754:	e92d0800 	stmfd	sp!, {fp}
    5758:	eb00053c 	bl	6c50 <BASIC$$Code+0x6c50>
    575c:	0a00000b 	beq	5790 <BASIC$$Code+0x5790>
    5760:	e28dd004 	add	sp, sp, #4
    5764:	e2591c01 	subs	r1, r9, #256	; 0x100
    5768:	2a000039 	bcs	5854 <BASIC$$Code+0x5854>
    576c:	eb000946 	bl	7c8c <BASIC$$Code+0x7c8c>
    5770:	0a001429 	beq	a81c <BASIC$$Code+0xa81c>
    5774:	52600000 	rsbpl	r0, r0, #0
    5778:	5a000007 	bpl	579c <BASIC$$Code+0x579c>
    577c:	e3300000 	teq	r0, #0
    5780:	12233102 	eorne	r3, r3, #-2147483648	; 0x80000000
    5784:	ea000004 	b	579c <BASIC$$Code+0x579c>
    5788:	eb00093f 	bl	7c8c <BASIC$$Code+0x7c8c>
    578c:	ea000002 	b	579c <BASIC$$Code+0x579c>
    5790:	e8bd0800 	ldmfd	sp!, {fp}
    5794:	e24bb001 	sub	fp, fp, #1
    5798:	eb0007d1 	bl	76e4 <BASIC$$Code+0x76e4>
    579c:	ebffee29 	bl	1048 <BASIC$$Code+0x1048>
    57a0:	e35a002b 	cmp	sl, #43	; 0x2b
    57a4:	135a002d 	cmpne	sl, #45	; 0x2d
    57a8:	135a002a 	cmpne	sl, #42	; 0x2a
    57ac:	135a002f 	cmpne	sl, #47	; 0x2f
    57b0:	0a00002e 	beq	5870 <BASIC$$Code+0x5870>
    57b4:	ebffee3a 	bl	10a4 <BASIC$$Code+0x10a4>
    57b8:	e8bd0030 	pop	{r4, r5}
    57bc:	e5944000 	ldr	r4, [r4]
    57c0:	e3540010 	cmp	r4, #16
    57c4:	3a0014fd 	bcc	abc0 <BASIC$$Code+0xabc0>
    57c8:	e4946004 	ldr	r6, [r4], #4
    57cc:	e3560000 	cmp	r6, #0
    57d0:	1afffffc 	bne	57c8 <BASIC$$Code+0x57c8>
    57d4:	e494b004 	ldr	fp, [r4], #4
    57d8:	e2455c01 	sub	r5, r5, #256	; 0x100
    57dc:	e3550005 	cmp	r5, #5
    57e0:	8a000013 	bhi	5834 <BASIC$$Code+0x5834>
    57e4:	0a000004 	beq	57fc <BASIC$$Code+0x57fc>
    57e8:	eb000e37 	bl	90cc <BASIC$$Code+0x90cc>
    57ec:	e4840004 	str	r0, [r4], #4
    57f0:	e25bb001 	subs	fp, fp, #1
    57f4:	1afffffc 	bne	57ec <BASIC$$Code+0x57ec>
    57f8:	eaffec0c 	b	830 <BASIC$$Code+0x830>
    57fc:	eb000e17 	bl	9060 <BASIC$$Code+0x9060>
    5800:	e3c02102 	bic	r2, r0, #-2147483648	; 0x80000000
    5804:	e1822003 	orr	r2, r2, r3
    5808:	e1a05422 	lsr	r5, r2, #8
    580c:	e1a06822 	lsr	r6, r2, #16
    5810:	e1a07c22 	lsr	r7, r2, #24
    5814:	e4c42001 	strb	r2, [r4], #1
    5818:	e4c45001 	strb	r5, [r4], #1
    581c:	e4c46001 	strb	r6, [r4], #1
    5820:	e4c47001 	strb	r7, [r4], #1
    5824:	e4c41001 	strb	r1, [r4], #1
    5828:	e25bb001 	subs	fp, fp, #1
    582c:	1afffff8 	bne	5814 <BASIC$$Code+0x5814>
    5830:	eaffebfe 	b	830 <BASIC$$Code+0x830>
    5834:	e3590000 	cmp	r9, #0
    5838:	1a00140b 	bne	a86c <BASIC$$Code+0xa86c>
    583c:	e2883c03 	add	r3, r8, #768	; 0x300
    5840:	ebfffe08 	bl	5068 <BASIC$$Code+0x5068>
    5844:	e2844005 	add	r4, r4, #5
    5848:	e25bb001 	subs	fp, fp, #1
    584c:	1afffffb 	bne	5840 <BASIC$$Code+0x5840>
    5850:	eaffebf6 	b	830 <BASIC$$Code+0x830>
    5854:	ebffee14 	bl	10ac <BASIC$$Code+0x10ac>
    5858:	e3a02101 	mov	r2, #1073741824	; 0x40000000
    585c:	e3a03000 	mov	r3, #0
    5860:	e8bd0030 	pop	{r4, r5}
    5864:	e92d000c 	push	{r2, r3}
    5868:	e3a0702d 	mov	r7, #45	; 0x2d
    586c:	ea000009 	b	5898 <BASIC$$Code+0x5898>
    5870:	e8bd00c0 	pop	{r6, r7}
    5874:	eb0005d3 	bl	6fc8 <BASIC$$Code+0x6fc8>
    5878:	e92d0200 	stmfd	sp!, {r9}
    587c:	e92d04c0 	push	{r6, r7, sl}
    5880:	eb0004f2 	bl	6c50 <BASIC$$Code+0x6c50>
    5884:	0a00140c 	beq	a8bc <BASIC$$Code+0xa8bc>
    5888:	e2591c01 	subs	r1, r9, #256	; 0x100
    588c:	3a00140a 	bcc	a8bc <BASIC$$Code+0xa8bc>
    5890:	ebffee05 	bl	10ac <BASIC$$Code+0x10ac>
    5894:	e8bd00b0 	pop	{r4, r5, r7}
    5898:	e1550009 	cmp	r5, r9
    589c:	1a00140f 	bne	a8e0 <BASIC$$Code+0xa8e0>
    58a0:	e5906000 	ldr	r6, [r0]
    58a4:	e5944000 	ldr	r4, [r4]
    58a8:	e3560010 	cmp	r6, #16
    58ac:	23540010 	cmpcs	r4, #16
    58b0:	3a0014c2 	bcc	abc0 <BASIC$$Code+0xabc0>
    58b4:	e4945004 	ldr	r5, [r4], #4
    58b8:	e4962004 	ldr	r2, [r6], #4
    58bc:	e1550002 	cmp	r5, r2
    58c0:	1a00140f 	bne	a904 <BASIC$$Code+0xa904>
    58c4:	e3550000 	cmp	r5, #0
    58c8:	1afffff9 	bne	58b4 <BASIC$$Code+0x58b4>
    58cc:	e494b004 	ldr	fp, [r4], #4
    58d0:	e2866004 	add	r6, r6, #4
    58d4:	e357002d 	cmp	r7, #45	; 0x2d
    58d8:	0a000040 	beq	59e0 <BASIC$$Code+0x59e0>
    58dc:	e357002a 	cmp	r7, #42	; 0x2a
    58e0:	0a00005b 	beq	5a54 <BASIC$$Code+0x5a54>
    58e4:	e357002f 	cmp	r7, #47	; 0x2f
    58e8:	0a000076 	beq	5ac8 <BASIC$$Code+0x5ac8>
    58ec:	e357002e 	cmp	r7, #46	; 0x2e
    58f0:	0a0013f1 	beq	a8bc <BASIC$$Code+0xa8bc>
    58f4:	e3510005 	cmp	r1, #5
    58f8:	8a00001a 	bhi	5968 <BASIC$$Code+0x5968>
    58fc:	0a000007 	beq	5920 <BASIC$$Code+0x5920>
    5900:	eb0005c4 	bl	7018 <BASIC$$Code+0x7018>
    5904:	eb000df0 	bl	90cc <BASIC$$Code+0x90cc>
    5908:	e4961004 	ldr	r1, [r6], #4
    590c:	e0811000 	add	r1, r1, r0
    5910:	e4841004 	str	r1, [r4], #4
    5914:	e25bb001 	subs	fp, fp, #1
    5918:	1afffffa 	bne	5908 <BASIC$$Code+0x5908>
    591c:	eaffebc3 	b	830 <BASIC$$Code+0x830>
    5920:	eb0005bc 	bl	7018 <BASIC$$Code+0x7018>
    5924:	eb000dcd 	bl	9060 <BASIC$$Code+0x9060>
    5928:	e92d0500 	push	{r8, sl}
    592c:	e1a0a004 	mov	sl, r4
    5930:	e1a08006 	mov	r8, r6
    5934:	eb0005b4 	bl	700c <BASIC$$Code+0x700c>
    5938:	e1a09008 	mov	r9, r8
    593c:	e2888005 	add	r8, r8, #5
    5940:	eb00106f 	bl	9b04 <BASIC$$Code+0x9b04>
    5944:	e1a0900d 	mov	r9, sp
    5948:	eb000eb7 	bl	942c <BASIC$$Code+0x942c>
    594c:	e1a0900a 	mov	r9, sl
    5950:	e28aa005 	add	sl, sl, #5
    5954:	eb001059 	bl	9ac0 <BASIC$$Code+0x9ac0>
    5958:	e25bb001 	subs	fp, fp, #1
    595c:	1afffff5 	bne	5938 <BASIC$$Code+0x5938>
    5960:	e8bd0503 	pop	{r0, r1, r8, sl}
    5964:	eaffebb1 	b	830 <BASIC$$Code+0x830>
    5968:	eb0005aa 	bl	7018 <BASIC$$Code+0x7018>
    596c:	e92d0404 	push	{r2, sl}
    5970:	e2883c03 	add	r3, r8, #768	; 0x300
    5974:	e1a0a006 	mov	sl, r6
    5978:	e59d2000 	ldr	r2, [sp]
    597c:	e5da5004 	ldrb	r5, [sl, #4]
    5980:	e3350000 	teq	r5, #0
    5984:	0a00000e 	beq	59c4 <BASIC$$Code+0x59c4>
    5988:	e3ca7003 	bic	r7, sl, #3
    598c:	e20a6003 	and	r6, sl, #3
    5990:	e8970081 	ldm	r7, {r0, r7}
    5994:	e1b06186 	lsls	r6, r6, #3
    5998:	11a00630 	lsrne	r0, r0, r6
    599c:	12666020 	rsbne	r6, r6, #32
    59a0:	11800617 	orrne	r0, r0, r7, lsl r6
    59a4:	e0826005 	add	r6, r2, r5
    59a8:	e2881b01 	add	r1, r8, #1024	; 0x400
    59ac:	e1560001 	cmp	r6, r1
    59b0:	2a0014a7 	bcs	ac54 <BASIC$$Code+0xac54>
    59b4:	e4d01001 	ldrb	r1, [r0], #1
    59b8:	e4c21001 	strb	r1, [r2], #1
    59bc:	e2555001 	subs	r5, r5, #1
    59c0:	1afffffb 	bne	59b4 <BASIC$$Code+0x59b4>
    59c4:	ebfffda7 	bl	5068 <BASIC$$Code+0x5068>
    59c8:	e2844005 	add	r4, r4, #5
    59cc:	e28aa005 	add	sl, sl, #5
    59d0:	e25bb001 	subs	fp, fp, #1
    59d4:	1affffe7 	bne	5978 <BASIC$$Code+0x5978>
    59d8:	e8bd0404 	pop	{r2, sl}
    59dc:	eaffeb93 	b	830 <BASIC$$Code+0x830>
    59e0:	e3510005 	cmp	r1, #5
    59e4:	8a0013b4 	bhi	a8bc <BASIC$$Code+0xa8bc>
    59e8:	0a000007 	beq	5a0c <BASIC$$Code+0x5a0c>
    59ec:	eb000589 	bl	7018 <BASIC$$Code+0x7018>
    59f0:	eb000db5 	bl	90cc <BASIC$$Code+0x90cc>
    59f4:	e4961004 	ldr	r1, [r6], #4
    59f8:	e0401001 	sub	r1, r0, r1
    59fc:	e4841004 	str	r1, [r4], #4
    5a00:	e25bb001 	subs	fp, fp, #1
    5a04:	1afffffa 	bne	59f4 <BASIC$$Code+0x59f4>
    5a08:	eaffeb88 	b	830 <BASIC$$Code+0x830>
    5a0c:	eb000581 	bl	7018 <BASIC$$Code+0x7018>
    5a10:	eb000d92 	bl	9060 <BASIC$$Code+0x9060>
    5a14:	e92d0500 	push	{r8, sl}
    5a18:	e1a0a004 	mov	sl, r4
    5a1c:	e1a08006 	mov	r8, r6
    5a20:	eb000579 	bl	700c <BASIC$$Code+0x700c>
    5a24:	e1a09008 	mov	r9, r8
    5a28:	e2888005 	add	r8, r8, #5
    5a2c:	eb001034 	bl	9b04 <BASIC$$Code+0x9b04>
    5a30:	e1a0900d 	mov	r9, sp
    5a34:	eb000e7b 	bl	9428 <BASIC$$Code+0x9428>
    5a38:	e1a0900a 	mov	r9, sl
    5a3c:	e28aa005 	add	sl, sl, #5
    5a40:	eb00101e 	bl	9ac0 <BASIC$$Code+0x9ac0>
    5a44:	e25bb001 	subs	fp, fp, #1
    5a48:	1afffff5 	bne	5a24 <BASIC$$Code+0x5a24>
    5a4c:	e8bd0503 	pop	{r0, r1, r8, sl}
    5a50:	eaffeb76 	b	830 <BASIC$$Code+0x830>
    5a54:	e3510005 	cmp	r1, #5
    5a58:	8a001397 	bhi	a8bc <BASIC$$Code+0xa8bc>
    5a5c:	0a000007 	beq	5a80 <BASIC$$Code+0x5a80>
    5a60:	eb00056c 	bl	7018 <BASIC$$Code+0x7018>
    5a64:	eb000d98 	bl	90cc <BASIC$$Code+0x90cc>
    5a68:	e4961004 	ldr	r1, [r6], #4
    5a6c:	e0010190 	mul	r1, r0, r1
    5a70:	e4841004 	str	r1, [r4], #4
    5a74:	e25bb001 	subs	fp, fp, #1
    5a78:	1afffffa 	bne	5a68 <BASIC$$Code+0x5a68>
    5a7c:	eaffeb6b 	b	830 <BASIC$$Code+0x830>
    5a80:	eb000564 	bl	7018 <BASIC$$Code+0x7018>
    5a84:	eb000d75 	bl	9060 <BASIC$$Code+0x9060>
    5a88:	e92d0500 	push	{r8, sl}
    5a8c:	e1a0a004 	mov	sl, r4
    5a90:	e1a08006 	mov	r8, r6
    5a94:	eb00055c 	bl	700c <BASIC$$Code+0x700c>
    5a98:	e1a09008 	mov	r9, r8
    5a9c:	e2888005 	add	r8, r8, #5
    5aa0:	eb001017 	bl	9b04 <BASIC$$Code+0x9b04>
    5aa4:	e1a0900d 	mov	r9, sp
    5aa8:	eb000dd3 	bl	91fc <BASIC$$Code+0x91fc>
    5aac:	e1a0900a 	mov	r9, sl
    5ab0:	e28aa005 	add	sl, sl, #5
    5ab4:	eb001001 	bl	9ac0 <BASIC$$Code+0x9ac0>
    5ab8:	e25bb001 	subs	fp, fp, #1
    5abc:	1afffff5 	bne	5a98 <BASIC$$Code+0x5a98>
    5ac0:	e8bd0503 	pop	{r0, r1, r8, sl}
    5ac4:	eaffeb59 	b	830 <BASIC$$Code+0x830>
    5ac8:	e3510005 	cmp	r1, #5
    5acc:	8a00137a 	bhi	a8bc <BASIC$$Code+0xa8bc>
    5ad0:	0a000008 	beq	5af8 <BASIC$$Code+0x5af8>
    5ad4:	eb00054f 	bl	7018 <BASIC$$Code+0x7018>
    5ad8:	eb000d7b 	bl	90cc <BASIC$$Code+0x90cc>
    5adc:	e4963004 	ldr	r3, [r6], #4
    5ae0:	e1a02000 	mov	r2, r0
    5ae4:	eb000056 	bl	5c44 <BASIC$$Code+0x5c44>
    5ae8:	e4849004 	str	r9, [r4], #4
    5aec:	e25bb001 	subs	fp, fp, #1
    5af0:	1afffff9 	bne	5adc <BASIC$$Code+0x5adc>
    5af4:	eaffeb4d 	b	830 <BASIC$$Code+0x830>
    5af8:	eb000546 	bl	7018 <BASIC$$Code+0x7018>
    5afc:	eb000d57 	bl	9060 <BASIC$$Code+0x9060>
    5b00:	e92d0500 	push	{r8, sl}
    5b04:	e1a0a004 	mov	sl, r4
    5b08:	e1a08006 	mov	r8, r6
    5b0c:	eb00053e 	bl	700c <BASIC$$Code+0x700c>
    5b10:	e1a09008 	mov	r9, r8
    5b14:	e2888005 	add	r8, r8, #5
    5b18:	eb000ff9 	bl	9b04 <BASIC$$Code+0x9b04>
    5b1c:	e1a0900d 	mov	r9, sp
    5b20:	eb000def 	bl	92e4 <BASIC$$Code+0x92e4>
    5b24:	e1a0900a 	mov	r9, sl
    5b28:	e28aa005 	add	sl, sl, #5
    5b2c:	eb000fe3 	bl	9ac0 <BASIC$$Code+0x9ac0>
    5b30:	e25bb001 	subs	fp, fp, #1
    5b34:	1afffff5 	bne	5b10 <BASIC$$Code+0x5b10>
    5b38:	e8bd0503 	pop	{r0, r1, r8, sl}
    5b3c:	eaffeb3b 	b	830 <BASIC$$Code+0x830>
    5b40:	e8bd0030 	pop	{r4, r5}
    5b44:	e3a0602b 	mov	r6, #43	; 0x2b
    5b48:	e1a07004 	mov	r7, r4
    5b4c:	e1a0b005 	mov	fp, r5
    5b50:	eafffe97 	b	55b4 <BASIC$$Code+0x55b4>
    5b54:	e92d4000 	stmfd	sp!, {lr}
    5b58:	e4dba001 	ldrb	sl, [fp], #1
    5b5c:	e35a0028 	cmp	sl, #40	; 0x28
    5b60:	0a000031 	beq	5c2c <BASIC$$Code+0x5c2c>
    5b64:	e24bb001 	sub	fp, fp, #1
    5b68:	eb000438 	bl	6c50 <BASIC$$Code+0x6c50>
    5b6c:	0a001404 	beq	ab84 <BASIC$$Code+0xab84>
    5b70:	e2591c01 	subs	r1, r9, #256	; 0x100
    5b74:	3a001402 	bcc	ab84 <BASIC$$Code+0xab84>
    5b78:	e5909000 	ldr	r9, [r0]
    5b7c:	e3590010 	cmp	r9, #16
    5b80:	3a00140e 	bcc	abc0 <BASIC$$Code+0xabc0>
    5b84:	e4996004 	ldr	r6, [r9], #4
    5b88:	e3560000 	cmp	r6, #0
    5b8c:	1afffffc 	bne	5b84 <BASIC$$Code+0x5b84>
    5b90:	e499a004 	ldr	sl, [r9], #4
    5b94:	e3510005 	cmp	r1, #5
    5b98:	eb000e9a 	bl	9608 <BASIC$$Code+0x9608>
    5b9c:	0a000005 	beq	5bb8 <BASIC$$Code+0x5bb8>
    5ba0:	8a000009 	bhi	5bcc <BASIC$$Code+0x5bcc>
    5ba4:	e4991004 	ldr	r1, [r9], #4
    5ba8:	e0800001 	add	r0, r0, r1
    5bac:	e25aa001 	subs	sl, sl, #1
    5bb0:	1afffffb 	bne	5ba4 <BASIC$$Code+0x5ba4>
    5bb4:	ea000965 	b	8150 <BASIC$$Code+0x8150>
    5bb8:	eb000e0c 	bl	93f0 <BASIC$$Code+0x93f0>
    5bbc:	e2899005 	add	r9, r9, #5
    5bc0:	e25aa001 	subs	sl, sl, #1
    5bc4:	1afffffb 	bne	5bb8 <BASIC$$Code+0x5bb8>
    5bc8:	ea000993 	b	821c <BASIC$$Code+0x821c>
    5bcc:	e2882c03 	add	r2, r8, #768	; 0x300
    5bd0:	e2827c01 	add	r7, r2, #256	; 0x100
    5bd4:	e5d90004 	ldrb	r0, [r9, #4]
    5bd8:	e3300000 	teq	r0, #0
    5bdc:	0a00000d 	beq	5c18 <BASIC$$Code+0x5c18>
    5be0:	e0825000 	add	r5, r2, r0
    5be4:	e1550007 	cmp	r5, r7
    5be8:	2a001419 	bcs	ac54 <BASIC$$Code+0xac54>
    5bec:	e3c95003 	bic	r5, r9, #3
    5bf0:	e2094003 	and	r4, r9, #3
    5bf4:	e8950022 	ldm	r5, {r1, r5}
    5bf8:	e1b04184 	lsls	r4, r4, #3
    5bfc:	11a01431 	lsrne	r1, r1, r4
    5c00:	12644020 	rsbne	r4, r4, #32
    5c04:	11811415 	orrne	r1, r1, r5, lsl r4
    5c08:	e4d13001 	ldrb	r3, [r1], #1
    5c0c:	e4c23001 	strb	r3, [r2], #1
    5c10:	e2500001 	subs	r0, r0, #1
    5c14:	1afffffb 	bne	5c08 <BASIC$$Code+0x5c08>
    5c18:	e2899005 	add	r9, r9, #5
    5c1c:	e25aa001 	subs	sl, sl, #1
    5c20:	1affffeb 	bne	5bd4 <BASIC$$Code+0x5bd4>
    5c24:	e3b09000 	movs	r9, #0
    5c28:	e8bd8000 	ldmfd	sp!, {pc}
    5c2c:	eb000407 	bl	6c50 <BASIC$$Code+0x6c50>
    5c30:	0a0013d3 	beq	ab84 <BASIC$$Code+0xab84>
    5c34:	ebffed03 	bl	1048 <BASIC$$Code+0x1048>
    5c38:	e35a0029 	cmp	sl, #41	; 0x29
    5c3c:	1a001448 	bne	ad64 <BASIC$$Code+0xad64>
    5c40:	eaffffca 	b	5b70 <BASIC$$Code+0x5b70>
    5c44:	e0225003 	eor	r5, r2, r3
    5c48:	e1b02002 	movs	r2, r2
    5c4c:	42622000 	rsbmi	r2, r2, #0
    5c50:	e1b03003 	movs	r3, r3
    5c54:	0a0013f8 	beq	ac3c <BASIC$$Code+0xac3c>
    5c58:	42633000 	rsbmi	r3, r3, #0
    5c5c:	e1a07003 	mov	r7, r3
    5c60:	e15700a2 	cmp	r7, r2, lsr #1
    5c64:	91a07087 	lslls	r7, r7, #1
    5c68:	915700a2 	cmpls	r7, r2, lsr #1
    5c6c:	9afffffc 	bls	5c64 <BASIC$$Code+0x5c64>
    5c70:	e3a09000 	mov	r9, #0
    5c74:	e1520007 	cmp	r2, r7
    5c78:	20422007 	subcs	r2, r2, r7
    5c7c:	e0a99009 	adc	r9, r9, r9
    5c80:	e1a070a7 	lsr	r7, r7, #1
    5c84:	e1570003 	cmp	r7, r3
    5c88:	2afffff9 	bcs	5c74 <BASIC$$Code+0x5c74>
    5c8c:	e3350000 	teq	r5, #0
    5c90:	42699000 	rsbmi	r9, r9, #0
    5c94:	e1a0f00e 	mov	pc, lr
    5c98:	e2499c01 	sub	r9, r9, #256	; 0x100
    5c9c:	e3590080 	cmp	r9, #128	; 0x80
    5ca0:	2a00130e 	bcs	a8e0 <BASIC$$Code+0xa8e0>
    5ca4:	e1540001 	cmp	r4, r1
    5ca8:	11540000 	cmpne	r4, r0
    5cac:	1a000017 	bne	5d10 <BASIC$$Code+0x5d10>
    5cb0:	e1a05004 	mov	r5, r4
    5cb4:	e1a06004 	mov	r6, r4
    5cb8:	e4967004 	ldr	r7, [r6], #4
    5cbc:	e3370000 	teq	r7, #0
    5cc0:	1afffffc 	bne	5cb8 <BASIC$$Code+0x5cb8>
    5cc4:	e4967004 	ldr	r7, [r6], #4
    5cc8:	e3590004 	cmp	r9, #4
    5ccc:	01a07107 	lsleq	r7, r7, #2
    5cd0:	10877107 	addne	r7, r7, r7, lsl #2
    5cd4:	e0466005 	sub	r6, r6, r5
    5cd8:	e0877006 	add	r7, r7, r6
    5cdc:	e5986170 	ldr	r6, [r8, #368]	; 0x170
    5ce0:	e0862007 	add	r2, r6, r7
    5ce4:	e2822b01 	add	r2, r2, #1024	; 0x400
    5ce8:	e152000d 	cmp	r2, sp
    5cec:	2a001346 	bcs	aa0c <BASIC$$Code+0xaa0c>
    5cf0:	e4952004 	ldr	r2, [r5], #4
    5cf4:	e4862004 	str	r2, [r6], #4
    5cf8:	e2577004 	subs	r7, r7, #4
    5cfc:	2afffffb 	bcs	5cf0 <BASIC$$Code+0x5cf0>
    5d00:	e1540001 	cmp	r4, r1
    5d04:	05981170 	ldreq	r1, [r8, #368]	; 0x170
    5d08:	e1540000 	cmp	r4, r0
    5d0c:	05980170 	ldreq	r0, [r8, #368]	; 0x170
    5d10:	e92d0500 	push	{r8, sl}
    5d14:	e4942004 	ldr	r2, [r4], #4
    5d18:	e4913004 	ldr	r3, [r1], #4
    5d1c:	e4905004 	ldr	r5, [r0], #4
    5d20:	e4946004 	ldr	r6, [r4], #4
    5d24:	e4917004 	ldr	r7, [r1], #4
    5d28:	e490a004 	ldr	sl, [r0], #4
    5d2c:	e3560000 	cmp	r6, #0
    5d30:	0a00004e 	beq	5e70 <BASIC$$Code+0x5e70>
    5d34:	e1520003 	cmp	r2, r3
    5d38:	01570005 	cmpeq	r7, r5
    5d3c:	0156000a 	cmpeq	r6, sl
    5d40:	e4943008 	ldr	r3, [r4], #8
    5d44:	03530000 	cmpeq	r3, #0
    5d48:	e4913008 	ldr	r3, [r1], #8
    5d4c:	03530000 	cmpeq	r3, #0
    5d50:	e4903008 	ldr	r3, [r0], #8
    5d54:	03530000 	cmpeq	r3, #0
    5d58:	1a0012e9 	bne	a904 <BASIC$$Code+0xa904>
    5d5c:	e3590005 	cmp	r9, #5
    5d60:	0a000015 	beq	5dbc <BASIC$$Code+0x5dbc>
    5d64:	e92d0001 	stmfd	sp!, {r0}
    5d68:	e1a06106 	lsl	r6, r6, #2
    5d6c:	e89d0001 	ldm	sp, {r0}
    5d70:	e1a0b006 	mov	fp, r6
    5d74:	e3a03000 	mov	r3, #0
    5d78:	e1a0e001 	mov	lr, r1
    5d7c:	e1a07000 	mov	r7, r0
    5d80:	e1a08005 	mov	r8, r5
    5d84:	e49e9004 	ldr	r9, [lr], #4
    5d88:	e697a006 	ldr	sl, [r7], r6
    5d8c:	e0233a99 	mla	r3, r9, sl, r3
    5d90:	e2588001 	subs	r8, r8, #1
    5d94:	1afffffa 	bne	5d84 <BASIC$$Code+0x5d84>
    5d98:	e4843004 	str	r3, [r4], #4
    5d9c:	e2800004 	add	r0, r0, #4
    5da0:	e25bb004 	subs	fp, fp, #4
    5da4:	1afffff2 	bne	5d74 <BASIC$$Code+0x5d74>
    5da8:	e0811105 	add	r1, r1, r5, lsl #2
    5dac:	e2522001 	subs	r2, r2, #1
    5db0:	1affffed 	bne	5d6c <BASIC$$Code+0x5d6c>
    5db4:	e8bd0501 	pop	{r0, r8, sl}
    5db8:	eaffea9c 	b	830 <BASIC$$Code+0x830>
    5dbc:	e0855105 	add	r5, r5, r5, lsl #2
    5dc0:	e92d0037 	push	{r0, r1, r2, r4, r5}
    5dc4:	e24dd008 	sub	sp, sp, #8
    5dc8:	e086b106 	add	fp, r6, r6, lsl #2
    5dcc:	e59d0008 	ldr	r0, [sp, #8]
    5dd0:	e58d0000 	str	r0, [sp]
    5dd4:	e58db004 	str	fp, [sp, #4]
    5dd8:	eb000e0a 	bl	9608 <BASIC$$Code+0x9608>
    5ddc:	e59da00c 	ldr	sl, [sp, #12]
    5de0:	e59d9000 	ldr	r9, [sp]
    5de4:	e59d8018 	ldr	r8, [sp, #24]
    5de8:	e92d000f 	push	{r0, r1, r2, r3}
    5dec:	e1a04009 	mov	r4, r9
    5df0:	e1a0900a 	mov	r9, sl
    5df4:	e28aa005 	add	sl, sl, #5
    5df8:	eb000f41 	bl	9b04 <BASIC$$Code+0x9b04>
    5dfc:	e1a09004 	mov	r9, r4
    5e00:	eb000ced 	bl	91bc <BASIC$$Code+0x91bc>
    5e04:	e089900b 	add	r9, r9, fp
    5e08:	e8bd00f0 	pop	{r4, r5, r6, r7}
    5e0c:	eb000d8b 	bl	9440 <BASIC$$Code+0x9440>
    5e10:	e2588005 	subs	r8, r8, #5
    5e14:	1afffff3 	bne	5de8 <BASIC$$Code+0x5de8>
    5e18:	e59d9014 	ldr	r9, [sp, #20]
    5e1c:	eb000f27 	bl	9ac0 <BASIC$$Code+0x9ac0>
    5e20:	e2899005 	add	r9, r9, #5
    5e24:	e58d9014 	str	r9, [sp, #20]
    5e28:	e59d0000 	ldr	r0, [sp]
    5e2c:	e2800005 	add	r0, r0, #5
    5e30:	e58d0000 	str	r0, [sp]
    5e34:	e59d0004 	ldr	r0, [sp, #4]
    5e38:	e2500005 	subs	r0, r0, #5
    5e3c:	158d0004 	strne	r0, [sp, #4]
    5e40:	1affffe4 	bne	5dd8 <BASIC$$Code+0x5dd8>
    5e44:	e59d000c 	ldr	r0, [sp, #12]
    5e48:	e59d1018 	ldr	r1, [sp, #24]
    5e4c:	e0800001 	add	r0, r0, r1
    5e50:	e58d000c 	str	r0, [sp, #12]
    5e54:	e59d0010 	ldr	r0, [sp, #16]
    5e58:	e2500001 	subs	r0, r0, #1
    5e5c:	158d0010 	strne	r0, [sp, #16]
    5e60:	1affffd9 	bne	5dcc <BASIC$$Code+0x5dcc>
    5e64:	e28dd01c 	add	sp, sp, #28
    5e68:	e8bd0500 	pop	{r8, sl}
    5e6c:	eaffea6f 	b	830 <BASIC$$Code+0x830>
    5e70:	e2844004 	add	r4, r4, #4
    5e74:	e3570000 	cmp	r7, #0
    5e78:	0a000005 	beq	5e94 <BASIC$$Code+0x5e94>
    5e7c:	e4916008 	ldr	r6, [r1], #8
    5e80:	e3560000 	cmp	r6, #0
    5e84:	1a00129e 	bne	a904 <BASIC$$Code+0xa904>
    5e88:	e2800004 	add	r0, r0, #4
    5e8c:	e3a06001 	mov	r6, #1
    5e90:	eaffffb1 	b	5d5c <BASIC$$Code+0x5d5c>
    5e94:	e4906008 	ldr	r6, [r0], #8
    5e98:	e3560000 	cmp	r6, #0
    5e9c:	1a001298 	bne	a904 <BASIC$$Code+0xa904>
    5ea0:	e2811004 	add	r1, r1, #4
    5ea4:	e1a05003 	mov	r5, r3
    5ea8:	e1a0600a 	mov	r6, sl
    5eac:	e3a02001 	mov	r2, #1
    5eb0:	eaffffa9 	b	5d5c <BASIC$$Code+0x5d5c>
    5eb4:	e3a0a003 	mov	sl, #3
    5eb8:	e5c8a2ff 	strb	sl, [r8, #767]	; 0x2ff
    5ebc:	e1a0b00c 	mov	fp, ip
    5ec0:	ebffec60 	bl	1048 <BASIC$$Code+0x1048>
    5ec4:	e33a002e 	teq	sl, #46	; 0x2e
    5ec8:	1a00000b 	bne	5efc <BASIC$$Code+0x5efc>
    5ecc:	eb00035f 	bl	6c50 <BASIC$$Code+0x6c50>
    5ed0:	1a000001 	bne	5edc <BASIC$$Code+0x5edc>
    5ed4:	2a001350 	bcs	ac1c <BASIC$$Code+0xac1c>
    5ed8:	eb0002e8 	bl	6a80 <BASIC$$Code+0x6a80>
    5edc:	e3590080 	cmp	r9, #128	; 0x80
    5ee0:	2a001256 	bcs	a840 <BASIC$$Code+0xa840>
    5ee4:	e1a04000 	mov	r4, r0
    5ee8:	e1a05009 	mov	r5, r9
    5eec:	e5980134 	ldr	r0, [r8, #308]	; 0x134
    5ef0:	e3a09004 	mov	r9, #4
    5ef4:	ebfffc2f 	bl	4fb8 <BASIC$$Code+0x4fb8>
    5ef8:	ebffec52 	bl	1048 <BASIC$$Code+0x1048>
    5efc:	e33a005d 	teq	sl, #93	; 0x5d
    5f00:	03e0a000 	mvneq	sl, #0
    5f04:	05c8a2ff 	strbeq	sl, [r8, #767]	; 0x2ff
    5f08:	01a0c00b 	moveq	ip, fp
    5f0c:	0affea49 	beq	838 <BASIC$$Code+0x838>
    5f10:	e3a02000 	mov	r2, #0
    5f14:	e33a003a 	teq	sl, #58	; 0x3a
    5f18:	133a000d 	teqne	sl, #13
    5f1c:	0a000187 	beq	6540 <BASIC$$Code+0x6540>
    5f20:	e35a005c 	cmp	sl, #92	; 0x5c
    5f24:	135a003b 	cmpne	sl, #59	; 0x3b
    5f28:	135a00f4 	cmpne	sl, #244	; 0xf4
    5f2c:	0a0001b5 	beq	6608 <BASIC$$Code+0x6608>
    5f30:	e35a003d 	cmp	sl, #61	; 0x3d
    5f34:	0a000216 	beq	6794 <BASIC$$Code+0x6794>
    5f38:	e35a0026 	cmp	sl, #38	; 0x26
    5f3c:	0a00020d 	beq	6778 <BASIC$$Code+0x6778>
    5f40:	e35a00a4 	cmp	sl, #164	; 0xa4
    5f44:	0a000237 	beq	6828 <BASIC$$Code+0x6828>
    5f48:	e35a0080 	cmp	sl, #128	; 0x80
    5f4c:	059f2078 	ldreq	r2, [pc, #120]	; 5fcc <BASIC$$Code+0x5fcc>
    5f50:	0a00003a 	beq	6040 <BASIC$$Code+0x6040>
    5f54:	e35a0082 	cmp	sl, #130	; 0x82
    5f58:	059f207c 	ldreq	r2, [pc, #124]	; 5fdc <BASIC$$Code+0x5fdc>
    5f5c:	0a000037 	beq	6040 <BASIC$$Code+0x6040>
    5f60:	e5db1000 	ldrb	r1, [fp]
    5f64:	e3c11020 	bic	r1, r1, #32
    5f68:	e35a0084 	cmp	sl, #132	; 0x84
    5f6c:	03510052 	cmpeq	r1, #82	; 0x52
    5f70:	059f2070 	ldreq	r2, [pc, #112]	; 5fe8 <BASIC$$Code+0x5fe8>
    5f74:	028bb001 	addeq	fp, fp, #1
    5f78:	0a000030 	beq	6040 <BASIC$$Code+0x6040>
    5f7c:	e35a00ec 	cmp	sl, #236	; 0xec
    5f80:	0a0000d9 	beq	62ec <BASIC$$Code+0x62ec>
    5f84:	e3caa020 	bic	sl, sl, #32
    5f88:	e33a0042 	teq	sl, #66	; 0x42
    5f8c:	0a000153 	beq	64e0 <BASIC$$Code+0x64e0>
    5f90:	e18a0401 	orr	r0, sl, r1, lsl #8
    5f94:	e5db1001 	ldrb	r1, [fp, #1]
    5f98:	e3c11020 	bic	r1, r1, #32
    5f9c:	e1800801 	orr	r0, r0, r1, lsl #16
    5fa0:	e1a00400 	lsl	r0, r0, #8
    5fa4:	e28f1014 	add	r1, pc, #20
    5fa8:	e4912004 	ldr	r2, [r1], #4
    5fac:	e1300402 	teq	r0, r2, lsl #8
    5fb0:	0a000021 	beq	603c <BASIC$$Code+0x603c>
    5fb4:	e3320000 	teq	r2, #0
    5fb8:	1afffffa 	bne	5fa8 <BASIC$$Code+0x5fa8>
    5fbc:	ea0011d5 	b	a718 <BASIC$$Code+0xa718>
    5fc0:	8f495753 	svchi	0x00495753
    5fc4:	05434441 	strbeq	r4, [r3, #-1089]	; 0xfffffbbf
    5fc8:	04444441 	strbeq	r4, [r4], #-1089	; 0xfffffbbf
    5fcc:	00444e41 	subeq	r4, r4, r1, asr #28
    5fd0:	0e434942 	vmlseq.f16	s9, s6, s4	; <UNPREDICTABLE>
    5fd4:	1b4e4d43 	blne	13994e8 <BASIC$$Code+0x13994e8>
    5fd8:	1a504d43 	bne	14194ec <BASIC$$Code+0x14194ec>
    5fdc:	01524f45 	cmpeq	r2, r5, asr #30
    5fe0:	2d564f4d 	ldclcs	15, cr4, [r6, #-308]	; 0xfffffecc
    5fe4:	2f4e564d 	svccs	0x004e564d
    5fe8:	0c52524f 	lfmeq	f5, 2, [r2], {79}	; 0x4f
    5fec:	03425352 	movteq	r5, #9042	; 0x2352
    5ff0:	07435352 	smlsldeq	r5, r3, r2, r3
    5ff4:	06434253 			; <UNDEFINED> instruction: 0x06434253
    5ff8:	02425553 	subeq	r5, r2, #348127232	; 0x14c00000
    5ffc:	19514554 	ldmdbne	r1, {r2, r4, r6, r8, sl, lr}^
    6000:	18545354 	ldmdane	r4, {r2, r4, r6, r8, r9, ip, lr}^
    6004:	304c554d 	subcc	r5, ip, sp, asr #10
    6008:	31414c4d 	cmpcc	r1, sp, asr #24
    600c:	4452444c 	ldrbmi	r4, [r2], #-1100	; 0xfffffbb4
    6010:	54525453 	ldrbpl	r5, [r2], #-1107	; 0xfffffbad
    6014:	684d444c 	stmdavs	sp, {r2, r3, r6, sl, lr}^
    6018:	784d5453 	stmdavc	sp, {r0, r1, r4, r6, sl, ip, lr}^
    601c:	c054504f 	subsgt	r5, r4, pc, asr #32
    6020:	c1555145 	cmpgt	r5, r5, asr #2
    6024:	c2424344 	subgt	r4, r2, #68, 6	; 0x10000001
    6028:	c3574344 	cmpgt	r7, #68, 6	; 0x10000001
    602c:	c4444344 	strbgt	r4, [r4], #-836	; 0xfffffcbc
    6030:	c5524441 	ldrbgt	r4, [r2, #-1089]	; 0xfffffbbf
    6034:	c6494c41 	strbgt	r4, [r9], -r1, asr #24
    6038:	00000000 	andeq	r0, r0, r0
    603c:	e28bb002 	add	fp, fp, #2
    6040:	e3520103 	cmp	r2, #-1073741824	; 0xc0000000
    6044:	2a0001ac 	bcs	66fc <BASIC$$Code+0x66fc>
    6048:	eb000202 	bl	6858 <BASIC$$Code+0x6858>
    604c:	e202140f 	and	r1, r2, #251658240	; 0xf000000
    6050:	e3520101 	cmp	r2, #1073741824	; 0x40000000
    6054:	31a011a1 	lsrcc	r1, r1, #3
    6058:	e1a04e22 	lsr	r4, r2, #28
    605c:	eb000212 	bl	68ac <BASIC$$Code+0x68ac>
    6060:	e28f0004 	add	r0, pc, #4
    6064:	e7903104 	ldr	r3, [r0, r4, lsl #2]
    6068:	e08ff003 	add	pc, pc, r3
    606c:	000002e0 	andeq	r0, r0, r0, ror #5
    6070:	000002b4 			; <UNDEFINED> instruction: 0x000002b4
    6074:	00000294 	muleq	r0, r4, r2
    6078:	00000404 	andeq	r0, r0, r4, lsl #8
    607c:	0000012c 	andeq	r0, r0, ip, lsr #2
    6080:	00000130 	andeq	r0, r0, r0, lsr r1
    6084:	00000020 	andeq	r0, r0, r0, lsr #32
    6088:	00000024 	andeq	r0, r0, r4, lsr #32
    608c:	00000460 	andeq	r0, r0, r0, ror #8
    6090:	e3811601 	orr	r1, r1, #1048576	; 0x100000
    6094:	e3ca2020 	bic	r2, sl, #32
    6098:	e4db0001 	ldrb	r0, [fp], #1
    609c:	e3c00020 	bic	r0, r0, #32
    60a0:	e1820400 	orr	r0, r2, r0, lsl #8
    60a4:	e1a00800 	lsl	r0, r0, #16
    60a8:	e28f20c8 	add	r2, pc, #200	; 0xc8
    60ac:	e4923004 	ldr	r3, [r2], #4
    60b0:	e3330000 	teq	r3, #0
    60b4:	0a0012d8 	beq	ac1c <BASIC$$Code+0xac1c>
    60b8:	e1500803 	cmp	r0, r3, lsl #16
    60bc:	1afffffa 	bne	60ac <BASIC$$Code+0x60ac>
    60c0:	e3110601 	tst	r1, #1048576	; 0x100000
    60c4:	11a03403 	lslne	r3, r3, #8
    60c8:	e20334ff 	and	r3, r3, #-16777216	; 0xff000000
    60cc:	e18110a3 	orr	r1, r1, r3, lsr #1
    60d0:	eb00021d 	bl	694c <BASIC$$Code+0x694c>
    60d4:	e1811800 	orr	r1, r1, r0, lsl #16
    60d8:	ebffebda 	bl	1048 <BASIC$$Code+0x1048>
    60dc:	e35a0021 	cmp	sl, #33	; 0x21
    60e0:	03811602 	orreq	r1, r1, #2097152	; 0x200000
    60e4:	0bffebd7 	bleq	1048 <BASIC$$Code+0x1048>
    60e8:	e35a002c 	cmp	sl, #44	; 0x2c
    60ec:	1a0011c6 	bne	a80c <BASIC$$Code+0xa80c>
    60f0:	ebffebd4 	bl	1048 <BASIC$$Code+0x1048>
    60f4:	e35a007b 	cmp	sl, #123	; 0x7b
    60f8:	1a001321 	bne	ad84 <BASIC$$Code+0xad84>
    60fc:	eb000212 	bl	694c <BASIC$$Code+0x694c>
    6100:	e3a03001 	mov	r3, #1
    6104:	e1811013 	orr	r1, r1, r3, lsl r0
    6108:	ebffebce 	bl	1048 <BASIC$$Code+0x1048>
    610c:	e35a002c 	cmp	sl, #44	; 0x2c
    6110:	0afffff9 	beq	60fc <BASIC$$Code+0x60fc>
    6114:	e35a002d 	cmp	sl, #45	; 0x2d
    6118:	1a00000f 	bne	615c <BASIC$$Code+0x615c>
    611c:	e92d0009 	push	{r0, r3}
    6120:	eb000209 	bl	694c <BASIC$$Code+0x694c>
    6124:	e8bd000c 	pop	{r2, r3}
    6128:	e1500002 	cmp	r0, r2
    612c:	0a000007 	beq	6150 <BASIC$$Code+0x6150>
    6130:	21a0e000 	movcs	lr, r0
    6134:	21a00002 	movcs	r0, r2
    6138:	21a0200e 	movcs	r2, lr
    613c:	e1811013 	orr	r1, r1, r3, lsl r0
    6140:	e2800001 	add	r0, r0, #1
    6144:	e1500002 	cmp	r0, r2
    6148:	1afffffb 	bne	613c <BASIC$$Code+0x613c>
    614c:	e1811013 	orr	r1, r1, r3, lsl r0
    6150:	ebffebbc 	bl	1048 <BASIC$$Code+0x1048>
    6154:	e35a002c 	cmp	sl, #44	; 0x2c
    6158:	0affffe7 	beq	60fc <BASIC$$Code+0x60fc>
    615c:	e35a007d 	cmp	sl, #125	; 0x7d
    6160:	1a00130b 	bne	ad94 <BASIC$$Code+0xad94>
    6164:	ebffebb7 	bl	1048 <BASIC$$Code+0x1048>
    6168:	e35a005e 	cmp	sl, #94	; 0x5e
    616c:	03811501 	orreq	r1, r1, #4194304	; 0x400000
    6170:	0bffebb4 	bleq	1048 <BASIC$$Code+0x1048>
    6174:	ea0000ef 	b	6538 <BASIC$$Code+0x6538>
    6178:	01014149 	tsteq	r1, r9, asr #2
    617c:	03034249 	movweq	r4, #12873	; 0x3249
    6180:	00004144 	andeq	r4, r0, r4, asr #2
    6184:	02024244 	andeq	r4, r2, #68, 4	; 0x40000004
    6188:	03004146 	movweq	r4, #326	; 0x146
    618c:	02014446 	andeq	r4, r1, #1174405120	; 0x46000000
    6190:	01024145 	tsteq	r2, r5, asr #2
    6194:	00034445 	andeq	r4, r3, r5, asr #8
    6198:	00000000 	andeq	r0, r0, r0
    619c:	e3811601 	orr	r1, r1, #1048576	; 0x100000
    61a0:	e3811502 	orr	r1, r1, #8388608	; 0x800000
    61a4:	e35a0062 	cmp	sl, #98	; 0x62
    61a8:	135a0042 	cmpne	sl, #66	; 0x42
    61ac:	03811501 	orreq	r1, r1, #4194304	; 0x400000
    61b0:	04dba001 	ldrbeq	sl, [fp], #1
    61b4:	e35a0074 	cmp	sl, #116	; 0x74
    61b8:	135a0054 	cmpne	sl, #84	; 0x54
    61bc:	03811602 	orreq	r1, r1, #2097152	; 0x200000
    61c0:	028bb001 	addeq	fp, fp, #1
    61c4:	e24bb001 	sub	fp, fp, #1
    61c8:	eb0001df 	bl	694c <BASIC$$Code+0x694c>
    61cc:	eb000204 	bl	69e4 <BASIC$$Code+0x69e4>
    61d0:	e1811600 	orr	r1, r1, r0, lsl #12
    61d4:	e35a005b 	cmp	sl, #91	; 0x5b
    61d8:	1a000033 	bne	62ac <BASIC$$Code+0x62ac>
    61dc:	eb0001da 	bl	694c <BASIC$$Code+0x694c>
    61e0:	e1811800 	orr	r1, r1, r0, lsl #16
    61e4:	ebffeb97 	bl	1048 <BASIC$$Code+0x1048>
    61e8:	e35a005d 	cmp	sl, #93	; 0x5d
    61ec:	0a00001a 	beq	625c <BASIC$$Code+0x625c>
    61f0:	e2811401 	add	r1, r1, #16777216	; 0x1000000
    61f4:	e35a002c 	cmp	sl, #44	; 0x2c
    61f8:	1a001183 	bne	a80c <BASIC$$Code+0xa80c>
    61fc:	ebffeb91 	bl	1048 <BASIC$$Code+0x1048>
    6200:	e35a0023 	cmp	sl, #35	; 0x23
    6204:	0a000009 	beq	6230 <BASIC$$Code+0x6230>
    6208:	e35a002d 	cmp	sl, #45	; 0x2d
    620c:	03c11502 	biceq	r1, r1, #8388608	; 0x800000
    6210:	0bffeb8c 	bleq	1048 <BASIC$$Code+0x1048>
    6214:	eb0001cf 	bl	6958 <BASIC$$Code+0x6958>
    6218:	e1811000 	orr	r1, r1, r0
    621c:	e2811402 	add	r1, r1, #33554432	; 0x2000000
    6220:	ebffeb88 	bl	1048 <BASIC$$Code+0x1048>
    6224:	e35a002c 	cmp	sl, #44	; 0x2c
    6228:	0b00005a 	bleq	6398 <BASIC$$Code+0x6398>
    622c:	ea000003 	b	6240 <BASIC$$Code+0x6240>
    6230:	eb000199 	bl	689c <BASIC$$Code+0x689c>
    6234:	e24bb001 	sub	fp, fp, #1
    6238:	eb000024 	bl	62d0 <BASIC$$Code+0x62d0>
    623c:	ebffeb81 	bl	1048 <BASIC$$Code+0x1048>
    6240:	e35a005d 	cmp	sl, #93	; 0x5d
    6244:	1a0012ca 	bne	ad74 <BASIC$$Code+0xad74>
    6248:	ebffeb7e 	bl	1048 <BASIC$$Code+0x1048>
    624c:	e35a0021 	cmp	sl, #33	; 0x21
    6250:	03811602 	orreq	r1, r1, #2097152	; 0x200000
    6254:	0bffeb7b 	bleq	1048 <BASIC$$Code+0x1048>
    6258:	ea0000b6 	b	6538 <BASIC$$Code+0x6538>
    625c:	ebffeb79 	bl	1048 <BASIC$$Code+0x1048>
    6260:	e35a002c 	cmp	sl, #44	; 0x2c
    6264:	12811401 	addne	r1, r1, #16777216	; 0x1000000
    6268:	1a0000b2 	bne	6538 <BASIC$$Code+0x6538>
    626c:	ebffeb75 	bl	1048 <BASIC$$Code+0x1048>
    6270:	e35a0023 	cmp	sl, #35	; 0x23
    6274:	0a000009 	beq	62a0 <BASIC$$Code+0x62a0>
    6278:	e35a002d 	cmp	sl, #45	; 0x2d
    627c:	03c11502 	biceq	r1, r1, #8388608	; 0x800000
    6280:	0bffeb70 	bleq	1048 <BASIC$$Code+0x1048>
    6284:	eb0001b3 	bl	6958 <BASIC$$Code+0x6958>
    6288:	e1811000 	orr	r1, r1, r0
    628c:	e2811402 	add	r1, r1, #33554432	; 0x2000000
    6290:	ebffeb6c 	bl	1048 <BASIC$$Code+0x1048>
    6294:	e35a002c 	cmp	sl, #44	; 0x2c
    6298:	0b00003e 	bleq	6398 <BASIC$$Code+0x6398>
    629c:	ea0000a5 	b	6538 <BASIC$$Code+0x6538>
    62a0:	eb00017d 	bl	689c <BASIC$$Code+0x689c>
    62a4:	eb000009 	bl	62d0 <BASIC$$Code+0x62d0>
    62a8:	ea0000a2 	b	6538 <BASIC$$Code+0x6538>
    62ac:	e24bb001 	sub	fp, fp, #1
    62b0:	eb000179 	bl	689c <BASIC$$Code+0x689c>
    62b4:	e5982134 	ldr	r2, [r8, #308]	; 0x134
    62b8:	e2822008 	add	r2, r2, #8
    62bc:	e0400002 	sub	r0, r0, r2
    62c0:	e381180f 	orr	r1, r1, #983040	; 0xf0000
    62c4:	e2811401 	add	r1, r1, #16777216	; 0x1000000
    62c8:	eb000000 	bl	62d0 <BASIC$$Code+0x62d0>
    62cc:	ea000099 	b	6538 <BASIC$$Code+0x6538>
    62d0:	e3300000 	teq	r0, #0
    62d4:	43c11502 	bicmi	r1, r1, #8388608	; 0x800000
    62d8:	42600000 	rsbmi	r0, r0, #0
    62dc:	e3500a01 	cmp	r0, #4096	; 0x1000
    62e0:	2a001121 	bcs	a76c <BASIC$$Code+0xa76c>
    62e4:	e1811000 	orr	r1, r1, r0
    62e8:	e1a0f00e 	mov	pc, lr
    62ec:	e3510051 	cmp	r1, #81	; 0x51
    62f0:	1a001108 	bne	a718 <BASIC$$Code+0xa718>
    62f4:	eb000157 	bl	6858 <BASIC$$Code+0x6858>
    62f8:	e3a0161a 	mov	r1, #27262976	; 0x1a00000
    62fc:	e28bb001 	add	fp, fp, #1
    6300:	e4dba001 	ldrb	sl, [fp], #1
    6304:	e35a0053 	cmp	sl, #83	; 0x53
    6308:	135a0073 	cmpne	sl, #115	; 0x73
    630c:	03811601 	orreq	r1, r1, #1048576	; 0x100000
    6310:	04dba001 	ldrbeq	sl, [fp], #1
    6314:	eb00018d 	bl	6950 <BASIC$$Code+0x6950>
    6318:	eb0001b1 	bl	69e4 <BASIC$$Code+0x69e4>
    631c:	e1811600 	orr	r1, r1, r0, lsl #12
    6320:	ea000014 	b	6378 <BASIC$$Code+0x6378>
    6324:	e3811601 	orr	r1, r1, #1048576	; 0x100000
    6328:	e35a0053 	cmp	sl, #83	; 0x53
    632c:	135a0073 	cmpne	sl, #115	; 0x73
    6330:	028bb001 	addeq	fp, fp, #1
    6334:	e35a0050 	cmp	sl, #80	; 0x50
    6338:	135a0070 	cmpne	sl, #112	; 0x70
    633c:	028bb001 	addeq	fp, fp, #1
    6340:	03811a0f 	orreq	r1, r1, #61440	; 0xf000
    6344:	e24bb001 	sub	fp, fp, #1
    6348:	ebffeb3e 	bl	1048 <BASIC$$Code+0x1048>
    634c:	ea000006 	b	636c <BASIC$$Code+0x636c>
    6350:	e35a0053 	cmp	sl, #83	; 0x53
    6354:	135a0073 	cmpne	sl, #115	; 0x73
    6358:	03811601 	orreq	r1, r1, #1048576	; 0x100000
    635c:	04dba001 	ldrbeq	sl, [fp], #1
    6360:	eb00017a 	bl	6950 <BASIC$$Code+0x6950>
    6364:	eb00019e 	bl	69e4 <BASIC$$Code+0x69e4>
    6368:	e1811600 	orr	r1, r1, r0, lsl #12
    636c:	eb000179 	bl	6958 <BASIC$$Code+0x6958>
    6370:	eb00019b 	bl	69e4 <BASIC$$Code+0x69e4>
    6374:	e1811800 	orr	r1, r1, r0, lsl #16
    6378:	e35a0023 	cmp	sl, #35	; 0x23
    637c:	0a00002f 	beq	6440 <BASIC$$Code+0x6440>
    6380:	eb000174 	bl	6958 <BASIC$$Code+0x6958>
    6384:	e1811000 	orr	r1, r1, r0
    6388:	ebffeb2e 	bl	1048 <BASIC$$Code+0x1048>
    638c:	e35a002c 	cmp	sl, #44	; 0x2c
    6390:	0b000000 	bleq	6398 <BASIC$$Code+0x6398>
    6394:	ea000067 	b	6538 <BASIC$$Code+0x6538>
    6398:	e92d4000 	stmfd	sp!, {lr}
    639c:	ebffeb29 	bl	1048 <BASIC$$Code+0x1048>
    63a0:	e3ca0020 	bic	r0, sl, #32
    63a4:	e4db2001 	ldrb	r2, [fp], #1
    63a8:	e3c22020 	bic	r2, r2, #32
    63ac:	e4db3001 	ldrb	r3, [fp], #1
    63b0:	e3c33020 	bic	r3, r3, #32
    63b4:	e1800402 	orr	r0, r0, r2, lsl #8
    63b8:	e1800803 	orr	r0, r0, r3, lsl #16
    63bc:	e1a00400 	lsl	r0, r0, #8
    63c0:	e28f205c 	add	r2, pc, #92	; 0x5c
    63c4:	e4923004 	ldr	r3, [r2], #4
    63c8:	e3330000 	teq	r3, #0
    63cc:	0a001212 	beq	ac1c <BASIC$$Code+0xac1c>
    63d0:	e1500403 	cmp	r0, r3, lsl #8
    63d4:	1afffffa 	bne	63c4 <BASIC$$Code+0x63c4>
    63d8:	ebffeb1a 	bl	1048 <BASIC$$Code+0x1048>
    63dc:	e1b03203 	lsls	r3, r3, #4
    63e0:	e1a03c23 	lsr	r3, r3, #24
    63e4:	e20330f0 	and	r3, r3, #240	; 0xf0
    63e8:	e1811003 	orr	r1, r1, r3
    63ec:	38bd8000 	ldmfdcc	sp!, {pc}
    63f0:	e35a0023 	cmp	sl, #35	; 0x23
    63f4:	0a000004 	beq	640c <BASIC$$Code+0x640c>
    63f8:	e3811010 	orr	r1, r1, #16
    63fc:	eb000155 	bl	6958 <BASIC$$Code+0x6958>
    6400:	e1811400 	orr	r1, r1, r0, lsl #8
    6404:	ebffeb0f 	bl	1048 <BASIC$$Code+0x1048>
    6408:	e8bd8000 	ldmfd	sp!, {pc}
    640c:	eb000122 	bl	689c <BASIC$$Code+0x689c>
    6410:	e3500021 	cmp	r0, #33	; 0x21
    6414:	2a0010da 	bcs	a784 <BASIC$$Code+0xa784>
    6418:	e200001f 	and	r0, r0, #31
    641c:	e1811380 	orr	r1, r1, r0, lsl #7
    6420:	e8bd8000 	ldmfd	sp!, {pc}
    6424:	104c5341 	subne	r5, ip, r1, asr #6
    6428:	104c534c 	subne	r5, ip, ip, asr #6
    642c:	1252534c 	subsne	r5, r2, #76, 6	; 0x30000001
    6430:	14525341 	ldrbne	r5, [r2], #-833	; 0xfffffcbf
    6434:	16524f52 	usaxne	r4, r2, r2
    6438:	06585252 			; <UNDEFINED> instruction: 0x06585252
    643c:	00000000 	andeq	r0, r0, r0
    6440:	e3811402 	orr	r1, r1, #33554432	; 0x2000000
    6444:	eb000114 	bl	689c <BASIC$$Code+0x689c>
    6448:	e3a02000 	mov	r2, #0
    644c:	e3500c01 	cmp	r0, #256	; 0x100
    6450:	3a000004 	bcc	6468 <BASIC$$Code+0x6468>
    6454:	e1a00f60 	ror	r0, r0, #30
    6458:	e2922001 	adds	r2, r2, #1
    645c:	e3520010 	cmp	r2, #16
    6460:	1afffff9 	bne	644c <BASIC$$Code+0x644c>
    6464:	ea0010b8 	b	a74c <BASIC$$Code+0xa74c>
    6468:	e1811000 	orr	r1, r1, r0
    646c:	e1811402 	orr	r1, r1, r2, lsl #8
    6470:	ea000030 	b	6538 <BASIC$$Code+0x6538>
    6474:	e3811090 	orr	r1, r1, #144	; 0x90
    6478:	e35a0053 	cmp	sl, #83	; 0x53
    647c:	135a0073 	cmpne	sl, #115	; 0x73
    6480:	03811601 	orreq	r1, r1, #1048576	; 0x100000
    6484:	028bb001 	addeq	fp, fp, #1
    6488:	eb00012f 	bl	694c <BASIC$$Code+0x694c>
    648c:	eb000154 	bl	69e4 <BASIC$$Code+0x69e4>
    6490:	e1811800 	orr	r1, r1, r0, lsl #16
    6494:	eb00012f 	bl	6958 <BASIC$$Code+0x6958>
    6498:	e1811000 	orr	r1, r1, r0
    649c:	e201480f 	and	r4, r1, #983040	; 0xf0000
    64a0:	e1540800 	cmp	r4, r0, lsl #16
    64a4:	0a0010bf 	beq	a7a8 <BASIC$$Code+0xa7a8>
    64a8:	eb00014d 	bl	69e4 <BASIC$$Code+0x69e4>
    64ac:	eb000129 	bl	6958 <BASIC$$Code+0x6958>
    64b0:	e1811400 	orr	r1, r1, r0, lsl #8
    64b4:	e3110602 	tst	r1, #2097152	; 0x200000
    64b8:	0a000002 	beq	64c8 <BASIC$$Code+0x64c8>
    64bc:	eb000148 	bl	69e4 <BASIC$$Code+0x69e4>
    64c0:	eb000124 	bl	6958 <BASIC$$Code+0x6958>
    64c4:	e1811600 	orr	r1, r1, r0, lsl #12
    64c8:	ebffeade 	bl	1048 <BASIC$$Code+0x1048>
    64cc:	ea000019 	b	6538 <BASIC$$Code+0x6538>
    64d0:	eb0000f1 	bl	689c <BASIC$$Code+0x689c>
    64d4:	e3c004ff 	bic	r0, r0, #-16777216	; 0xff000000
    64d8:	e1811000 	orr	r1, r1, r0
    64dc:	ea000015 	b	6538 <BASIC$$Code+0x6538>
    64e0:	e3310049 	teq	r1, #73	; 0x49
    64e4:	0afffea9 	beq	5f90 <BASIC$$Code+0x5f90>
    64e8:	eb0000da 	bl	6858 <BASIC$$Code+0x6858>
    64ec:	e3a0140b 	mov	r1, #184549376	; 0xb000000
    64f0:	e4dba001 	ldrb	sl, [fp], #1
    64f4:	e3caa020 	bic	sl, sl, #32
    64f8:	e33a004c 	teq	sl, #76	; 0x4c
    64fc:	1a000002 	bne	650c <BASIC$$Code+0x650c>
    6500:	eb0000e9 	bl	68ac <BASIC$$Code+0x68ac>
    6504:	0a000004 	beq	651c <BASIC$$Code+0x651c>
    6508:	e24bb001 	sub	fp, fp, #1
    650c:	e24bb001 	sub	fp, fp, #1
    6510:	e3a0140a 	mov	r1, #167772160	; 0xa000000
    6514:	eb0000e4 	bl	68ac <BASIC$$Code+0x68ac>
    6518:	1a0011bf 	bne	ac1c <BASIC$$Code+0xac1c>
    651c:	eb0000de 	bl	689c <BASIC$$Code+0x689c>
    6520:	eb0000c8 	bl	6848 <BASIC$$Code+0x6848>
    6524:	e2823005 	add	r3, r2, #5
    6528:	e0403003 	sub	r3, r0, r3
    652c:	e1a03123 	lsr	r3, r3, #2
    6530:	e3c334ff 	bic	r3, r3, #-16777216	; 0xff000000
    6534:	e1811003 	orr	r1, r1, r3
    6538:	eb0000cb 	bl	686c <BASIC$$Code+0x686c>
    653c:	e3a02004 	mov	r2, #4
    6540:	e5983134 	ldr	r3, [r8, #308]	; 0x134
    6544:	e5d802ff 	ldrb	r0, [r8, #767]	; 0x2ff
    6548:	e3100004 	tst	r0, #4
    654c:	01a04003 	moveq	r4, r3
    6550:	15984130 	ldrne	r4, [r8, #304]	; 0x130
    6554:	e3520005 	cmp	r2, #5
    6558:	3a00000b 	bcc	658c <BASIC$$Code+0x658c>
    655c:	e2885c03 	add	r5, r8, #768	; 0x300
    6560:	e0422005 	sub	r2, r2, r5
    6564:	e3520005 	cmp	r2, #5
    6568:	35951000 	ldrcc	r1, [r5]
    656c:	3a000006 	bcc	658c <BASIC$$Code+0x658c>
    6570:	e1a06002 	mov	r6, r2
    6574:	e1a07004 	mov	r7, r4
    6578:	e4d51001 	ldrb	r1, [r5], #1
    657c:	e4c71001 	strb	r1, [r7], #1
    6580:	e2566001 	subs	r6, r6, #1
    6584:	1afffffb 	bne	6578 <BASIC$$Code+0x6578>
    6588:	ea000007 	b	65ac <BASIC$$Code+0x65ac>
    658c:	e3520000 	cmp	r2, #0
    6590:	15c41000 	strbne	r1, [r4]
    6594:	e1a05421 	lsr	r5, r1, #8
    6598:	15c45001 	strbne	r5, [r4, #1]
    659c:	e1a05821 	lsr	r5, r1, #16
    65a0:	15c45002 	strbne	r5, [r4, #2]
    65a4:	e1a05c21 	lsr	r5, r1, #24
    65a8:	15c45003 	strbne	r5, [r4, #3]
    65ac:	e3100004 	tst	r0, #4
    65b0:	10844002 	addne	r4, r4, r2
    65b4:	15884130 	strne	r4, [r8, #304]	; 0x130
    65b8:	e3100001 	tst	r0, #1
    65bc:	0a000041 	beq	66c8 <BASIC$$Code+0x66c8>
    65c0:	e92d0400 	stmfd	sp!, {sl}
    65c4:	e1a0a003 	mov	sl, r3
    65c8:	eb000fd6 	bl	a528 <BASIC$$Code+0xa528>
    65cc:	ef000120 	svc	0x00000120
    65d0:	e1a0a001 	mov	sl, r1
    65d4:	e3520005 	cmp	r2, #5
    65d8:	2a00000c 	bcs	6610 <BASIC$$Code+0x6610>
    65dc:	e92d0201 	push	{r0, r9}
    65e0:	e1b09182 	lsls	r9, r2, #3
    65e4:	e2499004 	sub	r9, r9, #4
    65e8:	08bd0201 	popeq	{r0, r9}
    65ec:	1b000fcf 	blne	a530 <BASIC$$Code+0xa530>
    65f0:	e2620004 	rsb	r0, r2, #4
    65f4:	e1b00080 	lsls	r0, r0, #1
    65f8:	0a000008 	beq	6620 <BASIC$$Code+0x6620>
    65fc:	ef000120 	svc	0x00000120
    6600:	e2500001 	subs	r0, r0, #1
    6604:	eafffffb 	b	65f8 <BASIC$$Code+0x65f8>
    6608:	eb00009e 	bl	6888 <BASIC$$Code+0x6888>
    660c:	eaffffcb 	b	6540 <BASIC$$Code+0x6540>
    6610:	ef000001 	svc	0x00000001
    6614:	20202020 	eorcs	r2, r0, r0, lsr #32
    6618:	20202020 	eorcs	r2, r0, r0, lsr #32
    661c:	00000000 	andeq	r0, r0, r0
    6620:	e8bd0400 	ldmfd	sp!, {sl}
    6624:	e3a09000 	mov	r9, #0
    6628:	ef000120 	svc	0x00000120
    662c:	e4dc0001 	ldrb	r0, [ip], #1
    6630:	e350002e 	cmp	r0, #46	; 0x2e
    6634:	1a00000f 	bne	6678 <BASIC$$Code+0x6678>
    6638:	e3a04000 	mov	r4, #0
    663c:	e3a07000 	mov	r7, #0
    6640:	ebffeb93 	bl	1494 <BASIC$$Code+0x1494>
    6644:	e2844001 	add	r4, r4, #1
    6648:	e4dc0001 	ldrb	r0, [ip], #1
    664c:	e350003a 	cmp	r0, #58	; 0x3a
    6650:	1350003b 	cmpne	r0, #59	; 0x3b
    6654:	1350005c 	cmpne	r0, #92	; 0x5c
    6658:	135000f4 	cmpne	r0, #244	; 0xf4
    665c:	13500020 	cmpne	r0, #32
    6660:	8afffff6 	bhi	6640 <BASIC$$Code+0x6640>
    6664:	e274000a 	rsbs	r0, r4, #10
    6668:	93a00001 	movls	r0, #1
    666c:	ebffeda6 	bl	1d0c <BASIC$$Code+0x1d0c>
    6670:	e24cc001 	sub	ip, ip, #1
    6674:	ea000007 	b	6698 <BASIC$$Code+0x6698>
    6678:	e350003a 	cmp	r0, #58	; 0x3a
    667c:	1350000d 	cmpne	r0, #13
    6680:	0a00000f 	beq	66c4 <BASIC$$Code+0x66c4>
    6684:	ef000001 	svc	0x00000001
    6688:	20202020 	eorcs	r2, r0, r0, lsr #32
    668c:	20202020 	eorcs	r2, r0, r0, lsr #32
    6690:	00002020 	andeq	r2, r0, r0, lsr #32
    6694:	e24cc001 	sub	ip, ip, #1
    6698:	e4dc0001 	ldrb	r0, [ip], #1
    669c:	e3500020 	cmp	r0, #32
    66a0:	0afffffc 	beq	6698 <BASIC$$Code+0x6698>
    66a4:	e330003a 	teq	r0, #58	; 0x3a
    66a8:	1330000d 	teqne	r0, #13
    66ac:	0a000004 	beq	66c4 <BASIC$$Code+0x66c4>
    66b0:	e3a07000 	mov	r7, #0
    66b4:	ebffeb76 	bl	1494 <BASIC$$Code+0x1494>
    66b8:	e4dc0001 	ldrb	r0, [ip], #1
    66bc:	e15c000b 	cmp	ip, fp
    66c0:	3afffffa 	bcc	66b0 <BASIC$$Code+0x66b0>
    66c4:	ef000003 	svc	0x00000003
    66c8:	e0833002 	add	r3, r3, r2
    66cc:	e5883134 	str	r3, [r8, #308]	; 0x134
    66d0:	e1a0c00b 	mov	ip, fp
    66d4:	e33a000d 	teq	sl, #13
    66d8:	1afffdf7 	bne	5ebc <BASIC$$Code+0x5ebc>
    66dc:	e4dca001 	ldrb	sl, [ip], #1
    66e0:	e35a00ff 	cmp	sl, #255	; 0xff
    66e4:	0affe791 	beq	530 <BASIC$$Code+0x530>
    66e8:	e28cc002 	add	ip, ip, #2
    66ec:	e5984290 	ldr	r4, [r8, #656]	; 0x290
    66f0:	e3540000 	cmp	r4, #0
    66f4:	1bfffa08 	blne	4f1c <BASIC$$Code+0x4f1c>
    66f8:	eafffdef 	b	5ebc <BASIC$$Code+0x5ebc>
    66fc:	e1a00c22 	lsr	r0, r2, #24
    6700:	e35000c1 	cmp	r0, #193	; 0xc1
    6704:	0a000006 	beq	6724 <BASIC$$Code+0x6724>
    6708:	2a000021 	bcs	6794 <BASIC$$Code+0x6794>
    670c:	eb000062 	bl	689c <BASIC$$Code+0x689c>
    6710:	eb000055 	bl	686c <BASIC$$Code+0x686c>
    6714:	e2000007 	and	r0, r0, #7
    6718:	e5c802ff 	strb	r0, [r8, #767]	; 0x2ff
    671c:	e3a02000 	mov	r2, #0
    6720:	eaffff86 	b	6540 <BASIC$$Code+0x6540>
    6724:	e4dba001 	ldrb	sl, [fp], #1
    6728:	e3caa020 	bic	sl, sl, #32
    672c:	e35a0053 	cmp	sl, #83	; 0x53
    6730:	0a000013 	beq	6784 <BASIC$$Code+0x6784>
    6734:	e35a0044 	cmp	sl, #68	; 0x44
    6738:	0a00000e 	beq	6778 <BASIC$$Code+0x6778>
    673c:	e35a0042 	cmp	sl, #66	; 0x42
    6740:	0a000004 	beq	6758 <BASIC$$Code+0x6758>
    6744:	e35a0057 	cmp	sl, #87	; 0x57
    6748:	1a000ff8 	bne	a730 <BASIC$$Code+0xa730>
    674c:	eb000052 	bl	689c <BASIC$$Code+0x689c>
    6750:	e3a02002 	mov	r2, #2
    6754:	ea000001 	b	6760 <BASIC$$Code+0x6760>
    6758:	eb00004f 	bl	689c <BASIC$$Code+0x689c>
    675c:	e3a02001 	mov	r2, #1
    6760:	e1a01000 	mov	r1, r0
    6764:	eb000040 	bl	686c <BASIC$$Code+0x686c>
    6768:	eaffff74 	b	6540 <BASIC$$Code+0x6540>
    676c:	e35000c5 	cmp	r0, #197	; 0xc5
    6770:	0a00000e 	beq	67b0 <BASIC$$Code+0x67b0>
    6774:	2a00001f 	bcs	67f8 <BASIC$$Code+0x67f8>
    6778:	eb000047 	bl	689c <BASIC$$Code+0x689c>
    677c:	e1a01000 	mov	r1, r0
    6780:	eaffff6c 	b	6538 <BASIC$$Code+0x6538>
    6784:	eb000294 	bl	71dc <BASIC$$Code+0x71dc>
    6788:	1a001023 	bne	a81c <BASIC$$Code+0xa81c>
    678c:	eb000036 	bl	686c <BASIC$$Code+0x686c>
    6790:	eaffff6a 	b	6540 <BASIC$$Code+0x6540>
    6794:	e35000c3 	cmp	r0, #195	; 0xc3
    6798:	0affffeb 	beq	674c <BASIC$$Code+0x674c>
    679c:	2afffff2 	bcs	676c <BASIC$$Code+0x676c>
    67a0:	eb00028d 	bl	71dc <BASIC$$Code+0x71dc>
    67a4:	0afffff8 	beq	678c <BASIC$$Code+0x678c>
    67a8:	eb000a48 	bl	90d0 <BASIC$$Code+0x90d0>
    67ac:	eaffffea 	b	675c <BASIC$$Code+0x675c>
    67b0:	e3a0180f 	mov	r1, #983040	; 0xf0000
    67b4:	e3811402 	orr	r1, r1, #33554432	; 0x2000000
    67b8:	eb000026 	bl	6858 <BASIC$$Code+0x6858>
    67bc:	eb00003a 	bl	68ac <BASIC$$Code+0x68ac>
    67c0:	eb000062 	bl	6950 <BASIC$$Code+0x6950>
    67c4:	e1811600 	orr	r1, r1, r0, lsl #12
    67c8:	eb000085 	bl	69e4 <BASIC$$Code+0x69e4>
    67cc:	e24bb001 	sub	fp, fp, #1
    67d0:	eb000031 	bl	689c <BASIC$$Code+0x689c>
    67d4:	eb000024 	bl	686c <BASIC$$Code+0x686c>
    67d8:	eb00001a 	bl	6848 <BASIC$$Code+0x6848>
    67dc:	e2823008 	add	r3, r2, #8
    67e0:	e0500003 	subs	r0, r0, r3
    67e4:	53811502 	orrpl	r1, r1, #8388608	; 0x800000
    67e8:	43811501 	orrmi	r1, r1, #4194304	; 0x400000
    67ec:	42600000 	rsbmi	r0, r0, #0
    67f0:	e3a02000 	mov	r2, #0
    67f4:	eaffff14 	b	644c <BASIC$$Code+0x644c>
    67f8:	e4dba001 	ldrb	sl, [fp], #1
    67fc:	e3ca2020 	bic	r2, sl, #32
    6800:	e3520047 	cmp	r2, #71	; 0x47
    6804:	e4dba001 	ldrb	sl, [fp], #1
    6808:	e3ca2020 	bic	r2, sl, #32
    680c:	0352004e 	cmpeq	r2, #78	; 0x4e
    6810:	1a000fc0 	bne	a718 <BASIC$$Code+0xa718>
    6814:	ebffea0b 	bl	1048 <BASIC$$Code+0x1048>
    6818:	eb000013 	bl	686c <BASIC$$Code+0x686c>
    681c:	eb00000d 	bl	6858 <BASIC$$Code+0x6858>
    6820:	e3a02000 	mov	r2, #0
    6824:	eaffff45 	b	6540 <BASIC$$Code+0x6540>
    6828:	e5d802ff 	ldrb	r0, [r8, #767]	; 0x2ff
    682c:	e92d000f 	push	{r0, r1, r2, r3}
    6830:	eb0008ea 	bl	8be0 <BASIC$$Code+0x8be0>
    6834:	ebffea03 	bl	1048 <BASIC$$Code+0x1048>
    6838:	eb00000b 	bl	686c <BASIC$$Code+0x686c>
    683c:	e8bd000f 	pop	{r0, r1, r2, r3}
    6840:	e5c802ff 	strb	r0, [r8, #767]	; 0x2ff
    6844:	eaffff3d 	b	6540 <BASIC$$Code+0x6540>
    6848:	e5982134 	ldr	r2, [r8, #308]	; 0x134
    684c:	e2822003 	add	r2, r2, #3
    6850:	e3c22003 	bic	r2, r2, #3
    6854:	e1a0f00e 	mov	pc, lr
    6858:	e5980134 	ldr	r0, [r8, #308]	; 0x134
    685c:	e2800003 	add	r0, r0, #3
    6860:	e3c00003 	bic	r0, r0, #3
    6864:	e5880134 	str	r0, [r8, #308]	; 0x134
    6868:	e1a0f00e 	mov	pc, lr
    686c:	e33a003a 	teq	sl, #58	; 0x3a
    6870:	133a000d 	teqne	sl, #13
    6874:	01a0f00e 	moveq	pc, lr
    6878:	e33a003b 	teq	sl, #59	; 0x3b
    687c:	133a005c 	teqne	sl, #92	; 0x5c
    6880:	133a00f4 	teqne	sl, #244	; 0xf4
    6884:	1a0010e4 	bne	ac1c <BASIC$$Code+0xac1c>
    6888:	e4dba001 	ldrb	sl, [fp], #1
    688c:	e33a003a 	teq	sl, #58	; 0x3a
    6890:	133a000d 	teqne	sl, #13
    6894:	1afffffb 	bne	6888 <BASIC$$Code+0x6888>
    6898:	e1a0f00e 	mov	pc, lr
    689c:	e92d4002 	push	{r1, lr}
    68a0:	eb00024d 	bl	71dc <BASIC$$Code+0x71dc>
    68a4:	eb000a09 	bl	90d0 <BASIC$$Code+0x90d0>
    68a8:	e8fd8002 	ldm	sp!, {r1, pc}^
    68ac:	e4dba001 	ldrb	sl, [fp], #1
    68b0:	e3da2020 	bics	r2, sl, #32
    68b4:	0381120e 	orreq	r1, r1, #-536870912	; 0xe0000000
    68b8:	01a0f00e 	moveq	pc, lr
    68bc:	e5db0000 	ldrb	r0, [fp]
    68c0:	e3c00020 	bic	r0, r0, #32
    68c4:	e1820400 	orr	r0, r2, r0, lsl #8
    68c8:	e1a00400 	lsl	r0, r0, #8
    68cc:	e28f202c 	add	r2, pc, #44	; 0x2c
    68d0:	e4923004 	ldr	r3, [r2], #4
    68d4:	e3330000 	teq	r3, #0
    68d8:	0a000006 	beq	68f8 <BASIC$$Code+0x68f8>
    68dc:	e1500403 	cmp	r0, r3, lsl #8
    68e0:	1afffffa 	bne	68d0 <BASIC$$Code+0x68d0>
    68e4:	e203320f 	and	r3, r3, #-268435456	; 0xf0000000
    68e8:	e1811003 	orr	r1, r1, r3
    68ec:	e4dba001 	ldrb	sl, [fp], #1
    68f0:	e4dba001 	ldrb	sl, [fp], #1
    68f4:	e1a0f00e 	mov	pc, lr
    68f8:	e391120e 	orrs	r1, r1, #-536870912	; 0xe0000000
    68fc:	e1a0f00e 	mov	pc, lr
    6900:	e0004c41 	and	r4, r0, r1, asr #24
    6904:	30004343 	andcc	r4, r0, r3, asr #6
    6908:	20005343 	andcs	r5, r0, r3, asr #6
    690c:	00005145 	andeq	r5, r0, r5, asr #2
    6910:	a0004547 	andge	r4, r0, r7, asr #10
    6914:	c0005447 	andgt	r5, r0, r7, asr #8
    6918:	80004948 	andhi	r4, r0, r8, asr #18
    691c:	20005348 	andcs	r5, r0, r8, asr #6
    6920:	d000454c 	andle	r4, r0, ip, asr #10
    6924:	9000534c 	andls	r5, r0, ip, asr #6
    6928:	b000544c 	andlt	r5, r0, ip, asr #8
    692c:	30004f4c 	andcc	r4, r0, ip, asr #30
    6930:	4000494d 	andmi	r4, r0, sp, asr #18
    6934:	1000454e 	andne	r4, r0, lr, asr #10
    6938:	f000564e 			; <UNDEFINED> instruction: 0xf000564e
    693c:	50004c50 	andpl	r4, r0, r0, asr ip
    6940:	70004356 	andvc	r4, r0, r6, asr r3
    6944:	60005356 	andvs	r5, r0, r6, asr r3
    6948:	00000000 	andeq	r0, r0, r0
    694c:	e4dba001 	ldrb	sl, [fp], #1
    6950:	e33a0020 	teq	sl, #32
    6954:	0afffffc 	beq	694c <BASIC$$Code+0x694c>
    6958:	e3ca0020 	bic	r0, sl, #32
    695c:	e3500052 	cmp	r0, #82	; 0x52
    6960:	1a000011 	bne	69ac <BASIC$$Code+0x69ac>
    6964:	e5dba000 	ldrb	sl, [fp]
    6968:	e35a0039 	cmp	sl, #57	; 0x39
    696c:	8a000015 	bhi	69c8 <BASIC$$Code+0x69c8>
    6970:	e25a0030 	subs	r0, sl, #48	; 0x30
    6974:	3a000013 	bcc	69c8 <BASIC$$Code+0x69c8>
    6978:	e3300001 	teq	r0, #1
    697c:	1a000008 	bne	69a4 <BASIC$$Code+0x69a4>
    6980:	e5dba001 	ldrb	sl, [fp, #1]
    6984:	e35a0030 	cmp	sl, #48	; 0x30
    6988:	3a000005 	bcc	69a4 <BASIC$$Code+0x69a4>
    698c:	e35a0039 	cmp	sl, #57	; 0x39
    6990:	8a000003 	bhi	69a4 <BASIC$$Code+0x69a4>
    6994:	e35a0035 	cmp	sl, #53	; 0x35
    6998:	8a00000a 	bhi	69c8 <BASIC$$Code+0x69c8>
    699c:	e24a0026 	sub	r0, sl, #38	; 0x26
    69a0:	e28bb001 	add	fp, fp, #1
    69a4:	e28bb001 	add	fp, fp, #1
    69a8:	e1a0f00e 	mov	pc, lr
    69ac:	e3500050 	cmp	r0, #80	; 0x50
    69b0:	1a000004 	bne	69c8 <BASIC$$Code+0x69c8>
    69b4:	e5dba000 	ldrb	sl, [fp]
    69b8:	e3ca0020 	bic	r0, sl, #32
    69bc:	e3300043 	teq	r0, #67	; 0x43
    69c0:	03a0000f 	moveq	r0, #15
    69c4:	0afffff6 	beq	69a4 <BASIC$$Code+0x69a4>
    69c8:	e24bb001 	sub	fp, fp, #1
    69cc:	e92d4002 	push	{r1, lr}
    69d0:	eb000343 	bl	76e4 <BASIC$$Code+0x76e4>
    69d4:	eb0009bd 	bl	90d0 <BASIC$$Code+0x90d0>
    69d8:	e350000f 	cmp	r0, #15
    69dc:	8a000f6c 	bhi	a794 <BASIC$$Code+0xa794>
    69e0:	e8bd8002 	pop	{r1, pc}
    69e4:	e4dba001 	ldrb	sl, [fp], #1
    69e8:	e35a0020 	cmp	sl, #32
    69ec:	0afffffc 	beq	69e4 <BASIC$$Code+0x69e4>
    69f0:	e35a002c 	cmp	sl, #44	; 0x2c
    69f4:	0affe993 	beq	1048 <BASIC$$Code+0x1048>
    69f8:	ea000f83 	b	a80c <BASIC$$Code+0xa80c>
    69fc:	e24a1040 	sub	r1, sl, #64	; 0x40
    6a00:	e7981101 	ldr	r1, [r8, r1, lsl #2]
    6a04:	e1b00001 	movs	r0, r1
    6a08:	1a000006 	bne	6a28 <BASIC$$Code+0x6a28>
    6a0c:	e3310001 	teq	r1, #1
    6a10:	e1a0f00e 	mov	pc, lr
    6a14:	e134000b 	teq	r4, fp
    6a18:	02400002 	subeq	r0, r0, #2
    6a1c:	01a0f00e 	moveq	pc, lr
    6a20:	e1b00001 	movs	r0, r1
    6a24:	0afffff8 	beq	6a0c <BASIC$$Code+0x6a0c>
    6a28:	e8b00022 	ldm	r0!, {r1, r5}
    6a2c:	e1a05465 	ror	r5, r5, #8
    6a30:	e1330c25 	teq	r3, r5, lsr #24
    6a34:	1afffff9 	bne	6a20 <BASIC$$Code+0x6a20>
    6a38:	e21550ff 	ands	r5, r5, #255	; 0xff
    6a3c:	0afffff4 	beq	6a14 <BASIC$$Code+0x6a14>
    6a40:	e134000b 	teq	r4, fp
    6a44:	0afffff5 	beq	6a20 <BASIC$$Code+0x6a20>
    6a48:	e5d46000 	ldrb	r6, [r4]
    6a4c:	e1360005 	teq	r6, r5
    6a50:	1afffff2 	bne	6a20 <BASIC$$Code+0x6a20>
    6a54:	e1a02004 	mov	r2, r4
    6a58:	e2400002 	sub	r0, r0, #2
    6a5c:	e5f26001 	ldrb	r6, [r2, #1]!
    6a60:	e4d05001 	ldrb	r5, [r0], #1
    6a64:	e1360005 	teq	r6, r5
    6a68:	0afffffb 	beq	6a5c <BASIC$$Code+0x6a5c>
    6a6c:	e3350000 	teq	r5, #0
    6a70:	1affffea 	bne	6a20 <BASIC$$Code+0x6a20>
    6a74:	e132000b 	teq	r2, fp
    6a78:	1affffe8 	bne	6a20 <BASIC$$Code+0x6a20>
    6a7c:	e1a0f00e 	mov	pc, lr
    6a80:	e24a0040 	sub	r0, sl, #64	; 0x40
    6a84:	e0880100 	add	r0, r8, r0, lsl #2
    6a88:	e5901000 	ldr	r1, [r0]
    6a8c:	e3310000 	teq	r1, #0
    6a90:	11a00001 	movne	r0, r1
    6a94:	1afffffb 	bne	6a88 <BASIC$$Code+0x6a88>
    6a98:	e5982170 	ldr	r2, [r8, #368]	; 0x170
    6a9c:	e04b1004 	sub	r1, fp, r4
    6aa0:	e0811009 	add	r1, r1, r9
    6aa4:	e0811002 	add	r1, r1, r2
    6aa8:	e2811c02 	add	r1, r1, #512	; 0x200
    6aac:	e151000d 	cmp	r1, sp
    6ab0:	2a000ec6 	bcs	a5d0 <BASIC$$Code+0xa5d0>
    6ab4:	e5802000 	str	r2, [r0]
    6ab8:	e3a01000 	mov	r1, #0
    6abc:	e4821004 	str	r1, [r2], #4
    6ac0:	e4c23001 	strb	r3, [r2], #1
    6ac4:	e3330000 	teq	r3, #0
    6ac8:	0a000005 	beq	6ae4 <BASIC$$Code+0x6ae4>
    6acc:	e1a03004 	mov	r3, r4
    6ad0:	e133000b 	teq	r3, fp
    6ad4:	14d35001 	ldrbne	r5, [r3], #1
    6ad8:	14c25001 	strbne	r5, [r2], #1
    6adc:	1afffffb 	bne	6ad0 <BASIC$$Code+0x6ad0>
    6ae0:	e4c21001 	strb	r1, [r2], #1
    6ae4:	e92d0200 	stmfd	sp!, {r9}
    6ae8:	e3590c01 	cmp	r9, #256	; 0x100
    6aec:	23a09004 	movcs	r9, #4
    6af0:	228bb001 	addcs	fp, fp, #1
    6af4:	e3390004 	teq	r9, #4
    6af8:	02822003 	addeq	r2, r2, #3
    6afc:	03c22003 	biceq	r2, r2, #3
    6b00:	e92d0004 	stmfd	sp!, {r2}
    6b04:	e3390080 	teq	r9, #128	; 0x80
    6b08:	03a09005 	moveq	r9, #5
    6b0c:	e3390000 	teq	r9, #0
    6b10:	14c21001 	strbne	r1, [r2], #1
    6b14:	12599001 	subsne	r9, r9, #1
    6b18:	1afffffc 	bne	6b10 <BASIC$$Code+0x6b10>
    6b1c:	e2822003 	add	r2, r2, #3
    6b20:	e3c22003 	bic	r2, r2, #3
    6b24:	e5882170 	str	r2, [r8, #368]	; 0x170
    6b28:	e8bd0201 	pop	{r0, r9}
    6b2c:	e33900e1 	teq	r9, #225	; 0xe1
    6b30:	e1a0f00e 	mov	pc, lr
    6b34:	e92d4000 	stmfd	sp!, {lr}
    6b38:	eb000043 	bl	6c4c <BASIC$$Code+0x6c4c>
    6b3c:	18bd8000 	ldmfdne	sp!, {pc}
    6b40:	28bd8000 	ldmfdcs	sp!, {pc}
    6b44:	ebffffcd 	bl	6a80 <BASIC$$Code+0x6a80>
    6b48:	e8bd8000 	ldmfd	sp!, {pc}
    6b4c:	05050505 	streq	r0, [r5, #-1285]	; 0xfffffafb
    6b50:	05050505 	streq	r0, [r5, #-1285]	; 0xfffffafb
    6b54:	05050505 	streq	r0, [r5, #-1285]	; 0xfffffafb
    6b58:	05050505 	streq	r0, [r5, #-1285]	; 0xfffffafb
    6b5c:	05050505 	streq	r0, [r5, #-1285]	; 0xfffffafb
    6b60:	05050505 	streq	r0, [r5, #-1285]	; 0xfffffafb
    6b64:	05050505 	streq	r0, [r5, #-1285]	; 0xfffffafb
    6b68:	05050505 	streq	r0, [r5, #-1285]	; 0xfffffafb
    6b6c:	05050505 	streq	r0, [r5, #-1285]	; 0xfffffafb
    6b70:	05050480 	streq	r0, [r5, #-1152]	; 0xfffffb80
    6b74:	05050505 	streq	r0, [r5, #-1285]	; 0xfffffafb
    6b78:	05050505 	streq	r0, [r5, #-1285]	; 0xfffffafb
	...
    6b84:	05050000 	streq	r0, [r5, #-0]
    6b88:	05050505 	streq	r0, [r5, #-1285]	; 0xfffffafb
    6b8c:	00000005 	andeq	r0, r0, r5
	...
    6ba4:	05000000 	streq	r0, [r0, #-0]
    6ba8:	00050505 	andeq	r0, r5, r5, lsl #10
	...
    6bc4:	05000000 	streq	r0, [r0, #-0]
    6bc8:	05050505 	streq	r0, [r5, #-1285]	; 0xfffffafb
    6bcc:	05050505 	streq	r0, [r5, #-1285]	; 0xfffffafb
    6bd0:	05050505 	streq	r0, [r5, #-1285]	; 0xfffffafb
    6bd4:	05050505 	streq	r0, [r5, #-1285]	; 0xfffffafb
    6bd8:	05050505 	streq	r0, [r5, #-1285]	; 0xfffffafb
    6bdc:	05050505 	streq	r0, [r5, #-1285]	; 0xfffffafb
    6be0:	05050505 	streq	r0, [r5, #-1285]	; 0xfffffafb
    6be4:	05050505 	streq	r0, [r5, #-1285]	; 0xfffffafb
    6be8:	05050505 	streq	r0, [r5, #-1285]	; 0xfffffafb
    6bec:	05050505 	streq	r0, [r5, #-1285]	; 0xfffffafb
    6bf0:	05050505 	streq	r0, [r5, #-1285]	; 0xfffffafb
    6bf4:	05050505 	streq	r0, [r5, #-1285]	; 0xfffffafb
    6bf8:	05050505 	streq	r0, [r5, #-1285]	; 0xfffffafb
    6bfc:	05050505 	streq	r0, [r5, #-1285]	; 0xfffffafb
    6c00:	05050505 	streq	r0, [r5, #-1285]	; 0xfffffafb
    6c04:	05050505 	streq	r0, [r5, #-1285]	; 0xfffffafb
    6c08:	05050505 	streq	r0, [r5, #-1285]	; 0xfffffafb
    6c0c:	05050505 	streq	r0, [r5, #-1285]	; 0xfffffafb
    6c10:	05050505 	streq	r0, [r5, #-1285]	; 0xfffffafb
    6c14:	05050505 	streq	r0, [r5, #-1285]	; 0xfffffafb
    6c18:	05050505 	streq	r0, [r5, #-1285]	; 0xfffffafb
    6c1c:	05050505 	streq	r0, [r5, #-1285]	; 0xfffffafb
    6c20:	05050505 	streq	r0, [r5, #-1285]	; 0xfffffafb
    6c24:	05050505 	streq	r0, [r5, #-1285]	; 0xfffffafb
    6c28:	05050505 	streq	r0, [r5, #-1285]	; 0xfffffafb
    6c2c:	05050505 	streq	r0, [r5, #-1285]	; 0xfffffafb
    6c30:	05050505 	streq	r0, [r5, #-1285]	; 0xfffffafb
    6c34:	05050505 	streq	r0, [r5, #-1285]	; 0xfffffafb
    6c38:	05050505 	streq	r0, [r5, #-1285]	; 0xfffffafb
    6c3c:	05050505 	streq	r0, [r5, #-1285]	; 0xfffffafb
    6c40:	05050505 	streq	r0, [r5, #-1285]	; 0xfffffafb
    6c44:	05050505 	streq	r0, [r5, #-1285]	; 0xfffffafb
    6c48:	05050505 	streq	r0, [r5, #-1285]	; 0xfffffafb
    6c4c:	e1a0b00c 	mov	fp, ip
    6c50:	e4dba001 	ldrb	sl, [fp], #1
    6c54:	e35a0020 	cmp	sl, #32
    6c58:	0afffffc 	beq	6c50 <BASIC$$Code+0x6c50>
    6c5c:	e25a1040 	subs	r1, sl, #64	; 0x40
    6c60:	9a00006e 	bls	6e20 <BASIC$$Code+0x6e20>
    6c64:	e1a0400b 	mov	r4, fp
    6c68:	e24f3f49 	sub	r3, pc, #292	; 0x124
    6c6c:	e7d3900a 	ldrb	r9, [r3, sl]
    6c70:	e3590000 	cmp	r9, #0
    6c74:	1a00004c 	bne	6dac <BASIC$$Code+0x6dac>
    6c78:	e4db5001 	ldrb	r5, [fp], #1
    6c7c:	e7d39005 	ldrb	r9, [r3, r5]
    6c80:	e3590000 	cmp	r9, #0
    6c84:	0afffffb 	beq	6c78 <BASIC$$Code+0x6c78>
    6c88:	e3590005 	cmp	r9, #5
    6c8c:	14db5001 	ldrbne	r5, [fp], #1
    6c90:	e3550028 	cmp	r5, #40	; 0x28
    6c94:	0a000075 	beq	6e70 <BASIC$$Code+0x6e70>
    6c98:	e24bb001 	sub	fp, fp, #1
    6c9c:	e7981101 	ldr	r1, [r8, r1, lsl #2]
    6ca0:	e034300b 	eors	r3, r4, fp
    6ca4:	0a00002f 	beq	6d68 <BASIC$$Code+0x6d68>
    6ca8:	e4d43001 	ldrb	r3, [r4], #1
    6cac:	e35a005b 	cmp	sl, #91	; 0x5b
    6cb0:	33530025 	cmpcc	r3, #37	; 0x25
    6cb4:	0a000038 	beq	6d9c <BASIC$$Code+0x6d9c>
    6cb8:	e1b00001 	movs	r0, r1
    6cbc:	0a00003e 	beq	6dbc <BASIC$$Code+0x6dbc>
    6cc0:	e8b00022 	ldm	r0!, {r1, r5}
    6cc4:	e1a05465 	ror	r5, r5, #8
    6cc8:	e1330c25 	teq	r3, r5, lsr #24
    6ccc:	1afffff9 	bne	6cb8 <BASIC$$Code+0x6cb8>
    6cd0:	e134000b 	teq	r4, fp
    6cd4:	0a00001c 	beq	6d4c <BASIC$$Code+0x6d4c>
    6cd8:	e1a06004 	mov	r6, r4
    6cdc:	e1a05465 	ror	r5, r5, #8
    6ce0:	e4d62001 	ldrb	r2, [r6], #1
    6ce4:	e1320c25 	teq	r2, r5, lsr #24
    6ce8:	1afffff2 	bne	6cb8 <BASIC$$Code+0x6cb8>
    6cec:	e136000b 	teq	r6, fp
    6cf0:	0a000014 	beq	6d48 <BASIC$$Code+0x6d48>
    6cf4:	e1a05465 	ror	r5, r5, #8
    6cf8:	e4d62001 	ldrb	r2, [r6], #1
    6cfc:	e1320c25 	teq	r2, r5, lsr #24
    6d00:	1affffec 	bne	6cb8 <BASIC$$Code+0x6cb8>
    6d04:	e136000b 	teq	r6, fp
    6d08:	0a00000d 	beq	6d44 <BASIC$$Code+0x6d44>
    6d0c:	e1a05465 	ror	r5, r5, #8
    6d10:	e4d62001 	ldrb	r2, [r6], #1
    6d14:	e1320c25 	teq	r2, r5, lsr #24
    6d18:	1affffe6 	bne	6cb8 <BASIC$$Code+0x6cb8>
    6d1c:	e4905004 	ldr	r5, [r0], #4
    6d20:	e136000b 	teq	r6, fp
    6d24:	0a000009 	beq	6d50 <BASIC$$Code+0x6d50>
    6d28:	e1a05465 	ror	r5, r5, #8
    6d2c:	e4d62001 	ldrb	r2, [r6], #1
    6d30:	e1320c25 	teq	r2, r5, lsr #24
    6d34:	1affffdf 	bne	6cb8 <BASIC$$Code+0x6cb8>
    6d38:	e136000b 	teq	r6, fp
    6d3c:	1affffe6 	bne	6cdc <BASIC$$Code+0x6cdc>
    6d40:	e2400002 	sub	r0, r0, #2
    6d44:	e2800001 	add	r0, r0, #1
    6d48:	e2800001 	add	r0, r0, #1
    6d4c:	e2800001 	add	r0, r0, #1
    6d50:	e31500ff 	tst	r5, #255	; 0xff
    6d54:	1affffd7 	bne	6cb8 <BASIC$$Code+0x6cb8>
    6d58:	e3390004 	teq	r9, #4
    6d5c:	12400003 	subne	r0, r0, #3
    6d60:	03c00003 	biceq	r0, r0, #3
    6d64:	ea000006 	b	6d84 <BASIC$$Code+0x6d84>
    6d68:	e1b00001 	movs	r0, r1
    6d6c:	0a000012 	beq	6dbc <BASIC$$Code+0x6dbc>
    6d70:	e8b00022 	ldm	r0!, {r1, r5}
    6d74:	e31500ff 	tst	r5, #255	; 0xff
    6d78:	1afffffa 	bne	6d68 <BASIC$$Code+0x6d68>
    6d7c:	e3390004 	teq	r9, #4
    6d80:	12400003 	subne	r0, r0, #3
    6d84:	e5dba000 	ldrb	sl, [fp]
    6d88:	e33a0021 	teq	sl, #33	; 0x21
    6d8c:	0a00000d 	beq	6dc8 <BASIC$$Code+0x6dc8>
    6d90:	e23a103f 	eors	r1, sl, #63	; 0x3f
    6d94:	11a0f00e 	movne	pc, lr
    6d98:	ea00000b 	b	6dcc <BASIC$$Code+0x6dcc>
    6d9c:	e28800f4 	add	r0, r8, #244	; 0xf4
    6da0:	e24a1040 	sub	r1, sl, #64	; 0x40
    6da4:	e0800101 	add	r0, r0, r1, lsl #2
    6da8:	eafffff5 	b	6d84 <BASIC$$Code+0x6d84>
    6dac:	e35a007c 	cmp	sl, #124	; 0x7c
    6db0:	1a00001a 	bne	6e20 <BASIC$$Code+0x6e20>
    6db4:	e3a01005 	mov	r1, #5
    6db8:	ea000026 	b	6e58 <BASIC$$Code+0x6e58>
    6dbc:	e2900000 	adds	r0, r0, #0
    6dc0:	e1300000 	teq	r0, r0
    6dc4:	e1a0f00e 	mov	pc, lr
    6dc8:	e3a01004 	mov	r1, #4
    6dcc:	e92d4002 	push	{r1, lr}
    6dd0:	e28bb001 	add	fp, fp, #1
    6dd4:	eb0003ac 	bl	7c8c <BASIC$$Code+0x7c8c>
    6dd8:	eb0008bb 	bl	90cc <BASIC$$Code+0x90cc>
    6ddc:	e92d0001 	stmfd	sp!, {r0}
    6de0:	eb00023f 	bl	76e4 <BASIC$$Code+0x76e4>
    6de4:	eb0008b9 	bl	90d0 <BASIC$$Code+0x90d0>
    6de8:	e8bd0002 	ldmfd	sp!, {r1}
    6dec:	e0800001 	add	r0, r0, r1
    6df0:	e8bd4200 	pop	{r9, lr}
    6df4:	e3590006 	cmp	r9, #6
    6df8:	e1a0f00e 	mov	pc, lr
    6dfc:	e4db5001 	ldrb	r5, [fp], #1
    6e00:	e3550025 	cmp	r5, #37	; 0x25
    6e04:	1a00000f 	bne	6e48 <BASIC$$Code+0x6e48>
    6e08:	e5db0000 	ldrb	r0, [fp]
    6e0c:	e3500028 	cmp	r0, #40	; 0x28
    6e10:	0a00000c 	beq	6e48 <BASIC$$Code+0x6e48>
    6e14:	e3a09004 	mov	r9, #4
    6e18:	e28800f4 	add	r0, r8, #244	; 0xf4
    6e1c:	eaffffd8 	b	6d84 <BASIC$$Code+0x6d84>
    6e20:	0afffff5 	beq	6dfc <BASIC$$Code+0x6dfc>
    6e24:	e35a0021 	cmp	sl, #33	; 0x21
    6e28:	0a000009 	beq	6e54 <BASIC$$Code+0x6e54>
    6e2c:	e3a01081 	mov	r1, #129	; 0x81
    6e30:	e35a0024 	cmp	sl, #36	; 0x24
    6e34:	0a000007 	beq	6e58 <BASIC$$Code+0x6e58>
    6e38:	e23a103f 	eors	r1, sl, #63	; 0x3f
    6e3c:	0a000005 	beq	6e58 <BASIC$$Code+0x6e58>
    6e40:	e15a000a 	cmp	sl, sl
    6e44:	e1a0f00e 	mov	pc, lr
    6e48:	e24bb001 	sub	fp, fp, #1
    6e4c:	e15a000a 	cmp	sl, sl
    6e50:	e1a0f00e 	mov	pc, lr
    6e54:	e3a01004 	mov	r1, #4
    6e58:	e92d4002 	push	{r1, lr}
    6e5c:	eb000220 	bl	76e4 <BASIC$$Code+0x76e4>
    6e60:	eb00089a 	bl	90d0 <BASIC$$Code+0x90d0>
    6e64:	e8bd4200 	pop	{r9, lr}
    6e68:	e3590006 	cmp	r9, #6
    6e6c:	e1a0f00e 	mov	pc, lr
    6e70:	e4d43001 	ldrb	r3, [r4], #1
    6e74:	e7981101 	ldr	r1, [r8, r1, lsl #2]
    6e78:	e1b00001 	movs	r0, r1
    6e7c:	0a000015 	beq	6ed8 <BASIC$$Code+0x6ed8>
    6e80:	e8b00022 	ldm	r0!, {r1, r5}
    6e84:	e1a05465 	ror	r5, r5, #8
    6e88:	e1330c25 	teq	r3, r5, lsr #24
    6e8c:	1afffff9 	bne	6e78 <BASIC$$Code+0x6e78>
    6e90:	e21550ff 	ands	r5, r5, #255	; 0xff
    6e94:	0a000014 	beq	6eec <BASIC$$Code+0x6eec>
    6e98:	e134000b 	teq	r4, fp
    6e9c:	0afffff5 	beq	6e78 <BASIC$$Code+0x6e78>
    6ea0:	e5d46000 	ldrb	r6, [r4]
    6ea4:	e1360005 	teq	r6, r5
    6ea8:	1afffff2 	bne	6e78 <BASIC$$Code+0x6e78>
    6eac:	e1a02004 	mov	r2, r4
    6eb0:	e2400002 	sub	r0, r0, #2
    6eb4:	e5f26001 	ldrb	r6, [r2, #1]!
    6eb8:	e4d05001 	ldrb	r5, [r0], #1
    6ebc:	e1360005 	teq	r6, r5
    6ec0:	0afffffb 	beq	6eb4 <BASIC$$Code+0x6eb4>
    6ec4:	e3350000 	teq	r5, #0
    6ec8:	1affffea 	bne	6e78 <BASIC$$Code+0x6e78>
    6ecc:	e132000b 	teq	r2, fp
    6ed0:	1affffe8 	bne	6e78 <BASIC$$Code+0x6e78>
    6ed4:	ea000006 	b	6ef4 <BASIC$$Code+0x6ef4>
    6ed8:	e5db0000 	ldrb	r0, [fp]
    6edc:	e3500029 	cmp	r0, #41	; 0x29
    6ee0:	1a000f27 	bne	ab84 <BASIC$$Code+0xab84>
    6ee4:	e3899c01 	orr	r9, r9, #256	; 0x100
    6ee8:	eaffffb3 	b	6dbc <BASIC$$Code+0x6dbc>
    6eec:	e134000b 	teq	r4, fp
    6ef0:	1affffe0 	bne	6e78 <BASIC$$Code+0x6e78>
    6ef4:	e2800003 	add	r0, r0, #3
    6ef8:	e3c00003 	bic	r0, r0, #3
    6efc:	e5db1000 	ldrb	r1, [fp]
    6f00:	e3510029 	cmp	r1, #41	; 0x29
    6f04:	0a00002c 	beq	6fbc <BASIC$$Code+0x6fbc>
    6f08:	e5900000 	ldr	r0, [r0]
    6f0c:	e3500010 	cmp	r0, #16
    6f10:	3a000f2a 	bcc	abc0 <BASIC$$Code+0xabc0>
    6f14:	e92d4201 	push	{r0, r9, lr}
    6f18:	eb0000af 	bl	71dc <BASIC$$Code+0x71dc>
    6f1c:	eb00086b 	bl	90d0 <BASIC$$Code+0x90d0>
    6f20:	e8bd0010 	ldmfd	sp!, {r4}
    6f24:	e4943004 	ldr	r3, [r4], #4
    6f28:	e1500003 	cmp	r0, r3
    6f2c:	2a000f2a 	bcs	abdc <BASIC$$Code+0xabdc>
    6f30:	e35a0029 	cmp	sl, #41	; 0x29
    6f34:	0a000012 	beq	6f84 <BASIC$$Code+0x6f84>
    6f38:	e35a002c 	cmp	sl, #44	; 0x2c
    6f3c:	1a000f88 	bne	ad64 <BASIC$$Code+0xad64>
    6f40:	e3a05000 	mov	r5, #0
    6f44:	e0850000 	add	r0, r5, r0
    6f48:	e5946000 	ldr	r6, [r4]
    6f4c:	e0050096 	mul	r5, r6, r0
    6f50:	e92d0030 	push	{r4, r5}
    6f54:	eb0000a0 	bl	71dc <BASIC$$Code+0x71dc>
    6f58:	eb00085c 	bl	90d0 <BASIC$$Code+0x90d0>
    6f5c:	e8bd0030 	pop	{r4, r5}
    6f60:	e4943004 	ldr	r3, [r4], #4
    6f64:	e1500003 	cmp	r0, r3
    6f68:	2a000f1b 	bcs	abdc <BASIC$$Code+0xabdc>
    6f6c:	e35a002c 	cmp	sl, #44	; 0x2c
    6f70:	0afffff3 	beq	6f44 <BASIC$$Code+0x6f44>
    6f74:	e0855000 	add	r5, r5, r0
    6f78:	e35a0029 	cmp	sl, #41	; 0x29
    6f7c:	1a000f78 	bne	ad64 <BASIC$$Code+0xad64>
    6f80:	e1a00005 	mov	r0, r5
    6f84:	e4943008 	ldr	r3, [r4], #8
    6f88:	e3330000 	teq	r3, #0
    6f8c:	1a000f19 	bne	abf8 <BASIC$$Code+0xabf8>
    6f90:	e1a01100 	lsl	r1, r0, #2
    6f94:	e8bd4200 	pop	{r9, lr}
    6f98:	e3590005 	cmp	r9, #5
    6f9c:	20811000 	addcs	r1, r1, r0
    6fa0:	e0810004 	add	r0, r1, r4
    6fa4:	e5dba000 	ldrb	sl, [fp]
    6fa8:	e33a0021 	teq	sl, #33	; 0x21
    6fac:	0affff85 	beq	6dc8 <BASIC$$Code+0x6dc8>
    6fb0:	e23a103f 	eors	r1, sl, #63	; 0x3f
    6fb4:	11a0f00e 	movne	pc, lr
    6fb8:	eaffff83 	b	6dcc <BASIC$$Code+0x6dcc>
    6fbc:	e3999c01 	orrs	r9, r9, #256	; 0x100
    6fc0:	e28bb001 	add	fp, fp, #1
    6fc4:	e1a0f00e 	mov	pc, lr
    6fc8:	e3390000 	teq	r9, #0
    6fcc:	4a00000e 	bmi	700c <BASIC$$Code+0x700c>
    6fd0:	192d0001 	stmfdne	sp!, {r0}
    6fd4:	11a0f00e 	movne	pc, lr
    6fd8:	e2880c03 	add	r0, r8, #768	; 0x300
    6fdc:	e0521000 	subs	r1, r2, r0
    6fe0:	0a000007 	beq	7004 <BASIC$$Code+0x7004>
    6fe4:	e2811003 	add	r1, r1, #3
    6fe8:	e3c11003 	bic	r1, r1, #3
    6fec:	e04dd001 	sub	sp, sp, r1
    6ff0:	e1a0300d 	mov	r3, sp
    6ff4:	e4904004 	ldr	r4, [r0], #4
    6ff8:	e4834004 	str	r4, [r3], #4
    6ffc:	e2511004 	subs	r1, r1, #4
    7000:	1afffffb 	bne	6ff4 <BASIC$$Code+0x6ff4>
    7004:	e92d0004 	stmfd	sp!, {r2}
    7008:	e1a0f00e 	mov	pc, lr
    700c:	e1832001 	orr	r2, r3, r1
    7010:	e92d0005 	push	{r0, r2}
    7014:	e1a0f00e 	mov	pc, lr
    7018:	e8bd0200 	ldmfd	sp!, {r9}
    701c:	e3390000 	teq	r9, #0
    7020:	4a00000c 	bmi	7058 <BASIC$$Code+0x7058>
    7024:	18bd0001 	ldmfdne	sp!, {r0}
    7028:	11a0f00e 	movne	pc, lr
    702c:	e8bd0004 	ldmfd	sp!, {r2}
    7030:	e2880c03 	add	r0, r8, #768	; 0x300
    7034:	e0521000 	subs	r1, r2, r0
    7038:	01a0f00e 	moveq	pc, lr
    703c:	e2811003 	add	r1, r1, #3
    7040:	e3c11003 	bic	r1, r1, #3
    7044:	e49d3004 	pop	{r3}		; (ldr r3, [sp], #4)
    7048:	e4803004 	str	r3, [r0], #4
    704c:	e2511004 	subs	r1, r1, #4
    7050:	1afffffb 	bne	7044 <BASIC$$Code+0x7044>
    7054:	e1a0f00e 	mov	pc, lr
    7058:	e8bd0003 	pop	{r0, r1}
    705c:	e2013102 	and	r3, r1, #-2147483648	; 0x80000000
    7060:	e20110ff 	and	r1, r1, #255	; 0xff
    7064:	e3300000 	teq	r0, #0
    7068:	e1a0f00e 	mov	pc, lr
    706c:	e92d4000 	stmfd	sp!, {lr}
    7070:	eb000815 	bl	90cc <BASIC$$Code+0x90cc>
    7074:	e92d0001 	stmfd	sp!, {r0}
    7078:	eb000158 	bl	75e0 <BASIC$$Code+0x75e0>
    707c:	eb000812 	bl	90cc <BASIC$$Code+0x90cc>
    7080:	e8bd4010 	pop	{r4, lr}
    7084:	e0203004 	eor	r3, r0, r4
    7088:	e1b07004 	movs	r7, r4
    708c:	42644000 	rsbmi	r4, r4, #0
    7090:	e1b02000 	movs	r2, r0
    7094:	0a000ee8 	beq	ac3c <BASIC$$Code+0xac3c>
    7098:	42622000 	rsbmi	r2, r2, #0
    709c:	e1a06002 	mov	r6, r2
    70a0:	e3a00000 	mov	r0, #0
    70a4:	e15600a4 	cmp	r6, r4, lsr #1
    70a8:	91a06086 	lslls	r6, r6, #1
    70ac:	915600a4 	cmpls	r6, r4, lsr #1
    70b0:	9afffffc 	bls	70a8 <BASIC$$Code+0x70a8>
    70b4:	e1540006 	cmp	r4, r6
    70b8:	20444006 	subcs	r4, r4, r6
    70bc:	e0a00000 	adc	r0, r0, r0
    70c0:	e1a060a6 	lsr	r6, r6, #1
    70c4:	e1560002 	cmp	r6, r2
    70c8:	2afffff9 	bcs	70b4 <BASIC$$Code+0x70b4>
    70cc:	e3330000 	teq	r3, #0
    70d0:	42600000 	rsbmi	r0, r0, #0
    70d4:	e3370000 	teq	r7, #0
    70d8:	42644000 	rsbmi	r4, r4, #0
    70dc:	e1a0f00e 	mov	pc, lr
    70e0:	e3390000 	teq	r9, #0
    70e4:	0a000022 	beq	7174 <BASIC$$Code+0x7174>
    70e8:	4a00000f 	bmi	712c <BASIC$$Code+0x712c>
    70ec:	e92d4001 	push	{r0, lr}
    70f0:	eb0000a1 	bl	737c <BASIC$$Code+0x737c>
    70f4:	e3390000 	teq	r9, #0
    70f8:	0a000dc7 	beq	a81c <BASIC$$Code+0xa81c>
    70fc:	4a000003 	bmi	7110 <BASIC$$Code+0x7110>
    7100:	e8bd4002 	pop	{r1, lr}
    7104:	e1510000 	cmp	r1, r0
    7108:	e3e00000 	mvn	r0, #0
    710c:	e1a0f00e 	mov	pc, lr
    7110:	e8bd0010 	ldmfd	sp!, {r4}
    7114:	e92d000b 	push	{r0, r1, r3}
    7118:	e1a00004 	mov	r0, r4
    711c:	eb0007d3 	bl	9070 <BASIC$$Code+0x9070>
    7120:	eb000946 	bl	9640 <BASIC$$Code+0x9640>
    7124:	e8bd400b 	pop	{r0, r1, r3, lr}
    7128:	ea000004 	b	7140 <BASIC$$Code+0x7140>
    712c:	e92d400b 	push	{r0, r1, r3, lr}
    7130:	eb000091 	bl	737c <BASIC$$Code+0x737c>
    7134:	e3390000 	teq	r9, #0
    7138:	5b0007ca 	blpl	9068 <BASIC$$Code+0x9068>
    713c:	e8bd40b0 	pop	{r4, r5, r7, lr}
    7140:	e3a09101 	mov	r9, #1073741824	; 0x40000000
    7144:	e1570003 	cmp	r7, r3
    7148:	1affffee 	bne	7108 <BASIC$$Code+0x7108>
    714c:	e3330000 	teq	r3, #0
    7150:	4a000003 	bmi	7164 <BASIC$$Code+0x7164>
    7154:	e1550001 	cmp	r5, r1
    7158:	01540000 	cmpeq	r4, r0
    715c:	e3e00000 	mvn	r0, #0
    7160:	e1a0f00e 	mov	pc, lr
    7164:	e1510005 	cmp	r1, r5
    7168:	01500004 	cmpeq	r0, r4
    716c:	e3e00000 	mvn	r0, #0
    7170:	e1a0f00e 	mov	pc, lr
    7174:	e92d4000 	stmfd	sp!, {lr}
    7178:	ebffff96 	bl	6fd8 <BASIC$$Code+0x6fd8>
    717c:	eb00007e 	bl	737c <BASIC$$Code+0x737c>
    7180:	e3390000 	teq	r9, #0
    7184:	1a000db8 	bne	a86c <BASIC$$Code+0xa86c>
    7188:	e8bd0001 	ldmfd	sp!, {r0}
    718c:	e1a09002 	mov	r9, r2
    7190:	e1520000 	cmp	r2, r0
    7194:	21a02000 	movcs	r2, r0
    7198:	e2881c03 	add	r1, r8, #768	; 0x300
    719c:	e0403001 	sub	r3, r0, r1
    71a0:	e2833003 	add	r3, r3, #3
    71a4:	e3c33003 	bic	r3, r3, #3
    71a8:	e1a0500d 	mov	r5, sp
    71ac:	e1520001 	cmp	r2, r1
    71b0:	0a000003 	beq	71c4 <BASIC$$Code+0x71c4>
    71b4:	e4d16001 	ldrb	r6, [r1], #1
    71b8:	e4d57001 	ldrb	r7, [r5], #1
    71bc:	e1570006 	cmp	r7, r6
    71c0:	0afffff9 	beq	71ac <BASIC$$Code+0x71ac>
    71c4:	01500009 	cmpeq	r0, r9
    71c8:	e08dd003 	add	sp, sp, r3
    71cc:	e3e00000 	mvn	r0, #0
    71d0:	e3a09101 	mov	r9, #1073741824	; 0x40000000
    71d4:	e8bd8000 	ldmfd	sp!, {pc}
    71d8:	e1a0b00c 	mov	fp, ip
    71dc:	e1a0500e 	mov	r5, lr
    71e0:	eb000022 	bl	7270 <BASIC$$Code+0x7270>
    71e4:	e35a0080 	cmp	sl, #128	; 0x80
    71e8:	0a000004 	beq	7200 <BASIC$$Code+0x7200>
    71ec:	e35a0084 	cmp	sl, #132	; 0x84
    71f0:	333a0082 	teqcc	sl, #130	; 0x82
    71f4:	0a000008 	beq	721c <BASIC$$Code+0x721c>
    71f8:	e3390000 	teq	r9, #0
    71fc:	e1a0f005 	mov	pc, r5
    7200:	eb0007b1 	bl	90cc <BASIC$$Code+0x90cc>
    7204:	e92d0001 	stmfd	sp!, {r0}
    7208:	eb000018 	bl	7270 <BASIC$$Code+0x7270>
    720c:	eb0007ae 	bl	90cc <BASIC$$Code+0x90cc>
    7210:	e8bd0002 	ldmfd	sp!, {r1}
    7214:	e0010000 	and	r0, r1, r0
    7218:	eafffff1 	b	71e4 <BASIC$$Code+0x71e4>
    721c:	3a000002 	bcc	722c <BASIC$$Code+0x722c>
    7220:	eb000004 	bl	7238 <BASIC$$Code+0x7238>
    7224:	e1810000 	orr	r0, r1, r0
    7228:	eaffffef 	b	71ec <BASIC$$Code+0x71ec>
    722c:	eb000001 	bl	7238 <BASIC$$Code+0x7238>
    7230:	e0210000 	eor	r0, r1, r0
    7234:	eaffffec 	b	71ec <BASIC$$Code+0x71ec>
    7238:	e1a0600e 	mov	r6, lr
    723c:	eb0007a2 	bl	90cc <BASIC$$Code+0x90cc>
    7240:	e92d0001 	stmfd	sp!, {r0}
    7244:	eb000009 	bl	7270 <BASIC$$Code+0x7270>
    7248:	eb00079f 	bl	90cc <BASIC$$Code+0x90cc>
    724c:	e35a0080 	cmp	sl, #128	; 0x80
    7250:	18bd0002 	ldmfdne	sp!, {r1}
    7254:	11a0f006 	movne	pc, r6
    7258:	e92d0001 	stmfd	sp!, {r0}
    725c:	eb000003 	bl	7270 <BASIC$$Code+0x7270>
    7260:	eb000799 	bl	90cc <BASIC$$Code+0x90cc>
    7264:	e8bd0002 	ldmfd	sp!, {r1}
    7268:	e0010000 	and	r0, r1, r0
    726c:	eafffff5 	b	7248 <BASIC$$Code+0x7248>
    7270:	e92d4060 	push	{r5, r6, lr}
    7274:	eb000098 	bl	74dc <BASIC$$Code+0x74dc>
    7278:	e35a002d 	cmp	sl, #45	; 0x2d
    727c:	333a002b 	teqcc	sl, #43	; 0x2b
    7280:	0b000057 	bleq	73e4 <BASIC$$Code+0x73e4>
    7284:	e35a003c 	cmp	sl, #60	; 0x3c
    7288:	38bd8060 	popcc	{r5, r6, pc}
    728c:	0a000006 	beq	72ac <BASIC$$Code+0x72ac>
    7290:	e35a003e 	cmp	sl, #62	; 0x3e
    7294:	88bd8060 	pophi	{r5, r6, pc}
    7298:	0a00002b 	beq	734c <BASIC$$Code+0x734c>
    729c:	ebffff8f 	bl	70e0 <BASIC$$Code+0x70e0>
    72a0:	08bd8060 	popeq	{r5, r6, pc}
    72a4:	e3a00000 	mov	r0, #0
    72a8:	e8bd8060 	pop	{r5, r6, pc}
    72ac:	e4dba001 	ldrb	sl, [fp], #1
    72b0:	e35a003d 	cmp	sl, #61	; 0x3d
    72b4:	0a00001e 	beq	7334 <BASIC$$Code+0x7334>
    72b8:	e35a003e 	cmp	sl, #62	; 0x3e
    72bc:	0a00001f 	beq	7340 <BASIC$$Code+0x7340>
    72c0:	e35a003c 	cmp	sl, #60	; 0x3c
    72c4:	0a000003 	beq	72d8 <BASIC$$Code+0x72d8>
    72c8:	e24bb001 	sub	fp, fp, #1
    72cc:	ebffff83 	bl	70e0 <BASIC$$Code+0x70e0>
    72d0:	b8bd8060 	poplt	{r5, r6, pc}
    72d4:	eafffff2 	b	72a4 <BASIC$$Code+0x72a4>
    72d8:	eb00077b 	bl	90cc <BASIC$$Code+0x90cc>
    72dc:	e92d0001 	stmfd	sp!, {r0}
    72e0:	eb000025 	bl	737c <BASIC$$Code+0x737c>
    72e4:	eb000778 	bl	90cc <BASIC$$Code+0x90cc>
    72e8:	e8bd0002 	ldmfd	sp!, {r1}
    72ec:	e1a00011 	lsl	r0, r1, r0
    72f0:	e8bd8060 	pop	{r5, r6, pc}
    72f4:	eb000774 	bl	90cc <BASIC$$Code+0x90cc>
    72f8:	e92d0001 	stmfd	sp!, {r0}
    72fc:	e4dba001 	ldrb	sl, [fp], #1
    7300:	e35a003e 	cmp	sl, #62	; 0x3e
    7304:	0a000005 	beq	7320 <BASIC$$Code+0x7320>
    7308:	e24bb001 	sub	fp, fp, #1
    730c:	eb00001a 	bl	737c <BASIC$$Code+0x737c>
    7310:	eb00076d 	bl	90cc <BASIC$$Code+0x90cc>
    7314:	e8bd0002 	ldmfd	sp!, {r1}
    7318:	e1a00051 	asr	r0, r1, r0
    731c:	e8bd8060 	pop	{r5, r6, pc}
    7320:	eb000015 	bl	737c <BASIC$$Code+0x737c>
    7324:	eb000768 	bl	90cc <BASIC$$Code+0x90cc>
    7328:	e8bd0002 	ldmfd	sp!, {r1}
    732c:	e1a00031 	lsr	r0, r1, r0
    7330:	e8bd8060 	pop	{r5, r6, pc}
    7334:	ebffff69 	bl	70e0 <BASIC$$Code+0x70e0>
    7338:	d8bd8060 	pople	{r5, r6, pc}
    733c:	eaffffd8 	b	72a4 <BASIC$$Code+0x72a4>
    7340:	ebffff66 	bl	70e0 <BASIC$$Code+0x70e0>
    7344:	18bd8060 	popne	{r5, r6, pc}
    7348:	eaffffd5 	b	72a4 <BASIC$$Code+0x72a4>
    734c:	e4dba001 	ldrb	sl, [fp], #1
    7350:	e35a003d 	cmp	sl, #61	; 0x3d
    7354:	0a000005 	beq	7370 <BASIC$$Code+0x7370>
    7358:	e35a003e 	cmp	sl, #62	; 0x3e
    735c:	0affffe4 	beq	72f4 <BASIC$$Code+0x72f4>
    7360:	e24bb001 	sub	fp, fp, #1
    7364:	ebffff5d 	bl	70e0 <BASIC$$Code+0x70e0>
    7368:	c8bd8060 	popgt	{r5, r6, pc}
    736c:	eaffffcc 	b	72a4 <BASIC$$Code+0x72a4>
    7370:	ebffff5a 	bl	70e0 <BASIC$$Code+0x70e0>
    7374:	a8bd8060 	popge	{r5, r6, pc}
    7378:	eaffffc9 	b	72a4 <BASIC$$Code+0x72a4>
    737c:	e92d4000 	stmfd	sp!, {lr}
    7380:	eb000055 	bl	74dc <BASIC$$Code+0x74dc>
    7384:	e35a002d 	cmp	sl, #45	; 0x2d
    7388:	333a002b 	teqcc	sl, #43	; 0x2b
    738c:	18bd8000 	ldmfdne	sp!, {pc}
    7390:	3a000015 	bcc	73ec <BASIC$$Code+0x73ec>
    7394:	e3390000 	teq	r9, #0
    7398:	0a000d1f 	beq	a81c <BASIC$$Code+0xa81c>
    739c:	4a00000a 	bmi	73cc <BASIC$$Code+0x73cc>
    73a0:	e92d0001 	stmfd	sp!, {r0}
    73a4:	eb00004c 	bl	74dc <BASIC$$Code+0x74dc>
    73a8:	e3390000 	teq	r9, #0
    73ac:	0a000d1a 	beq	a81c <BASIC$$Code+0xa81c>
    73b0:	4a000002 	bmi	73c0 <BASIC$$Code+0x73c0>
    73b4:	e8bd0002 	ldmfd	sp!, {r1}
    73b8:	e0410000 	sub	r0, r1, r0
    73bc:	eafffff0 	b	7384 <BASIC$$Code+0x7384>
    73c0:	e3300000 	teq	r0, #0
    73c4:	12233102 	eorne	r3, r3, #-2147483648	; 0x80000000
    73c8:	ea000012 	b	7418 <BASIC$$Code+0x7418>
    73cc:	e92d000b 	push	{r0, r1, r3}
    73d0:	eb000041 	bl	74dc <BASIC$$Code+0x74dc>
    73d4:	eb000721 	bl	9060 <BASIC$$Code+0x9060>
    73d8:	e3300000 	teq	r0, #0
    73dc:	12233102 	eorne	r3, r3, #-2147483648	; 0x80000000
    73e0:	ea000014 	b	7438 <BASIC$$Code+0x7438>
    73e4:	e92d4000 	stmfd	sp!, {lr}
    73e8:	2affffe9 	bcs	7394 <BASIC$$Code+0x7394>
    73ec:	e3390000 	teq	r9, #0
    73f0:	0a000014 	beq	7448 <BASIC$$Code+0x7448>
    73f4:	4a00000c 	bmi	742c <BASIC$$Code+0x742c>
    73f8:	e92d0001 	stmfd	sp!, {r0}
    73fc:	eb000036 	bl	74dc <BASIC$$Code+0x74dc>
    7400:	e3390000 	teq	r9, #0
    7404:	0a000d04 	beq	a81c <BASIC$$Code+0xa81c>
    7408:	4a000002 	bmi	7418 <BASIC$$Code+0x7418>
    740c:	e8bd0002 	ldmfd	sp!, {r1}
    7410:	e0800001 	add	r0, r0, r1
    7414:	eaffffda 	b	7384 <BASIC$$Code+0x7384>
    7418:	e8bd0010 	ldmfd	sp!, {r4}
    741c:	e92d000b 	push	{r0, r1, r3}
    7420:	e1a00004 	mov	r0, r4
    7424:	eb000711 	bl	9070 <BASIC$$Code+0x9070>
    7428:	ea000002 	b	7438 <BASIC$$Code+0x7438>
    742c:	e92d000b 	push	{r0, r1, r3}
    7430:	eb000029 	bl	74dc <BASIC$$Code+0x74dc>
    7434:	eb000709 	bl	9060 <BASIC$$Code+0x9060>
    7438:	e8bd00b0 	pop	{r4, r5, r7}
    743c:	e3340000 	teq	r4, #0
    7440:	1b0007fe 	blne	9440 <BASIC$$Code+0x9440>
    7444:	eaffffce 	b	7384 <BASIC$$Code+0x7384>
    7448:	ebfffee2 	bl	6fd8 <BASIC$$Code+0x6fd8>
    744c:	eb000022 	bl	74dc <BASIC$$Code+0x74dc>
    7450:	e3390000 	teq	r9, #0
    7454:	1a000d04 	bne	a86c <BASIC$$Code+0xa86c>
    7458:	e8bd0080 	ldmfd	sp!, {r7}
    745c:	e2883c03 	add	r3, r8, #768	; 0x300
    7460:	e0577003 	subs	r7, r7, r3
    7464:	0affffc6 	beq	7384 <BASIC$$Code+0x7384>
    7468:	e0876002 	add	r6, r7, r2
    746c:	e2834c01 	add	r4, r3, #256	; 0x100
    7470:	e1560004 	cmp	r6, r4
    7474:	2a000df6 	bcs	ac54 <BASIC$$Code+0xac54>
    7478:	e1a04006 	mov	r4, r6
    747c:	e1520003 	cmp	r2, r3
    7480:	0a000002 	beq	7490 <BASIC$$Code+0x7490>
    7484:	e5720001 	ldrb	r0, [r2, #-1]!
    7488:	e5640001 	strb	r0, [r4, #-1]!
    748c:	eafffffa 	b	747c <BASIC$$Code+0x747c>
    7490:	e2577004 	subs	r7, r7, #4
    7494:	3a000002 	bcc	74a4 <BASIC$$Code+0x74a4>
    7498:	e49d0004 	pop	{r0}		; (ldr r0, [sp], #4)
    749c:	e4830004 	str	r0, [r3], #4
    74a0:	eafffffa 	b	7490 <BASIC$$Code+0x7490>
    74a4:	e1a02006 	mov	r2, r6
    74a8:	e3770004 	cmn	r7, #4
    74ac:	0affffb4 	beq	7384 <BASIC$$Code+0x7384>
    74b0:	e49d0004 	pop	{r0}		; (ldr r0, [sp], #4)
    74b4:	e4c30001 	strb	r0, [r3], #1
    74b8:	e3770003 	cmn	r7, #3
    74bc:	0affffb0 	beq	7384 <BASIC$$Code+0x7384>
    74c0:	e1a00420 	lsr	r0, r0, #8
    74c4:	e4c30001 	strb	r0, [r3], #1
    74c8:	e3770002 	cmn	r7, #2
    74cc:	0affffac 	beq	7384 <BASIC$$Code+0x7384>
    74d0:	e1a00420 	lsr	r0, r0, #8
    74d4:	e4c30001 	strb	r0, [r3], #1
    74d8:	eaffffa9 	b	7384 <BASIC$$Code+0x7384>
    74dc:	e92d4000 	stmfd	sp!, {lr}
    74e0:	eb00007f 	bl	76e4 <BASIC$$Code+0x76e4>
    74e4:	e4dba001 	ldrb	sl, [fp], #1
    74e8:	e35a0020 	cmp	sl, #32
    74ec:	0afffffc 	beq	74e4 <BASIC$$Code+0x74e4>
    74f0:	e35a005e 	cmp	sl, #94	; 0x5e
    74f4:	0b000037 	bleq	75d8 <BASIC$$Code+0x75d8>
    74f8:	e35a002f 	cmp	sl, #47	; 0x2f
    74fc:	333a002a 	teqcc	sl, #42	; 0x2a
    7500:	0a000011 	beq	754c <BASIC$$Code+0x754c>
    7504:	e35a0083 	cmp	sl, #131	; 0x83
    7508:	333a0081 	teqcc	sl, #129	; 0x81
    750c:	18bd8000 	ldmfdne	sp!, {pc}
    7510:	2a000001 	bcs	751c <BASIC$$Code+0x751c>
    7514:	ebfffed4 	bl	706c <BASIC$$Code+0x706c>
    7518:	eafffff6 	b	74f8 <BASIC$$Code+0x74f8>
    751c:	ebfffed2 	bl	706c <BASIC$$Code+0x706c>
    7520:	e1a00004 	mov	r0, r4
    7524:	eafffff3 	b	74f8 <BASIC$$Code+0x74f8>
    7528:	eb0006cc 	bl	9060 <BASIC$$Code+0x9060>
    752c:	ebfffeb6 	bl	700c <BASIC$$Code+0x700c>
    7530:	eb00002a 	bl	75e0 <BASIC$$Code+0x75e0>
    7534:	eb0006c9 	bl	9060 <BASIC$$Code+0x9060>
    7538:	e1a0900d 	mov	r9, sp
    753c:	eb000768 	bl	92e4 <BASIC$$Code+0x92e4>
    7540:	e28dd008 	add	sp, sp, #8
    7544:	e3a09102 	mov	r9, #-2147483648	; 0x80000000
    7548:	eaffffea 	b	74f8 <BASIC$$Code+0x74f8>
    754c:	2afffff5 	bcs	7528 <BASIC$$Code+0x7528>
    7550:	e3390000 	teq	r9, #0
    7554:	0a000cb0 	beq	a81c <BASIC$$Code+0xa81c>
    7558:	4a000016 	bmi	75b8 <BASIC$$Code+0x75b8>
    755c:	e3500902 	cmp	r0, #32768	; 0x8000
    7560:	aa000013 	bge	75b4 <BASIC$$Code+0x75b4>
    7564:	e3700902 	cmn	r0, #32768	; 0x8000
    7568:	da000011 	ble	75b4 <BASIC$$Code+0x75b4>
    756c:	e92d0001 	stmfd	sp!, {r0}
    7570:	eb00001a 	bl	75e0 <BASIC$$Code+0x75e0>
    7574:	e3390000 	teq	r9, #0
    7578:	0a000ca7 	beq	a81c <BASIC$$Code+0xa81c>
    757c:	4a000007 	bmi	75a0 <BASIC$$Code+0x75a0>
    7580:	e3500902 	cmp	r0, #32768	; 0x8000
    7584:	aa000004 	bge	759c <BASIC$$Code+0x759c>
    7588:	e3700902 	cmn	r0, #32768	; 0x8000
    758c:	da000002 	ble	759c <BASIC$$Code+0x759c>
    7590:	e8bd0010 	ldmfd	sp!, {r4}
    7594:	e0000094 	mul	r0, r4, r0
    7598:	eaffffd6 	b	74f8 <BASIC$$Code+0x74f8>
    759c:	eb0006b2 	bl	906c <BASIC$$Code+0x906c>
    75a0:	e8bd0010 	ldmfd	sp!, {r4}
    75a4:	ebfffe98 	bl	700c <BASIC$$Code+0x700c>
    75a8:	e1a00004 	mov	r0, r4
    75ac:	eb0006af 	bl	9070 <BASIC$$Code+0x9070>
    75b0:	ea000003 	b	75c4 <BASIC$$Code+0x75c4>
    75b4:	eb0006ad 	bl	9070 <BASIC$$Code+0x9070>
    75b8:	ebfffe93 	bl	700c <BASIC$$Code+0x700c>
    75bc:	eb000007 	bl	75e0 <BASIC$$Code+0x75e0>
    75c0:	eb0006a6 	bl	9060 <BASIC$$Code+0x9060>
    75c4:	e1a0900d 	mov	r9, sp
    75c8:	eb00070b 	bl	91fc <BASIC$$Code+0x91fc>
    75cc:	e28dd008 	add	sp, sp, #8
    75d0:	e3a09102 	mov	r9, #-2147483648	; 0x80000000
    75d4:	eaffffc7 	b	74f8 <BASIC$$Code+0x74f8>
    75d8:	e92d4000 	stmfd	sp!, {lr}
    75dc:	ea000006 	b	75fc <BASIC$$Code+0x75fc>
    75e0:	e92d4000 	stmfd	sp!, {lr}
    75e4:	eb00003e 	bl	76e4 <BASIC$$Code+0x76e4>
    75e8:	e4dba001 	ldrb	sl, [fp], #1
    75ec:	e35a0020 	cmp	sl, #32
    75f0:	0afffffc 	beq	75e8 <BASIC$$Code+0x75e8>
    75f4:	e35a005e 	cmp	sl, #94	; 0x5e
    75f8:	18bd8000 	ldmfdne	sp!, {pc}
    75fc:	eb000697 	bl	9060 <BASIC$$Code+0x9060>
    7600:	ebfffe81 	bl	700c <BASIC$$Code+0x700c>
    7604:	eb000036 	bl	76e4 <BASIC$$Code+0x76e4>
    7608:	0a000c83 	beq	a81c <BASIC$$Code+0xa81c>
    760c:	5a00000b 	bpl	7640 <BASIC$$Code+0x7640>
    7610:	e3510087 	cmp	r1, #135	; 0x87
    7614:	2a00000d 	bcs	7650 <BASIC$$Code+0x7650>
    7618:	eb0006c2 	bl	9128 <BASIC$$Code+0x9128>
    761c:	e3300000 	teq	r0, #0
    7620:	1a00000d 	bne	765c <BASIC$$Code+0x765c>
    7624:	e1a0900d 	mov	r9, sp
    7628:	eb000930 	bl	9af0 <BASIC$$Code+0x9af0>
    762c:	e1a09006 	mov	r9, r6
    7630:	eb000824 	bl	96c8 <BASIC$$Code+0x96c8>
    7634:	e28dd008 	add	sp, sp, #8
    7638:	e3a09102 	mov	r9, #-2147483648	; 0x80000000
    763c:	eaffffe9 	b	75e8 <BASIC$$Code+0x75e8>
    7640:	e3500040 	cmp	r0, #64	; 0x40
    7644:	e1a06000 	mov	r6, r0
    7648:	3afffff5 	bcc	7624 <BASIC$$Code+0x7624>
    764c:	eb000686 	bl	906c <BASIC$$Code+0x906c>
    7650:	ebfffe6d 	bl	700c <BASIC$$Code+0x700c>
    7654:	eb0007f0 	bl	961c <BASIC$$Code+0x961c>
    7658:	ea000004 	b	7670 <BASIC$$Code+0x7670>
    765c:	ebfffe6a 	bl	700c <BASIC$$Code+0x700c>
    7660:	e28d9008 	add	r9, sp, #8
    7664:	eb000921 	bl	9af0 <BASIC$$Code+0x9af0>
    7668:	e1a09006 	mov	r9, r6
    766c:	eb000815 	bl	96c8 <BASIC$$Code+0x96c8>
    7670:	ebfffe65 	bl	700c <BASIC$$Code+0x700c>
    7674:	e28d9010 	add	r9, sp, #16
    7678:	eb00091c 	bl	9af0 <BASIC$$Code+0x9af0>
    767c:	eb0008bb 	bl	9970 <BASIC$$Code+0x9970>
    7680:	e28d9008 	add	r9, sp, #8
    7684:	eb0006dc 	bl	91fc <BASIC$$Code+0x91fc>
    7688:	eb000862 	bl	9818 <BASIC$$Code+0x9818>
    768c:	e1a0900d 	mov	r9, sp
    7690:	eb0006d9 	bl	91fc <BASIC$$Code+0x91fc>
    7694:	e28dd018 	add	sp, sp, #24
    7698:	e3a09102 	mov	r9, #-2147483648	; 0x80000000
    769c:	eaffffd1 	b	75e8 <BASIC$$Code+0x75e8>
    76a0:	e1a0b00c 	mov	fp, ip
    76a4:	e4dba001 	ldrb	sl, [fp], #1
    76a8:	e35a0020 	cmp	sl, #32
    76ac:	0afffffc 	beq	76a4 <BASIC$$Code+0x76a4>
    76b0:	e35a0023 	cmp	sl, #35	; 0x23
    76b4:	1a000e39 	bne	afa0 <BASIC$$Code+0xafa0>
    76b8:	e92d4000 	stmfd	sp!, {lr}
    76bc:	eb000008 	bl	76e4 <BASIC$$Code+0x76e4>
    76c0:	eb000682 	bl	90d0 <BASIC$$Code+0x90d0>
    76c4:	e1a01000 	mov	r1, r0
    76c8:	e8bd8000 	ldmfd	sp!, {pc}
    76cc:	0a000141 	beq	7bd8 <BASIC$$Code+0x7bd8>
    76d0:	e35a0022 	cmp	sl, #34	; 0x22
    76d4:	0a000156 	beq	7c34 <BASIC$$Code+0x7c34>
    76d8:	e35a002b 	cmp	sl, #43	; 0x2b
    76dc:	04dba001 	ldrbeq	sl, [fp], #1
    76e0:	ea000004 	b	76f8 <BASIC$$Code+0x76f8>
    76e4:	e4dba001 	ldrb	sl, [fp], #1
    76e8:	e35a0020 	cmp	sl, #32
    76ec:	0afffffc 	beq	76e4 <BASIC$$Code+0x76e4>
    76f0:	e35a002d 	cmp	sl, #45	; 0x2d
    76f4:	dafffff4 	ble	76cc <BASIC$$Code+0x76cc>
    76f8:	e79f410a 	ldr	r4, [pc, sl, lsl #2]
    76fc:	e08ff004 	add	pc, pc, r4
    7700:	00003618 	andeq	r3, r0, r8, lsl r6
    7704:	00003618 	andeq	r3, r0, r8, lsl r6
    7708:	00003618 	andeq	r3, r0, r8, lsl r6
    770c:	00003618 	andeq	r3, r0, r8, lsl r6
    7710:	00003618 	andeq	r3, r0, r8, lsl r6
    7714:	00003618 	andeq	r3, r0, r8, lsl r6
    7718:	00003618 	andeq	r3, r0, r8, lsl r6
    771c:	00003618 	andeq	r3, r0, r8, lsl r6
    7720:	00003618 	andeq	r3, r0, r8, lsl r6
    7724:	00003618 	andeq	r3, r0, r8, lsl r6
    7728:	00003618 	andeq	r3, r0, r8, lsl r6
    772c:	00003618 	andeq	r3, r0, r8, lsl r6
    7730:	00003618 	andeq	r3, r0, r8, lsl r6
    7734:	00003618 	andeq	r3, r0, r8, lsl r6
    7738:	00003618 	andeq	r3, r0, r8, lsl r6
    773c:	00003618 	andeq	r3, r0, r8, lsl r6
    7740:	00003618 	andeq	r3, r0, r8, lsl r6
    7744:	00003618 	andeq	r3, r0, r8, lsl r6
    7748:	00003618 	andeq	r3, r0, r8, lsl r6
    774c:	00003618 	andeq	r3, r0, r8, lsl r6
    7750:	00003618 	andeq	r3, r0, r8, lsl r6
    7754:	00003618 	andeq	r3, r0, r8, lsl r6
    7758:	00003618 	andeq	r3, r0, r8, lsl r6
    775c:	00003618 	andeq	r3, r0, r8, lsl r6
    7760:	00003618 	andeq	r3, r0, r8, lsl r6
    7764:	00003618 	andeq	r3, r0, r8, lsl r6
    7768:	00003618 	andeq	r3, r0, r8, lsl r6
    776c:	00003618 	andeq	r3, r0, r8, lsl r6
    7770:	00003618 	andeq	r3, r0, r8, lsl r6
    7774:	00003618 	andeq	r3, r0, r8, lsl r6
    7778:	00003618 	andeq	r3, r0, r8, lsl r6
    777c:	00003618 	andeq	r3, r0, r8, lsl r6
    7780:	ffffffd8 			; <UNDEFINED> instruction: 0xffffffd8
    7784:	00000578 	andeq	r0, r0, r8, ror r5
    7788:	00003618 	andeq	r3, r0, r8, lsl r6
    778c:	00003618 	andeq	r3, r0, r8, lsl r6
    7790:	00000578 	andeq	r0, r0, r8, ror r5
    7794:	00000724 	andeq	r0, r0, r4, lsr #14
    7798:	000006b8 			; <UNDEFINED> instruction: 0x000006b8
    779c:	00003618 	andeq	r3, r0, r8, lsl r6
    77a0:	000006a0 	andeq	r0, r0, r0, lsr #13
    77a4:	00003618 	andeq	r3, r0, r8, lsl r6
    77a8:	00003618 	andeq	r3, r0, r8, lsl r6
    77ac:	00003618 	andeq	r3, r0, r8, lsl r6
    77b0:	00003618 	andeq	r3, r0, r8, lsl r6
    77b4:	00003618 	andeq	r3, r0, r8, lsl r6
    77b8:	00000690 	muleq	r0, r0, r6
    77bc:	00003618 	andeq	r3, r0, r8, lsl r6
    77c0:	00000690 	muleq	r0, r0, r6
    77c4:	00000690 	muleq	r0, r0, r6
    77c8:	00000690 	muleq	r0, r0, r6
    77cc:	00000690 	muleq	r0, r0, r6
    77d0:	00000690 	muleq	r0, r0, r6
    77d4:	00000690 	muleq	r0, r0, r6
    77d8:	00000690 	muleq	r0, r0, r6
    77dc:	00000690 	muleq	r0, r0, r6
    77e0:	00000690 	muleq	r0, r0, r6
    77e4:	00000690 	muleq	r0, r0, r6
    77e8:	00003618 	andeq	r3, r0, r8, lsl r6
    77ec:	00003618 	andeq	r3, r0, r8, lsl r6
    77f0:	00003618 	andeq	r3, r0, r8, lsl r6
    77f4:	00003618 	andeq	r3, r0, r8, lsl r6
    77f8:	00003618 	andeq	r3, r0, r8, lsl r6
    77fc:	00000578 	andeq	r0, r0, r8, ror r5
    7800:	00000578 	andeq	r0, r0, r8, ror r5
    7804:	00000578 	andeq	r0, r0, r8, ror r5
    7808:	00000578 	andeq	r0, r0, r8, ror r5
    780c:	00000578 	andeq	r0, r0, r8, ror r5
    7810:	00000578 	andeq	r0, r0, r8, ror r5
    7814:	00000578 	andeq	r0, r0, r8, ror r5
    7818:	00000578 	andeq	r0, r0, r8, ror r5
    781c:	00000578 	andeq	r0, r0, r8, ror r5
    7820:	00000578 	andeq	r0, r0, r8, ror r5
    7824:	00000578 	andeq	r0, r0, r8, ror r5
    7828:	00000578 	andeq	r0, r0, r8, ror r5
    782c:	00000578 	andeq	r0, r0, r8, ror r5
    7830:	00000578 	andeq	r0, r0, r8, ror r5
    7834:	00000578 	andeq	r0, r0, r8, ror r5
    7838:	00000578 	andeq	r0, r0, r8, ror r5
    783c:	00000578 	andeq	r0, r0, r8, ror r5
    7840:	00000578 	andeq	r0, r0, r8, ror r5
    7844:	00000578 	andeq	r0, r0, r8, ror r5
    7848:	00000578 	andeq	r0, r0, r8, ror r5
    784c:	00000578 	andeq	r0, r0, r8, ror r5
    7850:	00000578 	andeq	r0, r0, r8, ror r5
    7854:	00000578 	andeq	r0, r0, r8, ror r5
    7858:	00000578 	andeq	r0, r0, r8, ror r5
    785c:	00000578 	andeq	r0, r0, r8, ror r5
    7860:	00000578 	andeq	r0, r0, r8, ror r5
    7864:	00000578 	andeq	r0, r0, r8, ror r5
    7868:	00000578 	andeq	r0, r0, r8, ror r5
    786c:	00003618 	andeq	r3, r0, r8, lsl r6
    7870:	00003618 	andeq	r3, r0, r8, lsl r6
    7874:	00003618 	andeq	r3, r0, r8, lsl r6
    7878:	00003618 	andeq	r3, r0, r8, lsl r6
    787c:	00000578 	andeq	r0, r0, r8, ror r5
    7880:	00000578 	andeq	r0, r0, r8, ror r5
    7884:	00000578 	andeq	r0, r0, r8, ror r5
    7888:	00000578 	andeq	r0, r0, r8, ror r5
    788c:	00000578 	andeq	r0, r0, r8, ror r5
    7890:	00000578 	andeq	r0, r0, r8, ror r5
    7894:	00000578 	andeq	r0, r0, r8, ror r5
    7898:	00000578 	andeq	r0, r0, r8, ror r5
    789c:	00000578 	andeq	r0, r0, r8, ror r5
    78a0:	00000578 	andeq	r0, r0, r8, ror r5
    78a4:	00000578 	andeq	r0, r0, r8, ror r5
    78a8:	00000578 	andeq	r0, r0, r8, ror r5
    78ac:	00000578 	andeq	r0, r0, r8, ror r5
    78b0:	00000578 	andeq	r0, r0, r8, ror r5
    78b4:	00000578 	andeq	r0, r0, r8, ror r5
    78b8:	00000578 	andeq	r0, r0, r8, ror r5
    78bc:	00000578 	andeq	r0, r0, r8, ror r5
    78c0:	00000578 	andeq	r0, r0, r8, ror r5
    78c4:	00000578 	andeq	r0, r0, r8, ror r5
    78c8:	00000578 	andeq	r0, r0, r8, ror r5
    78cc:	00000578 	andeq	r0, r0, r8, ror r5
    78d0:	00000578 	andeq	r0, r0, r8, ror r5
    78d4:	00000578 	andeq	r0, r0, r8, ror r5
    78d8:	00000578 	andeq	r0, r0, r8, ror r5
    78dc:	00000578 	andeq	r0, r0, r8, ror r5
    78e0:	00000578 	andeq	r0, r0, r8, ror r5
    78e4:	00000578 	andeq	r0, r0, r8, ror r5
    78e8:	00000578 	andeq	r0, r0, r8, ror r5
    78ec:	00003618 	andeq	r3, r0, r8, lsl r6
    78f0:	00000578 	andeq	r0, r0, r8, ror r5
    78f4:	00003618 	andeq	r3, r0, r8, lsl r6
    78f8:	00003618 	andeq	r3, r0, r8, lsl r6
    78fc:	00003618 	andeq	r3, r0, r8, lsl r6
    7900:	00003618 	andeq	r3, r0, r8, lsl r6
    7904:	00003618 	andeq	r3, r0, r8, lsl r6
    7908:	00003618 	andeq	r3, r0, r8, lsl r6
    790c:	00003618 	andeq	r3, r0, r8, lsl r6
    7910:	00003618 	andeq	r3, r0, r8, lsl r6
    7914:	00003618 	andeq	r3, r0, r8, lsl r6
    7918:	00003618 	andeq	r3, r0, r8, lsl r6
    791c:	00003618 	andeq	r3, r0, r8, lsl r6
    7920:	00003618 	andeq	r3, r0, r8, lsl r6
    7924:	00003618 	andeq	r3, r0, r8, lsl r6
    7928:	00003618 	andeq	r3, r0, r8, lsl r6
    792c:	00003618 	andeq	r3, r0, r8, lsl r6
    7930:	00003618 	andeq	r3, r0, r8, lsl r6
    7934:	00003618 	andeq	r3, r0, r8, lsl r6
    7938:	00000ae0 	andeq	r0, r0, r0, ror #21
    793c:	00000754 	andeq	r0, r0, r4, asr r7
    7940:	0000076c 	andeq	r0, r0, ip, ror #14
    7944:	00000774 	andeq	r0, r0, r4, ror r7
    7948:	000007b8 			; <UNDEFINED> instruction: 0x000007b8
    794c:	000007c0 	andeq	r0, r0, r0, asr #15
    7950:	000007c8 	andeq	r0, r0, r8, asr #15
    7954:	0000083c 	andeq	r0, r0, ip, lsr r8
    7958:	000007ec 	andeq	r0, r0, ip, ror #15
    795c:	00000818 	andeq	r0, r0, r8, lsl r8
    7960:	00002434 	andeq	r2, r0, r4, lsr r4
    7964:	00002808 	andeq	r2, r0, r8, lsl #16
    7968:	00000850 	andeq	r0, r0, r0, asr r8
    796c:	00002600 	andeq	r2, r0, r0, lsl #12
    7970:	00000860 	andeq	r0, r0, r0, ror #16
    7974:	00000a84 	andeq	r0, r0, r4, lsl #21
    7978:	00000870 	andeq	r0, r0, r0, ror r8
    797c:	00000878 	andeq	r0, r0, r8, ror r8
    7980:	00000880 	andeq	r0, r0, r0, lsl #17
    7984:	000008ac 	andeq	r0, r0, ip, lsr #17
    7988:	000008c0 	andeq	r0, r0, r0, asr #17
    798c:	000008d0 	ldrdeq	r0, [r0], -r0	; <UNPREDICTABLE>
    7990:	000014dc 	ldrdeq	r1, [r0], -ip
    7994:	000008dc 	ldrdeq	r0, [r0], -ip
    7998:	000008e4 	andeq	r0, r0, r4, ror #17
    799c:	00000914 	andeq	r0, r0, r4, lsl r9
    79a0:	000009e0 	andeq	r0, r0, r0, ror #19
    79a4:	00000a38 	andeq	r0, r0, r8, lsr sl
    79a8:	00000a54 	andeq	r0, r0, r4, asr sl
    79ac:	00000a68 	andeq	r0, r0, r8, ror #20
    79b0:	00000acc 	andeq	r0, r0, ip, asr #21
    79b4:	00000ae8 	andeq	r0, r0, r8, ror #21
    79b8:	00000af0 	strdeq	r0, [r0], -r0	; <UNPREDICTABLE>
    79bc:	00000b0c 	andeq	r0, r0, ip, lsl #22
    79c0:	00000b20 	andeq	r0, r0, r0, lsr #22
    79c4:	00000b70 	andeq	r0, r0, r0, ror fp
    79c8:	00000a9c 	muleq	r0, ip, sl
    79cc:	00000b80 	andeq	r0, r0, r0, lsl #23
    79d0:	00000c44 	andeq	r0, r0, r4, asr #24
    79d4:	00002654 	andeq	r2, r0, r4, asr r6
    79d8:	00000ec8 	andeq	r0, r0, r8, asr #29
    79dc:	00000c80 	andeq	r0, r0, r0, lsl #25
    79e0:	00000edc 	ldrdeq	r0, [r0], -ip
    79e4:	00000ef0 	strdeq	r0, [r0], -r0	; <UNPREDICTABLE>
    79e8:	00000ef8 	strdeq	r0, [r0], -r8
    79ec:	00000f28 	andeq	r0, r0, r8, lsr #30
    79f0:	00000f74 	andeq	r0, r0, r4, ror pc
    79f4:	00000f84 	andeq	r0, r0, r4, lsl #31
    79f8:	00000fd4 	ldrdeq	r0, [r0], -r4
    79fc:	00000ff4 	strdeq	r0, [r0], -r4
    7a00:	0000102c 	andeq	r1, r0, ip, lsr #32
    7a04:	00001088 	andeq	r1, r0, r8, lsl #1
    7a08:	0000111c 	andeq	r1, r0, ip, lsl r1
    7a0c:	00001198 	muleq	r0, r8, r1
    7a10:	000011dc 	ldrdeq	r1, [r0], -ip
    7a14:	00001248 	andeq	r1, r0, r8, asr #4
    7a18:	000003fc 	strdeq	r0, [r0], -ip
    7a1c:	00003618 	andeq	r3, r0, r8, lsl r6
    7a20:	00003618 	andeq	r3, r0, r8, lsl r6
    7a24:	00003618 	andeq	r3, r0, r8, lsl r6
    7a28:	00003618 	andeq	r3, r0, r8, lsl r6
    7a2c:	00003618 	andeq	r3, r0, r8, lsl r6
    7a30:	00003618 	andeq	r3, r0, r8, lsl r6
    7a34:	00003618 	andeq	r3, r0, r8, lsl r6
    7a38:	00003618 	andeq	r3, r0, r8, lsl r6
    7a3c:	00003618 	andeq	r3, r0, r8, lsl r6
    7a40:	00003618 	andeq	r3, r0, r8, lsl r6
    7a44:	00003618 	andeq	r3, r0, r8, lsl r6
    7a48:	00003618 	andeq	r3, r0, r8, lsl r6
    7a4c:	00003618 	andeq	r3, r0, r8, lsl r6
    7a50:	00003618 	andeq	r3, r0, r8, lsl r6
    7a54:	00003618 	andeq	r3, r0, r8, lsl r6
    7a58:	00003618 	andeq	r3, r0, r8, lsl r6
    7a5c:	00003618 	andeq	r3, r0, r8, lsl r6
    7a60:	00003618 	andeq	r3, r0, r8, lsl r6
    7a64:	00003618 	andeq	r3, r0, r8, lsl r6
    7a68:	00003618 	andeq	r3, r0, r8, lsl r6
    7a6c:	00003618 	andeq	r3, r0, r8, lsl r6
    7a70:	00003618 	andeq	r3, r0, r8, lsl r6
    7a74:	00003618 	andeq	r3, r0, r8, lsl r6
    7a78:	00000410 	andeq	r0, r0, r0, lsl r4
    7a7c:	00003618 	andeq	r3, r0, r8, lsl r6
    7a80:	00000868 	andeq	r0, r0, r8, ror #16
    7a84:	00003618 	andeq	r3, r0, r8, lsl r6
    7a88:	00003618 	andeq	r3, r0, r8, lsl r6
    7a8c:	00003618 	andeq	r3, r0, r8, lsl r6
    7a90:	00003618 	andeq	r3, r0, r8, lsl r6
    7a94:	00003618 	andeq	r3, r0, r8, lsl r6
    7a98:	00003618 	andeq	r3, r0, r8, lsl r6
    7a9c:	00003618 	andeq	r3, r0, r8, lsl r6
    7aa0:	00003618 	andeq	r3, r0, r8, lsl r6
    7aa4:	00003618 	andeq	r3, r0, r8, lsl r6
    7aa8:	00003618 	andeq	r3, r0, r8, lsl r6
    7aac:	00003618 	andeq	r3, r0, r8, lsl r6
    7ab0:	00003618 	andeq	r3, r0, r8, lsl r6
    7ab4:	00003618 	andeq	r3, r0, r8, lsl r6
    7ab8:	00003618 	andeq	r3, r0, r8, lsl r6
    7abc:	00003618 	andeq	r3, r0, r8, lsl r6
    7ac0:	00003618 	andeq	r3, r0, r8, lsl r6
    7ac4:	00003618 	andeq	r3, r0, r8, lsl r6
    7ac8:	00003618 	andeq	r3, r0, r8, lsl r6
    7acc:	00003618 	andeq	r3, r0, r8, lsl r6
    7ad0:	00003618 	andeq	r3, r0, r8, lsl r6
    7ad4:	00003618 	andeq	r3, r0, r8, lsl r6
    7ad8:	0000049c 	muleq	r0, ip, r4
    7adc:	00003618 	andeq	r3, r0, r8, lsl r6
    7ae0:	00003618 	andeq	r3, r0, r8, lsl r6
    7ae4:	00003618 	andeq	r3, r0, r8, lsl r6
    7ae8:	00003618 	andeq	r3, r0, r8, lsl r6
    7aec:	00003618 	andeq	r3, r0, r8, lsl r6
    7af0:	00003618 	andeq	r3, r0, r8, lsl r6
    7af4:	00003618 	andeq	r3, r0, r8, lsl r6
    7af8:	000004c8 	andeq	r0, r0, r8, asr #9
    7afc:	00003618 	andeq	r3, r0, r8, lsl r6
    7b00:	e4dba001 	ldrb	sl, [fp], #1
    7b04:	e24a408e 	sub	r4, sl, #142	; 0x8e
    7b08:	e79f4104 	ldr	r4, [pc, r4, lsl #2]
    7b0c:	e08ff004 	add	pc, pc, r4
    7b10:	ffffe040 			; <UNDEFINED> instruction: 0xffffe040
    7b14:	e92d4000 	stmfd	sp!, {lr}
    7b18:	e4dba001 	ldrb	sl, [fp], #1
    7b1c:	e35a0028 	cmp	sl, #40	; 0x28
    7b20:	1a000c0f 	bne	ab64 <BASIC$$Code+0xab64>
    7b24:	ebfffc49 	bl	6c50 <BASIC$$Code+0x6c50>
    7b28:	0a000c1a 	beq	ab98 <BASIC$$Code+0xab98>
    7b2c:	e3590c01 	cmp	r9, #256	; 0x100
    7b30:	3a000ba4 	bcc	a9c8 <BASIC$$Code+0xa9c8>
    7b34:	e5902000 	ldr	r2, [r0]
    7b38:	e3520010 	cmp	r2, #16
    7b3c:	3a000c1f 	bcc	abc0 <BASIC$$Code+0xabc0>
    7b40:	ebffe540 	bl	1048 <BASIC$$Code+0x1048>
    7b44:	e35a002c 	cmp	sl, #44	; 0x2c
    7b48:	0a000007 	beq	7b6c <BASIC$$Code+0x7b6c>
    7b4c:	e35a0029 	cmp	sl, #41	; 0x29
    7b50:	1a000c83 	bne	ad64 <BASIC$$Code+0xad64>
    7b54:	e3e00000 	mvn	r0, #0
    7b58:	e2800001 	add	r0, r0, #1
    7b5c:	e4921004 	ldr	r1, [r2], #4
    7b60:	e3310000 	teq	r1, #0
    7b64:	1afffffb 	bne	7b58 <BASIC$$Code+0x7b58>
    7b68:	ea000178 	b	8150 <BASIC$$Code+0x8150>
    7b6c:	e92d0004 	stmfd	sp!, {r2}
    7b70:	ebfffd99 	bl	71dc <BASIC$$Code+0x71dc>
    7b74:	e35a0029 	cmp	sl, #41	; 0x29
    7b78:	1a000c79 	bne	ad64 <BASIC$$Code+0xad64>
    7b7c:	eb000552 	bl	90cc <BASIC$$Code+0x90cc>
    7b80:	e8bd0004 	ldmfd	sp!, {r2}
    7b84:	e4921004 	ldr	r1, [r2], #4
    7b88:	e3310000 	teq	r1, #0
    7b8c:	0a000c19 	beq	abf8 <BASIC$$Code+0xabf8>
    7b90:	e2500001 	subs	r0, r0, #1
    7b94:	1afffffa 	bne	7b84 <BASIC$$Code+0x7b84>
    7b98:	e2410001 	sub	r0, r1, #1
    7b9c:	ea00016b 	b	8150 <BASIC$$Code+0x8150>
    7ba0:	e4dba001 	ldrb	sl, [fp], #1
    7ba4:	e33a0024 	teq	sl, #36	; 0x24
    7ba8:	1a000c5b 	bne	ad1c <BASIC$$Code+0xad1c>
    7bac:	e2882c03 	add	r2, r8, #768	; 0x300
    7bb0:	e2881c06 	add	r1, r8, #1536	; 0x600
    7bb4:	e4d10001 	ldrb	r0, [r1], #1
    7bb8:	e4c20001 	strb	r0, [r2], #1
    7bbc:	e3300000 	teq	r0, #0
    7bc0:	1afffffb 	bne	7bb4 <BASIC$$Code+0x7bb4>
    7bc4:	e2422001 	sub	r2, r2, #1
    7bc8:	ea0002d6 	b	8728 <BASIC$$Code+0x8728>
    7bcc:	e598017c 	ldr	r0, [r8, #380]	; 0x17c
    7bd0:	e2800001 	add	r0, r0, #1
    7bd4:	ea0000ff 	b	7fd8 <BASIC$$Code+0x7fd8>
    7bd8:	e92d4000 	stmfd	sp!, {lr}
    7bdc:	ebfffebe 	bl	76dc <BASIC$$Code+0x76dc>
    7be0:	0a000b0d 	beq	a81c <BASIC$$Code+0xa81c>
    7be4:	52600000 	rsbpl	r0, r0, #0
    7be8:	58bd8000 	ldmfdpl	sp!, {pc}
    7bec:	e3300000 	teq	r0, #0
    7bf0:	12233102 	eorne	r3, r3, #-2147483648	; 0x80000000
    7bf4:	e3390000 	teq	r9, #0
    7bf8:	e8bd8000 	ldmfd	sp!, {pc}
    7bfc:	e4dba001 	ldrb	sl, [fp], #1
    7c00:	e35a0020 	cmp	sl, #32
    7c04:	0afffffc 	beq	7bfc <BASIC$$Code+0x7bfc>
    7c08:	e35a0022 	cmp	sl, #34	; 0x22
    7c0c:	0a000008 	beq	7c34 <BASIC$$Code+0x7c34>
    7c10:	e2882c03 	add	r2, r8, #768	; 0x300
    7c14:	e24bb001 	sub	fp, fp, #1
    7c18:	e4dba001 	ldrb	sl, [fp], #1
    7c1c:	e4c2a001 	strb	sl, [r2], #1
    7c20:	e35a002c 	cmp	sl, #44	; 0x2c
    7c24:	135a000d 	cmpne	sl, #13
    7c28:	1afffffa 	bne	7c18 <BASIC$$Code+0x7c18>
    7c2c:	e2422001 	sub	r2, r2, #1
    7c30:	ea0002bc 	b	8728 <BASIC$$Code+0x8728>
    7c34:	e2882c03 	add	r2, r8, #768	; 0x300
    7c38:	e4dba001 	ldrb	sl, [fp], #1
    7c3c:	e35a000d 	cmp	sl, #13
    7c40:	0a000b5c 	beq	a9b8 <BASIC$$Code+0xa9b8>
    7c44:	e35a0022 	cmp	sl, #34	; 0x22
    7c48:	14c2a001 	strbne	sl, [r2], #1
    7c4c:	1afffff9 	bne	7c38 <BASIC$$Code+0x7c38>
    7c50:	e4dba001 	ldrb	sl, [fp], #1
    7c54:	e35a0022 	cmp	sl, #34	; 0x22
    7c58:	04c2a001 	strbeq	sl, [r2], #1
    7c5c:	0afffff5 	beq	7c38 <BASIC$$Code+0x7c38>
    7c60:	e24bb001 	sub	fp, fp, #1
    7c64:	ea0002af 	b	8728 <BASIC$$Code+0x8728>
    7c68:	e5d802ff 	ldrb	r0, [r8, #767]	; 0x2ff
    7c6c:	e3100002 	tst	r0, #2
    7c70:	1a000c29 	bne	ad1c <BASIC$$Code+0xad1c>
    7c74:	e5980134 	ldr	r0, [r8, #308]	; 0x134
    7c78:	ea000134 	b	8150 <BASIC$$Code+0x8150>
    7c7c:	e92d4000 	stmfd	sp!, {lr}
    7c80:	ebfffbf5 	bl	6c5c <BASIC$$Code+0x6c5c>
    7c84:	0afffff7 	beq	7c68 <BASIC$$Code+0x7c68>
    7c88:	e8bd4000 	ldmfd	sp!, {lr}
    7c8c:	e3590004 	cmp	r9, #4
    7c90:	3a000011 	bcc	7cdc <BASIC$$Code+0x7cdc>
    7c94:	0a000012 	beq	7ce4 <BASIC$$Code+0x7ce4>
    7c98:	e3590080 	cmp	r9, #128	; 0x80
    7c9c:	2a00001a 	bcs	7d0c <BASIC$$Code+0x7d0c>
    7ca0:	e3c03003 	bic	r3, r0, #3
    7ca4:	e1b02f80 	lsls	r2, r0, #31
    7ca8:	e8930003 	ldm	r3, {r0, r1}
    7cac:	21a00820 	lsrcs	r0, r0, #16
    7cb0:	21800801 	orrcs	r0, r0, r1, lsl #16
    7cb4:	21a01821 	lsrcs	r1, r1, #16
    7cb8:	41a00420 	lsrmi	r0, r0, #8
    7cbc:	41800c01 	orrmi	r0, r0, r1, lsl #24
    7cc0:	41a01421 	lsrmi	r1, r1, #8
    7cc4:	e2003102 	and	r3, r0, #-2147483648	; 0x80000000
    7cc8:	e21110ff 	ands	r1, r1, #255	; 0xff
    7ccc:	03300000 	teqeq	r0, #0
    7cd0:	13800102 	orrne	r0, r0, #-2147483648	; 0x80000000
    7cd4:	e3b09102 	movs	r9, #-2147483648	; 0x80000000
    7cd8:	e1a0f00e 	mov	pc, lr
    7cdc:	e5d00000 	ldrb	r0, [r0]
    7ce0:	ea0000bc 	b	7fd8 <BASIC$$Code+0x7fd8>
    7ce4:	e2102003 	ands	r2, r0, #3
    7ce8:	05900000 	ldreq	r0, [r0]
    7cec:	0a0000b9 	beq	7fd8 <BASIC$$Code+0x7fd8>
    7cf0:	e3c00003 	bic	r0, r0, #3
    7cf4:	e8900003 	ldm	r0, {r0, r1}
    7cf8:	e1a02182 	lsl	r2, r2, #3
    7cfc:	e1a00230 	lsr	r0, r0, r2
    7d00:	e2622020 	rsb	r2, r2, #32
    7d04:	e1800211 	orr	r0, r0, r1, lsl r2
    7d08:	ea0000b2 	b	7fd8 <BASIC$$Code+0x7fd8>
    7d0c:	0a00000e 	beq	7d4c <BASIC$$Code+0x7d4c>
    7d10:	e3590c01 	cmp	r9, #256	; 0x100
    7d14:	2a000c09 	bcs	ad40 <BASIC$$Code+0xad40>
    7d18:	e2882c03 	add	r2, r8, #768	; 0x300
    7d1c:	e2823c01 	add	r3, r2, #256	; 0x100
    7d20:	e2833001 	add	r3, r3, #1
    7d24:	e4d01001 	ldrb	r1, [r0], #1
    7d28:	e4c21001 	strb	r1, [r2], #1
    7d2c:	e1320003 	teq	r2, r3
    7d30:	1331000d 	teqne	r1, #13
    7d34:	1afffffa 	bne	7d24 <BASIC$$Code+0x7d24>
    7d38:	e1320003 	teq	r2, r3
    7d3c:	02422c01 	subeq	r2, r2, #256	; 0x100
    7d40:	e2422001 	sub	r2, r2, #1
    7d44:	e3b09000 	movs	r9, #0
    7d48:	e1a0f00e 	mov	pc, lr
    7d4c:	e5d02004 	ldrb	r2, [r0, #4]
    7d50:	e3320000 	teq	r2, #0
    7d54:	0a000272 	beq	8724 <BASIC$$Code+0x8724>
    7d58:	e3c01003 	bic	r1, r0, #3
    7d5c:	e2003003 	and	r3, r0, #3
    7d60:	e8910003 	ldm	r1, {r0, r1}
    7d64:	e1b03183 	lsls	r3, r3, #3
    7d68:	11a00330 	lsrne	r0, r0, r3
    7d6c:	12633020 	rsbne	r3, r3, #32
    7d70:	11800311 	orrne	r0, r0, r1, lsl r3
    7d74:	e2883c03 	add	r3, r8, #768	; 0x300
    7d78:	e0822003 	add	r2, r2, r3
    7d7c:	e4901004 	ldr	r1, [r0], #4
    7d80:	e4831004 	str	r1, [r3], #4
    7d84:	e1530002 	cmp	r3, r2
    7d88:	3afffffb 	bcc	7d7c <BASIC$$Code+0x7d7c>
    7d8c:	e3b09000 	movs	r9, #0
    7d90:	e1a0f00e 	mov	pc, lr
    7d94:	e92d4000 	stmfd	sp!, {lr}
    7d98:	eb000978 	bl	a380 <BASIC$$Code+0xa380>
    7d9c:	28bd8000 	ldmfdcs	sp!, {pc}
    7da0:	ea000bdd 	b	ad1c <BASIC$$Code+0xad1c>
    7da4:	e92d4000 	stmfd	sp!, {lr}
    7da8:	ebfffd0b 	bl	71dc <BASIC$$Code+0x71dc>
    7dac:	e35a0029 	cmp	sl, #41	; 0x29
    7db0:	1a000beb 	bne	ad64 <BASIC$$Code+0xad64>
    7db4:	e3390000 	teq	r9, #0
    7db8:	e8bd8000 	ldmfd	sp!, {pc}
    7dbc:	e3a00000 	mov	r0, #0
    7dc0:	e3a09000 	mov	r9, #0
    7dc4:	e4dba001 	ldrb	sl, [fp], #1
    7dc8:	e35a0030 	cmp	sl, #48	; 0x30
    7dcc:	3a000011 	bcc	7e18 <BASIC$$Code+0x7e18>
    7dd0:	e35a0039 	cmp	sl, #57	; 0x39
    7dd4:	9a000009 	bls	7e00 <BASIC$$Code+0x7e00>
    7dd8:	e24aa037 	sub	sl, sl, #55	; 0x37
    7ddc:	e35a000a 	cmp	sl, #10
    7de0:	3a00000c 	bcc	7e18 <BASIC$$Code+0x7e18>
    7de4:	e35a0010 	cmp	sl, #16
    7de8:	3a000004 	bcc	7e00 <BASIC$$Code+0x7e00>
    7dec:	e24aa020 	sub	sl, sl, #32
    7df0:	e35a000a 	cmp	sl, #10
    7df4:	3a000007 	bcc	7e18 <BASIC$$Code+0x7e18>
    7df8:	e35a0010 	cmp	sl, #16
    7dfc:	2a000005 	bcs	7e18 <BASIC$$Code+0x7e18>
    7e00:	e20aa00f 	and	sl, sl, #15
    7e04:	e310020f 	tst	r0, #-268435456	; 0xf0000000
    7e08:	1a000be9 	bne	adb4 <BASIC$$Code+0xadb4>
    7e0c:	e18a0200 	orr	r0, sl, r0, lsl #4
    7e10:	e3a09101 	mov	r9, #1073741824	; 0x40000000
    7e14:	eaffffea 	b	7dc4 <BASIC$$Code+0x7dc4>
    7e18:	e24bb001 	sub	fp, fp, #1
    7e1c:	e3390000 	teq	r9, #0
    7e20:	11a0f00e 	movne	pc, lr
    7e24:	ea000bde 	b	ada4 <BASIC$$Code+0xada4>
    7e28:	e3a00000 	mov	r0, #0
    7e2c:	e3a09000 	mov	r9, #0
    7e30:	e4dba001 	ldrb	sl, [fp], #1
    7e34:	e35a0031 	cmp	sl, #49	; 0x31
    7e38:	133a0030 	teqne	sl, #48	; 0x30
    7e3c:	03a09101 	moveq	r9, #1073741824	; 0x40000000
    7e40:	00a00000 	adceq	r0, r0, r0
    7e44:	0afffff9 	beq	7e30 <BASIC$$Code+0x7e30>
    7e48:	e24bb001 	sub	fp, fp, #1
    7e4c:	e3390000 	teq	r9, #0
    7e50:	11a0f00e 	movne	pc, lr
    7e54:	ea000bdd 	b	add0 <BASIC$$Code+0xadd0>
    7e58:	e92d4000 	stmfd	sp!, {lr}
    7e5c:	ebfffe10 	bl	76a4 <BASIC$$Code+0x76a4>
    7e60:	e3a00000 	mov	r0, #0
    7e64:	ef000009 	svc	0x00000009
    7e68:	e1a00002 	mov	r0, r2
    7e6c:	ea0000b7 	b	8150 <BASIC$$Code+0x8150>
    7e70:	e5980160 	ldr	r0, [r8, #352]	; 0x160
    7e74:	ea000057 	b	7fd8 <BASIC$$Code+0x7fd8>
    7e78:	e2881c03 	add	r1, r8, #768	; 0x300
    7e7c:	e5dba000 	ldrb	sl, [fp]
    7e80:	e35a0024 	cmp	sl, #36	; 0x24
    7e84:	0a000005 	beq	7ea0 <BASIC$$Code+0x7ea0>
    7e88:	e3a00001 	mov	r0, #1
    7e8c:	ef000007 	svc	0x00000007
    7e90:	e5910000 	ldr	r0, [r1]
    7e94:	e5981298 	ldr	r1, [r8, #664]	; 0x298
    7e98:	e0400001 	sub	r0, r0, r1
    7e9c:	ea00004d 	b	7fd8 <BASIC$$Code+0x7fd8>
    7ea0:	e28bb001 	add	fp, fp, #1
    7ea4:	e3a00000 	mov	r0, #0
    7ea8:	e5810000 	str	r0, [r1]
    7eac:	e3a0000e 	mov	r0, #14
    7eb0:	ef000007 	svc	0x00000007
    7eb4:	e2812018 	add	r2, r1, #24
    7eb8:	ea00021a 	b	8728 <BASIC$$Code+0x8728>
    7ebc:	e5980168 	ldr	r0, [r8, #360]	; 0x168
    7ec0:	ea000044 	b	7fd8 <BASIC$$Code+0x7fd8>
    7ec4:	e598016c 	ldr	r0, [r8, #364]	; 0x16c
    7ec8:	ea000042 	b	7fd8 <BASIC$$Code+0x7fd8>
    7ecc:	e92d4000 	stmfd	sp!, {lr}
    7ed0:	ebfffe03 	bl	76e4 <BASIC$$Code+0x76e4>
    7ed4:	0a000a50 	beq	a81c <BASIC$$Code+0xa81c>
    7ed8:	43a03000 	movmi	r3, #0
    7edc:	48bd8000 	ldmfdmi	sp!, {pc}
    7ee0:	e3300000 	teq	r0, #0
    7ee4:	42600000 	rsbmi	r0, r0, #0
    7ee8:	e3390000 	teq	r9, #0
    7eec:	e8bd8000 	ldmfd	sp!, {pc}
    7ef0:	e92d4000 	stmfd	sp!, {lr}
    7ef4:	ebfffdfa 	bl	76e4 <BASIC$$Code+0x76e4>
    7ef8:	eb000474 	bl	90d0 <BASIC$$Code+0x90d0>
    7efc:	e1a01000 	mov	r1, r0
    7f00:	e1a02400 	lsl	r2, r0, #8
    7f04:	e3a00080 	mov	r0, #128	; 0x80
    7f08:	ef000006 	svc	0x00000006
    7f0c:	e20100ff 	and	r0, r1, #255	; 0xff
    7f10:	e20220ff 	and	r2, r2, #255	; 0xff
    7f14:	e1800402 	orr	r0, r0, r2, lsl #8
    7f18:	ea00008c 	b	8150 <BASIC$$Code+0x8150>
    7f1c:	e92d4000 	stmfd	sp!, {lr}
    7f20:	ebfffdef 	bl	76e4 <BASIC$$Code+0x76e4>
    7f24:	1a000a50 	bne	a86c <BASIC$$Code+0xa86c>
    7f28:	e8bd4000 	ldmfd	sp!, {lr}
    7f2c:	e2880c03 	add	r0, r8, #768	; 0x300
    7f30:	e1520000 	cmp	r2, r0
    7f34:	0a0001ae 	beq	85f4 <BASIC$$Code+0x85f4>
    7f38:	e5d00000 	ldrb	r0, [r0]
    7f3c:	ea000025 	b	7fd8 <BASIC$$Code+0x7fd8>
    7f40:	e92d4000 	stmfd	sp!, {lr}
    7f44:	ebfffde6 	bl	76e4 <BASIC$$Code+0x76e4>
    7f48:	5b000446 	blpl	9068 <BASIC$$Code+0x9068>
    7f4c:	e3a0a001 	mov	sl, #1
    7f50:	ea0006fc 	b	9b48 <BASIC$$Code+0x9b48>
    7f54:	e92d4000 	stmfd	sp!, {lr}
    7f58:	ebfffdd1 	bl	76a4 <BASIC$$Code+0x76a4>
    7f5c:	ef00000a 	svc	0x0000000a
    7f60:	ea00007a 	b	8150 <BASIC$$Code+0x8150>
    7f64:	e5980178 	ldr	r0, [r8, #376]	; 0x178
    7f68:	ea00001a 	b	7fd8 <BASIC$$Code+0x7fd8>
    7f6c:	e5980170 	ldr	r0, [r8, #368]	; 0x170
    7f70:	ea000018 	b	7fd8 <BASIC$$Code+0x7fd8>
    7f74:	e598028c 	ldr	r0, [r8, #652]	; 0x28c
    7f78:	ea000016 	b	7fd8 <BASIC$$Code+0x7fd8>
    7f7c:	e5980280 	ldr	r0, [r8, #640]	; 0x280
    7f80:	ea000014 	b	7fd8 <BASIC$$Code+0x7fd8>
    7f84:	e92d4000 	stmfd	sp!, {lr}
    7f88:	ebfffdd5 	bl	76e4 <BASIC$$Code+0x76e4>
    7f8c:	ebffe450 	bl	10d4 <BASIC$$Code+0x10d4>
    7f90:	e92d0800 	stmfd	sp!, {fp}
    7f94:	e24ddc01 	sub	sp, sp, #256	; 0x100
    7f98:	ebffe46f 	bl	115c <BASIC$$Code+0x115c>
    7f9c:	e1a0b00d 	mov	fp, sp
    7fa0:	ebfffc8d 	bl	71dc <BASIC$$Code+0x71dc>
    7fa4:	e3390000 	teq	r9, #0
    7fa8:	e28ddc01 	add	sp, sp, #256	; 0x100
    7fac:	e8bd8800 	pop	{fp, pc}
    7fb0:	e92d4000 	stmfd	sp!, {lr}
    7fb4:	ebfffdca 	bl	76e4 <BASIC$$Code+0x76e4>
    7fb8:	5b00042a 	blpl	9068 <BASIC$$Code+0x9068>
    7fbc:	eb000615 	bl	9818 <BASIC$$Code+0x9818>
    7fc0:	ea000095 	b	821c <BASIC$$Code+0x821c>
    7fc4:	e92d4000 	stmfd	sp!, {lr}
    7fc8:	ebfffdb5 	bl	76a4 <BASIC$$Code+0x76a4>
    7fcc:	e3a00002 	mov	r0, #2
    7fd0:	eaffffa3 	b	7e64 <BASIC$$Code+0x7e64>
    7fd4:	e3a00000 	mov	r0, #0
    7fd8:	e3b09101 	movs	r9, #1073741824	; 0x40000000
    7fdc:	e1a0f00e 	mov	pc, lr
    7fe0:	ef000004 	svc	0x00000004
    7fe4:	eafffffb 	b	7fd8 <BASIC$$Code+0x7fd8>
    7fe8:	e92d4000 	stmfd	sp!, {lr}
    7fec:	ebfffdbc 	bl	76e4 <BASIC$$Code+0x76e4>
    7ff0:	eb000435 	bl	90cc <BASIC$$Code+0x90cc>
    7ff4:	e1a01000 	mov	r1, r0
    7ff8:	e1a02420 	lsr	r2, r0, #8
    7ffc:	e3a00081 	mov	r0, #129	; 0x81
    8000:	ef000006 	svc	0x00000006
    8004:	e8bd4000 	ldmfd	sp!, {lr}
    8008:	e21220ff 	ands	r2, r2, #255	; 0xff
    800c:	1a000178 	bne	85f4 <BASIC$$Code+0x85f4>
    8010:	e20100ff 	and	r0, r1, #255	; 0xff
    8014:	eaffffef 	b	7fd8 <BASIC$$Code+0x7fd8>
    8018:	e92d4000 	stmfd	sp!, {lr}
    801c:	ebfffc6e 	bl	71dc <BASIC$$Code+0x71dc>
    8020:	1a000a11 	bne	a86c <BASIC$$Code+0xa86c>
    8024:	e35a002c 	cmp	sl, #44	; 0x2c
    8028:	1a0009f7 	bne	a80c <BASIC$$Code+0xa80c>
    802c:	ebfffbe9 	bl	6fd8 <BASIC$$Code+0x6fd8>
    8030:	ebfffc69 	bl	71dc <BASIC$$Code+0x71dc>
    8034:	1a000a0c 	bne	a86c <BASIC$$Code+0xa86c>
    8038:	e3a04000 	mov	r4, #0
    803c:	e35a0029 	cmp	sl, #41	; 0x29
    8040:	0a000009 	beq	806c <BASIC$$Code+0x806c>
    8044:	e35a002c 	cmp	sl, #44	; 0x2c
    8048:	1a0009ef 	bne	a80c <BASIC$$Code+0xa80c>
    804c:	ebfffbe1 	bl	6fd8 <BASIC$$Code+0x6fd8>
    8050:	ebffff53 	bl	7da4 <BASIC$$Code+0x7da4>
    8054:	eb00041d 	bl	90d0 <BASIC$$Code+0x90d0>
    8058:	e2504001 	subs	r4, r0, #1
    805c:	43a04000 	movmi	r4, #0
    8060:	e35400ff 	cmp	r4, #255	; 0xff
    8064:	23a04000 	movcs	r4, #0
    8068:	ebfffbef 	bl	702c <BASIC$$Code+0x702c>
    806c:	e8bd0020 	ldmfd	sp!, {r5}
    8070:	e2887c03 	add	r7, r8, #768	; 0x300
    8074:	e0455007 	sub	r5, r5, r7
    8078:	e0421007 	sub	r1, r2, r7
    807c:	e3a00000 	mov	r0, #0
    8080:	e0556001 	subs	r6, r5, r1
    8084:	3a00000d 	bcc	80c0 <BASIC$$Code+0x80c0>
    8088:	e0566004 	subs	r6, r6, r4
    808c:	3a00000b 	bcc	80c0 <BASIC$$Code+0x80c0>
    8090:	e3310000 	teq	r1, #0
    8094:	0a000008 	beq	80bc <BASIC$$Code+0x80bc>
    8098:	e3a00000 	mov	r0, #0
    809c:	e08d3004 	add	r3, sp, r4
    80a0:	e2887c03 	add	r7, r8, #768	; 0x300
    80a4:	e4d3a001 	ldrb	sl, [r3], #1
    80a8:	e4d79001 	ldrb	r9, [r7], #1
    80ac:	e159000a 	cmp	r9, sl
    80b0:	1a000007 	bne	80d4 <BASIC$$Code+0x80d4>
    80b4:	e1370002 	teq	r7, r2
    80b8:	1afffff9 	bne	80a4 <BASIC$$Code+0x80a4>
    80bc:	e2840001 	add	r0, r4, #1
    80c0:	e08dd005 	add	sp, sp, r5
    80c4:	e28dd003 	add	sp, sp, #3
    80c8:	e3cdd003 	bic	sp, sp, #3
    80cc:	e3b09101 	movs	r9, #1073741824	; 0x40000000
    80d0:	e8bd8000 	ldmfd	sp!, {pc}
    80d4:	e2844001 	add	r4, r4, #1
    80d8:	e2566001 	subs	r6, r6, #1
    80dc:	5affffee 	bpl	809c <BASIC$$Code+0x809c>
    80e0:	eafffff6 	b	80c0 <BASIC$$Code+0x80c0>
    80e4:	e92d4000 	stmfd	sp!, {lr}
    80e8:	ebfffd7d 	bl	76e4 <BASIC$$Code+0x76e4>
    80ec:	0a0009ca 	beq	a81c <BASIC$$Code+0xa81c>
    80f0:	58bd8000 	ldmfdpl	sp!, {pc}
    80f4:	e3330000 	teq	r3, #0
    80f8:	5a00000b 	bpl	812c <BASIC$$Code+0x812c>
    80fc:	e1b04000 	movs	r4, r0
    8100:	0a000012 	beq	8150 <BASIC$$Code+0x8150>
    8104:	e2515080 	subs	r5, r1, #128	; 0x80
    8108:	3a000009 	bcc	8134 <BASIC$$Code+0x8134>
    810c:	e2756020 	rsbs	r6, r5, #32
    8110:	3a000ad5 	bcc	ac6c <BASIC$$Code+0xac6c>
    8114:	e1a00630 	lsr	r0, r0, r6
    8118:	e2600000 	rsb	r0, r0, #0
    811c:	e1b04514 	lsls	r4, r4, r5
    8120:	0a00000a 	beq	8150 <BASIC$$Code+0x8150>
    8124:	e2400001 	sub	r0, r0, #1
    8128:	ea000008 	b	8150 <BASIC$$Code+0x8150>
    812c:	eb0003ea 	bl	90dc <BASIC$$Code+0x90dc>
    8130:	ea000006 	b	8150 <BASIC$$Code+0x8150>
    8134:	e3e00000 	mvn	r0, #0
    8138:	ea000004 	b	8150 <BASIC$$Code+0x8150>
    813c:	e92d4000 	stmfd	sp!, {lr}
    8140:	ebfffd67 	bl	76e4 <BASIC$$Code+0x76e4>
    8144:	1a0009c8 	bne	a86c <BASIC$$Code+0xa86c>
    8148:	e2880c03 	add	r0, r8, #768	; 0x300
    814c:	e0420000 	sub	r0, r2, r0
    8150:	e3b09101 	movs	r9, #1073741824	; 0x40000000
    8154:	e8bd8000 	ldmfd	sp!, {pc}
    8158:	e92d4000 	stmfd	sp!, {lr}
    815c:	ebfffd60 	bl	76e4 <BASIC$$Code+0x76e4>
    8160:	5b0003c0 	blpl	9068 <BASIC$$Code+0x9068>
    8164:	eb000601 	bl	9970 <BASIC$$Code+0x9970>
    8168:	ea00002b 	b	821c <BASIC$$Code+0x821c>
    816c:	e92d4000 	stmfd	sp!, {lr}
    8170:	ebfffd5b 	bl	76e4 <BASIC$$Code+0x76e4>
    8174:	5b0003bb 	blpl	9068 <BASIC$$Code+0x9068>
    8178:	eb0005fc 	bl	9970 <BASIC$$Code+0x9970>
    817c:	e28f9034 	add	r9, pc, #52	; 0x34
    8180:	eb00041d 	bl	91fc <BASIC$$Code+0x91fc>
    8184:	ea000024 	b	821c <BASIC$$Code+0x821c>
    8188:	e92d4000 	stmfd	sp!, {lr}
    818c:	ebfffd54 	bl	76e4 <BASIC$$Code+0x76e4>
    8190:	5b0003b4 	blpl	9068 <BASIC$$Code+0x9068>
    8194:	e28f9024 	add	r9, pc, #36	; 0x24
    8198:	eb000417 	bl	91fc <BASIC$$Code+0x91fc>
    819c:	ea00001e 	b	821c <BASIC$$Code+0x821c>
    81a0:	e92d4000 	stmfd	sp!, {lr}
    81a4:	ebfffd4e 	bl	76e4 <BASIC$$Code+0x76e4>
    81a8:	5b0003ae 	blpl	9068 <BASIC$$Code+0x9068>
    81ac:	e28f9014 	add	r9, pc, #20
    81b0:	eb000411 	bl	91fc <BASIC$$Code+0x91fc>
    81b4:	ea000018 	b	821c <BASIC$$Code+0x821c>
    81b8:	de5bd8a9 	cdple	8, 5, cr13, cr11, cr9, {5}
    81bc:	0000007f 	andeq	r0, r0, pc, ror r0
    81c0:	e52ee0d3 	str	lr, [lr, #-211]!	; 0xffffff2d
    81c4:	00000086 	andeq	r0, r0, r6, lsl #1
    81c8:	8efa3512 	mrchi	5, 7, r3, cr10, cr2, {0}
    81cc:	0000007b 	andeq	r0, r0, fp, ror r0
    81d0:	e92d4000 	stmfd	sp!, {lr}
    81d4:	ebfffd42 	bl	76e4 <BASIC$$Code+0x76e4>
    81d8:	eb0003bc 	bl	90d0 <BASIC$$Code+0x90d0>
    81dc:	e1e00000 	mvn	r0, r0
    81e0:	eaffffda 	b	8150 <BASIC$$Code+0x8150>
    81e4:	e3a00040 	mov	r0, #64	; 0x40
    81e8:	ea000002 	b	81f8 <BASIC$$Code+0x81f8>
    81ec:	e3a000c0 	mov	r0, #192	; 0xc0
    81f0:	ea000000 	b	81f8 <BASIC$$Code+0x81f8>
    81f4:	e3a00080 	mov	r0, #128	; 0x80
    81f8:	e92d4001 	push	{r0, lr}
    81fc:	ebfffd38 	bl	76e4 <BASIC$$Code+0x76e4>
    8200:	ebffe3b3 	bl	10d4 <BASIC$$Code+0x10d4>
    8204:	e8bd4001 	pop	{r0, lr}
    8208:	ef00000d 	svc	0x0000000d
    820c:	eaffff71 	b	7fd8 <BASIC$$Code+0x7fd8>
    8210:	e92d4000 	stmfd	sp!, {lr}
    8214:	eb000634 	bl	9aec <BASIC$$Code+0x9aec>
    8218:	e2811001 	add	r1, r1, #1
    821c:	e3b09102 	movs	r9, #-2147483648	; 0x80000000
    8220:	e8bd8000 	ldmfd	sp!, {pc}
    8224:	e92d4000 	stmfd	sp!, {lr}
    8228:	ebfffbeb 	bl	71dc <BASIC$$Code+0x71dc>
    822c:	eb0003a7 	bl	90d0 <BASIC$$Code+0x90d0>
    8230:	e35a002c 	cmp	sl, #44	; 0x2c
    8234:	1a000974 	bne	a80c <BASIC$$Code+0xa80c>
    8238:	e92d0001 	stmfd	sp!, {r0}
    823c:	ebfffed8 	bl	7da4 <BASIC$$Code+0x7da4>
    8240:	eb0003a2 	bl	90d0 <BASIC$$Code+0x90d0>
    8244:	e2881c03 	add	r1, r8, #768	; 0x300
    8248:	e8bd4004 	pop	{r2, lr}
    824c:	e5812000 	str	r2, [r1]
    8250:	e5c10002 	strb	r0, [r1, #2]
    8254:	e1a00420 	lsr	r0, r0, #8
    8258:	e5c10003 	strb	r0, [r1, #3]
    825c:	e3a00009 	mov	r0, #9
    8260:	ef000007 	svc	0x00000007
    8264:	e5d10004 	ldrb	r0, [r1, #4]
    8268:	e3500080 	cmp	r0, #128	; 0x80
    826c:	2a0000e0 	bcs	85f4 <BASIC$$Code+0x85f4>
    8270:	eaffff58 	b	7fd8 <BASIC$$Code+0x7fd8>
    8274:	e3a00086 	mov	r0, #134	; 0x86
    8278:	ef000006 	svc	0x00000006
    827c:	e20100ff 	and	r0, r1, #255	; 0xff
    8280:	eaffff54 	b	7fd8 <BASIC$$Code+0x7fd8>
    8284:	e92d4000 	stmfd	sp!, {lr}
    8288:	e5dba000 	ldrb	sl, [fp]
    828c:	e35a0028 	cmp	sl, #40	; 0x28
    8290:	1a000019 	bne	82fc <BASIC$$Code+0x82fc>
    8294:	e28bb001 	add	fp, fp, #1
    8298:	ebfffec1 	bl	7da4 <BASIC$$Code+0x7da4>
    829c:	eb00038b 	bl	90d0 <BASIC$$Code+0x90d0>
    82a0:	e3300000 	teq	r0, #0
    82a4:	4a000010 	bmi	82ec <BASIC$$Code+0x82ec>
    82a8:	059802f9 	ldreq	r0, [r8, #761]	; 0x2f9
    82ac:	0a00000c 	beq	82e4 <BASIC$$Code+0x82e4>
    82b0:	e3300001 	teq	r0, #1
    82b4:	0a000009 	beq	82e0 <BASIC$$Code+0x82e0>
    82b8:	eb00036c 	bl	9070 <BASIC$$Code+0x9070>
    82bc:	ebfffb52 	bl	700c <BASIC$$Code+0x700c>
    82c0:	eb000016 	bl	8320 <BASIC$$Code+0x8320>
    82c4:	eb00000e 	bl	8304 <BASIC$$Code+0x8304>
    82c8:	e1a0900d 	mov	r9, sp
    82cc:	eb0004e3 	bl	9660 <BASIC$$Code+0x9660>
    82d0:	eb000381 	bl	90dc <BASIC$$Code+0x90dc>
    82d4:	e2800001 	add	r0, r0, #1
    82d8:	e28dd008 	add	sp, sp, #8
    82dc:	eaffff9b 	b	8150 <BASIC$$Code+0x8150>
    82e0:	eb00000e 	bl	8320 <BASIC$$Code+0x8320>
    82e4:	eb000006 	bl	8304 <BASIC$$Code+0x8304>
    82e8:	eaffffcb 	b	821c <BASIC$$Code+0x821c>
    82ec:	e58802f9 	str	r0, [r8, #761]	; 0x2f9
    82f0:	e3a04040 	mov	r4, #64	; 0x40
    82f4:	e5c842fd 	strb	r4, [r8, #765]	; 0x2fd
    82f8:	eaffff94 	b	8150 <BASIC$$Code+0x8150>
    82fc:	eb000007 	bl	8320 <BASIC$$Code+0x8320>
    8300:	eaffff92 	b	8150 <BASIC$$Code+0x8150>
    8304:	e3a03000 	mov	r3, #0
    8308:	e3a01080 	mov	r1, #128	; 0x80
    830c:	e3a02000 	mov	r2, #0
    8310:	e2200080 	eor	r0, r0, #128	; 0x80
    8314:	e0200400 	eor	r0, r0, r0, lsl #8
    8318:	e0300800 	eors	r0, r0, r0, lsl #16
    831c:	ea0004ab 	b	95d0 <BASIC$$Code+0x95d0>
    8320:	e59822f9 	ldr	r2, [r8, #761]	; 0x2f9
    8324:	e5d832fd 	ldrb	r3, [r8, #765]	; 0x2fd
    8328:	e11300a3 	tst	r3, r3, lsr #1
    832c:	e1b00062 	rrxs	r0, r2
    8330:	e0a11001 	adc	r1, r1, r1
    8334:	e0200602 	eor	r0, r0, r2, lsl #12
    8338:	e0200a20 	eor	r0, r0, r0, lsr #20
    833c:	e58802f9 	str	r0, [r8, #761]	; 0x2f9
    8340:	e5c812fd 	strb	r1, [r8, #765]	; 0x2fd
    8344:	e1a0f00e 	mov	pc, lr
    8348:	e92d4000 	stmfd	sp!, {lr}
    834c:	ebfffce4 	bl	76e4 <BASIC$$Code+0x76e4>
    8350:	e8bd4000 	ldmfd	sp!, {lr}
    8354:	0a000930 	beq	a81c <BASIC$$Code+0xa81c>
    8358:	5a000005 	bpl	8374 <BASIC$$Code+0x8374>
    835c:	e3300000 	teq	r0, #0
    8360:	0affff1c 	beq	7fd8 <BASIC$$Code+0x7fd8>
    8364:	e3330000 	teq	r3, #0
    8368:	4a0000a1 	bmi	85f4 <BASIC$$Code+0x85f4>
    836c:	e3a00001 	mov	r0, #1
    8370:	eaffff18 	b	7fd8 <BASIC$$Code+0x7fd8>
    8374:	e3300000 	teq	r0, #0
    8378:	0affff16 	beq	7fd8 <BASIC$$Code+0x7fd8>
    837c:	4a00009c 	bmi	85f4 <BASIC$$Code+0x85f4>
    8380:	eafffff9 	b	836c <BASIC$$Code+0x836c>
    8384:	e92d4000 	stmfd	sp!, {lr}
    8388:	ebfffcd5 	bl	76e4 <BASIC$$Code+0x76e4>
    838c:	5b000335 	blpl	9068 <BASIC$$Code+0x9068>
    8390:	e3510098 	cmp	r1, #152	; 0x98
    8394:	2a000a50 	bcs	acdc <BASIC$$Code+0xacdc>
    8398:	ebfffb1b 	bl	700c <BASIC$$Code+0x700c>
    839c:	e1a06f00 	lsl	r6, r0, #30
    83a0:	e1a04120 	lsr	r4, r0, #2
    83a4:	e0966d80 	adds	r6, r6, r0, lsl #27
    83a8:	e0a442a0 	adc	r4, r4, r0, lsr #5
    83ac:	e0566c80 	subs	r6, r6, r0, lsl #25
    83b0:	e0c443a0 	sbc	r4, r4, r0, lsr #7
    83b4:	e0566a00 	subs	r6, r6, r0, lsl #20
    83b8:	e0c44620 	sbc	r4, r4, r0, lsr #12
    83bc:	e0966900 	adds	r6, r6, r0, lsl #18
    83c0:	e0a44720 	adc	r4, r4, r0, lsr #14
    83c4:	e0566800 	subs	r6, r6, r0, lsl #16
    83c8:	e0c44820 	sbc	r4, r4, r0, lsr #16
    83cc:	e0966580 	adds	r6, r6, r0, lsl #11
    83d0:	e0a44aa0 	adc	r4, r4, r0, lsr #21
    83d4:	e0566400 	subs	r6, r6, r0, lsl #8
    83d8:	e0c44c20 	sbc	r4, r4, r0, lsr #24
    83dc:	e0566280 	subs	r6, r6, r0, lsl #5
    83e0:	e0c44da0 	sbc	r4, r4, r0, lsr #27
    83e4:	e0566100 	subs	r6, r6, r0, lsl #2
    83e8:	e0c44f20 	sbc	r4, r4, r0, lsr #30
    83ec:	e0900004 	adds	r0, r0, r4
    83f0:	32411001 	subcc	r1, r1, #1
    83f4:	21a060a6 	lsrcs	r6, r6, #1
    83f8:	21866f80 	orrcs	r6, r6, r0, lsl #31
    83fc:	21a00060 	rrxcs	r0, r0
    8400:	e3560102 	cmp	r6, #-2147483648	; 0x80000000
    8404:	03c00001 	biceq	r0, r0, #1
    8408:	22900001 	addscs	r0, r0, #1
    840c:	21a00060 	rrxcs	r0, r0
    8410:	22811001 	addcs	r1, r1, #1
    8414:	e3310000 	teq	r1, #0
    8418:	4b00047a 	blmi	9608 <BASIC$$Code+0x9608>
    841c:	eb000336 	bl	90fc <BASIC$$Code+0x90fc>
    8420:	e1b0a000 	movs	sl, r0
    8424:	0a000032 	beq	84f4 <BASIC$$Code+0x84f4>
    8428:	eb000310 	bl	9070 <BASIC$$Code+0x9070>
    842c:	e1a02120 	lsr	r2, r0, #2
    8430:	e0822320 	add	r2, r2, r0, lsr #6
    8434:	e0422420 	sub	r2, r2, r0, lsr #8
    8438:	e0422520 	sub	r2, r2, r0, lsr #10
    843c:	e0822620 	add	r2, r2, r0, lsr #12
    8440:	e04228a0 	sub	r2, r2, r0, lsr #17
    8444:	e3a04000 	mov	r4, #0
    8448:	e0922f80 	adds	r2, r2, r0, lsl #31
    844c:	e0a440a0 	adc	r4, r4, r0, lsr #1
    8450:	e0922e00 	adds	r2, r2, r0, lsl #28
    8454:	e0a44220 	adc	r4, r4, r0, lsr #4
    8458:	e0922c80 	adds	r2, r2, r0, lsl #25
    845c:	e0a443a0 	adc	r4, r4, r0, lsr #7
    8460:	e0922a80 	adds	r2, r2, r0, lsl #21
    8464:	e0a445a0 	adc	r4, r4, r0, lsr #11
    8468:	e0522700 	subs	r2, r2, r0, lsl #14
    846c:	e0c44920 	sbc	r4, r4, r0, lsr #18
    8470:	e0522600 	subs	r2, r2, r0, lsl #12
    8474:	e0c44a20 	sbc	r4, r4, r0, lsr #20
    8478:	e0922500 	adds	r2, r2, r0, lsl #10
    847c:	e0a44b20 	adc	r4, r4, r0, lsr #22
    8480:	e0922400 	adds	r2, r2, r0, lsl #8
    8484:	e0a44c20 	adc	r4, r4, r0, lsr #24
    8488:	e0922300 	adds	r2, r2, r0, lsl #6
    848c:	e0a44d20 	adc	r4, r4, r0, lsr #26
    8490:	e0922100 	adds	r2, r2, r0, lsl #2
    8494:	e0a44f20 	adc	r4, r4, r0, lsr #30
    8498:	e0900004 	adds	r0, r0, r4
    849c:	22811001 	addcs	r1, r1, #1
    84a0:	21a020a2 	lsrcs	r2, r2, #1
    84a4:	21822f80 	orrcs	r2, r2, r0, lsl #31
    84a8:	21a00060 	rrxcs	r0, r0
    84ac:	e2233102 	eor	r3, r3, #-2147483648	; 0x80000000
    84b0:	e92d000e 	push	{r1, r2, r3}
    84b4:	e28d900c 	add	r9, sp, #12
    84b8:	eb0003db 	bl	942c <BASIC$$Code+0x942c>
    84bc:	eb00057c 	bl	9ab4 <BASIC$$Code+0x9ab4>
    84c0:	e8bd000e 	pop	{r1, r2, r3}
    84c4:	e2411020 	sub	r1, r1, #32
    84c8:	e1b00002 	movs	r0, r2
    84cc:	0a000008 	beq	84f4 <BASIC$$Code+0x84f4>
    84d0:	52411001 	subpl	r1, r1, #1
    84d4:	51b00080 	lslspl	r0, r0, #1
    84d8:	5afffffc 	bpl	84d0 <BASIC$$Code+0x84d0>
    84dc:	e3310000 	teq	r1, #0
    84e0:	4a000003 	bmi	84f4 <BASIC$$Code+0x84f4>
    84e4:	e1a0900d 	mov	r9, sp
    84e8:	eb0003cf 	bl	942c <BASIC$$Code+0x942c>
    84ec:	eb000570 	bl	9ab4 <BASIC$$Code+0x9ab4>
    84f0:	ea000001 	b	84fc <BASIC$$Code+0x84fc>
    84f4:	e1a0900d 	mov	r9, sp
    84f8:	eb00057c 	bl	9af0 <BASIC$$Code+0x9af0>
    84fc:	e3510071 	cmp	r1, #113	; 0x71
    8500:	3a00002c 	bcc	85b8 <BASIC$$Code+0x85b8>
    8504:	eb000319 	bl	9170 <BASIC$$Code+0x9170>
    8508:	ebfffabf 	bl	700c <BASIC$$Code+0x700c>
    850c:	e28f9068 	add	r9, pc, #104	; 0x68
    8510:	eb000339 	bl	91fc <BASIC$$Code+0x91fc>
    8514:	e28f9068 	add	r9, pc, #104	; 0x68
    8518:	eb0003c3 	bl	942c <BASIC$$Code+0x942c>
    851c:	e1a0900d 	mov	r9, sp
    8520:	eb000335 	bl	91fc <BASIC$$Code+0x91fc>
    8524:	e28d9008 	add	r9, sp, #8
    8528:	eb000333 	bl	91fc <BASIC$$Code+0x91fc>
    852c:	eb0003be 	bl	942c <BASIC$$Code+0x942c>
    8530:	eb00055f 	bl	9ab4 <BASIC$$Code+0x9ab4>
    8534:	e1a0900d 	mov	r9, sp
    8538:	eb00056c 	bl	9af0 <BASIC$$Code+0x9af0>
    853c:	e28f9048 	add	r9, pc, #72	; 0x48
    8540:	eb00032d 	bl	91fc <BASIC$$Code+0x91fc>
    8544:	e28f9048 	add	r9, pc, #72	; 0x48
    8548:	eb0003b7 	bl	942c <BASIC$$Code+0x942c>
    854c:	e1a0900d 	mov	r9, sp
    8550:	eb000329 	bl	91fc <BASIC$$Code+0x91fc>
    8554:	e3a04102 	mov	r4, #-2147483648	; 0x80000000
    8558:	e3a05081 	mov	r5, #129	; 0x81
    855c:	e3a07000 	mov	r7, #0
    8560:	eb0003b6 	bl	9440 <BASIC$$Code+0x9440>
    8564:	e28d9008 	add	r9, sp, #8
    8568:	e31a0001 	tst	sl, #1
    856c:	1a00000a 	bne	859c <BASIC$$Code+0x859c>
    8570:	eb00035b 	bl	92e4 <BASIC$$Code+0x92e4>
    8574:	e28dd010 	add	sp, sp, #16
    8578:	eaffff27 	b	821c <BASIC$$Code+0x821c>
    857c:	8cec34e1 	cfstrdhi	mvd3, [ip], #900	; 0x384
    8580:	00000077 	andeq	r0, r0, r7, ror r0
    8584:	e4117783 	ldr	r7, [r1], #-1923	; 0xfffff87d
    8588:	8000007d 	andhi	r0, r0, sp, ror r0
    858c:	82daa19a 	sbcshi	sl, sl, #-2147483610	; 0x80000026
    8590:	0000007b 	andeq	r0, r0, fp, ror r0
    8594:	e3af087d 			; <UNDEFINED> instruction: 0xe3af087d
    8598:	8000007f 	andhi	r0, r0, pc, ror r0
    859c:	e1a04000 	mov	r4, r0
    85a0:	e1a05001 	mov	r5, r1
    85a4:	e2237102 	eor	r7, r3, #-2147483648	; 0x80000000
    85a8:	eb000550 	bl	9af0 <BASIC$$Code+0x9af0>
    85ac:	eb000353 	bl	9300 <BASIC$$Code+0x9300>
    85b0:	e28dd010 	add	sp, sp, #16
    85b4:	eaffff18 	b	821c <BASIC$$Code+0x821c>
    85b8:	e2233102 	eor	r3, r3, #-2147483648	; 0x80000000
    85bc:	e31a0001 	tst	sl, #1
    85c0:	1b000331 	blne	928c <BASIC$$Code+0x928c>
    85c4:	e28dd008 	add	sp, sp, #8
    85c8:	eaffff13 	b	821c <BASIC$$Code+0x821c>
    85cc:	e92d4000 	stmfd	sp!, {lr}
    85d0:	ebfffc43 	bl	76e4 <BASIC$$Code+0x76e4>
    85d4:	5b0002a3 	blpl	9068 <BASIC$$Code+0x9068>
    85d8:	eb000457 	bl	973c <BASIC$$Code+0x973c>
    85dc:	eaffff0e 	b	821c <BASIC$$Code+0x821c>
    85e0:	e4dba001 	ldrb	sl, [fp], #1
    85e4:	e35a0050 	cmp	sl, #80	; 0x50
    85e8:	1a0009cb 	bne	ad1c <BASIC$$Code+0xad1c>
    85ec:	e5980164 	ldr	r0, [r8, #356]	; 0x164
    85f0:	eafffe78 	b	7fd8 <BASIC$$Code+0x7fd8>
    85f4:	e3e00000 	mvn	r0, #0
    85f8:	eafffe76 	b	7fd8 <BASIC$$Code+0x7fd8>
    85fc:	e92d4000 	stmfd	sp!, {lr}
    8600:	ebfffc37 	bl	76e4 <BASIC$$Code+0x76e4>
    8604:	eb0002b0 	bl	90cc <BASIC$$Code+0x90cc>
    8608:	e1a09000 	mov	r9, r0
    860c:	ebfff1c2 	bl	4d1c <BASIC$$Code+0x4d1c>
    8610:	18bd8000 	ldmfdne	sp!, {pc}
    8614:	e1a04009 	mov	r4, r9
    8618:	e3a05000 	mov	r5, #0
    861c:	ebfff195 	bl	4c78 <BASIC$$Code+0x4c78>
    8620:	eafffeca 	b	8150 <BASIC$$Code+0x8150>
    8624:	e92d4000 	stmfd	sp!, {lr}
    8628:	ea000002 	b	8638 <BASIC$$Code+0x8638>
    862c:	e92d4000 	stmfd	sp!, {lr}
    8630:	ebfffc2b 	bl	76e4 <BASIC$$Code+0x76e4>
    8634:	ebffe2a6 	bl	10d4 <BASIC$$Code+0x10d4>
    8638:	e92d0800 	stmfd	sp!, {fp}
    863c:	e288bc03 	add	fp, r8, #768	; 0x300
    8640:	e4dba001 	ldrb	sl, [fp], #1
    8644:	e35a0020 	cmp	sl, #32
    8648:	0afffffc 	beq	8640 <BASIC$$Code+0x8640>
    864c:	e35a002d 	cmp	sl, #45	; 0x2d
    8650:	0a000004 	beq	8668 <BASIC$$Code+0x8668>
    8654:	e35a002b 	cmp	sl, #43	; 0x2b
    8658:	1a000000 	bne	8660 <BASIC$$Code+0x8660>
    865c:	e4dba001 	ldrb	sl, [fp], #1
    8660:	eb000746 	bl	a380 <BASIC$$Code+0xa380>
    8664:	e8bd8800 	pop	{fp, pc}
    8668:	e4dba001 	ldrb	sl, [fp], #1
    866c:	eb000743 	bl	a380 <BASIC$$Code+0xa380>
    8670:	e8bd0800 	ldmfd	sp!, {fp}
    8674:	eafffd5a 	b	7be4 <BASIC$$Code+0x7be4>
    8678:	e3a00086 	mov	r0, #134	; 0x86
    867c:	ef000006 	svc	0x00000006
    8680:	e20200ff 	and	r0, r2, #255	; 0xff
    8684:	eafffe53 	b	7fd8 <BASIC$$Code+0x7fd8>
    8688:	e92d4000 	stmfd	sp!, {lr}
    868c:	ebfffc14 	bl	76e4 <BASIC$$Code+0x76e4>
    8690:	eb00028d 	bl	90cc <BASIC$$Code+0x90cc>
    8694:	e8bd4000 	ldmfd	sp!, {lr}
    8698:	ea000012 	b	86e8 <BASIC$$Code+0x86e8>
    869c:	e92d4000 	stmfd	sp!, {lr}
    86a0:	ebfffbff 	bl	76a4 <BASIC$$Code+0x76a4>
    86a4:	e2882c03 	add	r2, r8, #768	; 0x300
    86a8:	e2880c03 	add	r0, r8, #768	; 0x300
    86ac:	e0420000 	sub	r0, r2, r0
    86b0:	e35000ff 	cmp	r0, #255	; 0xff
    86b4:	2a00002c 	bcs	876c <BASIC$$Code+0x876c>
    86b8:	ef00000a 	svc	0x0000000a
    86bc:	23a0000a 	movcs	r0, #10
    86c0:	e330000a 	teq	r0, #10
    86c4:	1330000d 	teqne	r0, #13
    86c8:	03a0000a 	moveq	r0, #10
    86cc:	14c20001 	strbne	r0, [r2], #1
    86d0:	1afffff4 	bne	86a8 <BASIC$$Code+0x86a8>
    86d4:	ea000024 	b	876c <BASIC$$Code+0x876c>
    86d8:	e5db0000 	ldrb	r0, [fp]
    86dc:	e3300023 	teq	r0, #35	; 0x23
    86e0:	0affffed 	beq	869c <BASIC$$Code+0x869c>
    86e4:	ef000004 	svc	0x00000004
    86e8:	e2882c03 	add	r2, r8, #768	; 0x300
    86ec:	e4c20001 	strb	r0, [r2], #1
    86f0:	e3a09000 	mov	r9, #0
    86f4:	e1a0f00e 	mov	pc, lr
    86f8:	e92d4000 	stmfd	sp!, {lr}
    86fc:	ebfffbf8 	bl	76e4 <BASIC$$Code+0x76e4>
    8700:	eb000271 	bl	90cc <BASIC$$Code+0x90cc>
    8704:	e1a01000 	mov	r1, r0
    8708:	e1a02420 	lsr	r2, r0, #8
    870c:	e3a00081 	mov	r0, #129	; 0x81
    8710:	ef000006 	svc	0x00000006
    8714:	e8bd4000 	ldmfd	sp!, {lr}
    8718:	e20100ff 	and	r0, r1, #255	; 0xff
    871c:	e21220ff 	ands	r2, r2, #255	; 0xff
    8720:	0afffff0 	beq	86e8 <BASIC$$Code+0x86e8>
    8724:	e2882c03 	add	r2, r8, #768	; 0x300
    8728:	e3b09000 	movs	r9, #0
    872c:	e1a0f00e 	mov	pc, lr
    8730:	e92d4000 	stmfd	sp!, {lr}
    8734:	ebfffaa8 	bl	71dc <BASIC$$Code+0x71dc>
    8738:	1a00084b 	bne	a86c <BASIC$$Code+0xa86c>
    873c:	e35a002c 	cmp	sl, #44	; 0x2c
    8740:	1a00000b 	bne	8774 <BASIC$$Code+0x8774>
    8744:	ebfffa23 	bl	6fd8 <BASIC$$Code+0x6fd8>
    8748:	ebfffd95 	bl	7da4 <BASIC$$Code+0x7da4>
    874c:	eb00025f 	bl	90d0 <BASIC$$Code+0x90d0>
    8750:	e1a07000 	mov	r7, r0
    8754:	ebfffa34 	bl	702c <BASIC$$Code+0x702c>
    8758:	e2880c03 	add	r0, r8, #768	; 0x300
    875c:	e0422000 	sub	r2, r2, r0
    8760:	e1570002 	cmp	r7, r2
    8764:	31a02007 	movcc	r2, r7
    8768:	e0822000 	add	r2, r2, r0
    876c:	e3b09000 	movs	r9, #0
    8770:	e8bd8000 	ldmfd	sp!, {pc}
    8774:	e35a0029 	cmp	sl, #41	; 0x29
    8778:	1a000823 	bne	a80c <BASIC$$Code+0xa80c>
    877c:	e2880c03 	add	r0, r8, #768	; 0x300
    8780:	e1520000 	cmp	r2, r0
    8784:	12422001 	subne	r2, r2, #1
    8788:	eafffff7 	b	876c <BASIC$$Code+0x876c>
    878c:	e92d4000 	stmfd	sp!, {lr}
    8790:	ebfffa91 	bl	71dc <BASIC$$Code+0x71dc>
    8794:	1a000834 	bne	a86c <BASIC$$Code+0xa86c>
    8798:	ebfffa0e 	bl	6fd8 <BASIC$$Code+0x6fd8>
    879c:	e35a002c 	cmp	sl, #44	; 0x2c
    87a0:	1a000819 	bne	a80c <BASIC$$Code+0xa80c>
    87a4:	ebfffa8c 	bl	71dc <BASIC$$Code+0x71dc>
    87a8:	eb000248 	bl	90d0 <BASIC$$Code+0x90d0>
    87ac:	e92d0001 	stmfd	sp!, {r0}
    87b0:	e3a000ff 	mov	r0, #255	; 0xff
    87b4:	e35a002c 	cmp	sl, #44	; 0x2c
    87b8:	1a000001 	bne	87c4 <BASIC$$Code+0x87c4>
    87bc:	ebfffa86 	bl	71dc <BASIC$$Code+0x71dc>
    87c0:	eb000242 	bl	90d0 <BASIC$$Code+0x90d0>
    87c4:	e35a0029 	cmp	sl, #41	; 0x29
    87c8:	1a000965 	bne	ad64 <BASIC$$Code+0xad64>
    87cc:	e1a07000 	mov	r7, r0
    87d0:	e8bd0040 	ldmfd	sp!, {r6}
    87d4:	ebfffa14 	bl	702c <BASIC$$Code+0x702c>
    87d8:	e2884c03 	add	r4, r8, #768	; 0x300
    87dc:	e0524004 	subs	r4, r2, r4
    87e0:	0affffe1 	beq	876c <BASIC$$Code+0x876c>
    87e4:	e2882c03 	add	r2, r8, #768	; 0x300
    87e8:	e3360000 	teq	r6, #0
    87ec:	12466001 	subne	r6, r6, #1
    87f0:	e0545006 	subs	r5, r4, r6
    87f4:	3affffdc 	bcc	876c <BASIC$$Code+0x876c>
    87f8:	e1570005 	cmp	r7, r5
    87fc:	21a07005 	movcs	r7, r5
    8800:	e3370000 	teq	r7, #0
    8804:	0affffd8 	beq	876c <BASIC$$Code+0x876c>
    8808:	e0866002 	add	r6, r6, r2
    880c:	e4d60001 	ldrb	r0, [r6], #1
    8810:	e4c20001 	strb	r0, [r2], #1
    8814:	e2577001 	subs	r7, r7, #1
    8818:	1afffffb 	bne	880c <BASIC$$Code+0x880c>
    881c:	eaffffd2 	b	876c <BASIC$$Code+0x876c>
    8820:	e92d4000 	stmfd	sp!, {lr}
    8824:	ebfffa6c 	bl	71dc <BASIC$$Code+0x71dc>
    8828:	1a00080f 	bne	a86c <BASIC$$Code+0xa86c>
    882c:	e35a002c 	cmp	sl, #44	; 0x2c
    8830:	1a000010 	bne	8878 <BASIC$$Code+0x8878>
    8834:	ebfff9e7 	bl	6fd8 <BASIC$$Code+0x6fd8>
    8838:	ebfffd59 	bl	7da4 <BASIC$$Code+0x7da4>
    883c:	eb000223 	bl	90d0 <BASIC$$Code+0x90d0>
    8840:	e2886c03 	add	r6, r8, #768	; 0x300
    8844:	e0807006 	add	r7, r0, r6
    8848:	ebfff9f7 	bl	702c <BASIC$$Code+0x702c>
    884c:	e0526007 	subs	r6, r2, r7
    8850:	9affffc5 	bls	876c <BASIC$$Code+0x876c>
    8854:	e2882c03 	add	r2, r8, #768	; 0x300
    8858:	e0860002 	add	r0, r6, r2
    885c:	e1570002 	cmp	r7, r2
    8860:	9affffc1 	bls	876c <BASIC$$Code+0x876c>
    8864:	e4d01001 	ldrb	r1, [r0], #1
    8868:	e4c21001 	strb	r1, [r2], #1
    886c:	e1370002 	teq	r7, r2
    8870:	1afffffb 	bne	8864 <BASIC$$Code+0x8864>
    8874:	eaffffbc 	b	876c <BASIC$$Code+0x876c>
    8878:	e35a0029 	cmp	sl, #41	; 0x29
    887c:	1a0007e2 	bne	a80c <BASIC$$Code+0xa80c>
    8880:	e2880c03 	add	r0, r8, #768	; 0x300
    8884:	e1520000 	cmp	r2, r0
    8888:	9affffb7 	bls	876c <BASIC$$Code+0x876c>
    888c:	e5520001 	ldrb	r0, [r2, #-1]
    8890:	e2882c03 	add	r2, r8, #768	; 0x300
    8894:	e4c20001 	strb	r0, [r2], #1
    8898:	eaffffb3 	b	876c <BASIC$$Code+0x876c>
    889c:	e4dba001 	ldrb	sl, [fp], #1
    88a0:	e35a0020 	cmp	sl, #32
    88a4:	0afffffc 	beq	889c <BASIC$$Code+0x889c>
    88a8:	e35a007e 	cmp	sl, #126	; 0x7e
    88ac:	03a05001 	moveq	r5, #1
    88b0:	13a05000 	movne	r5, #0
    88b4:	124bb001 	subne	fp, fp, #1
    88b8:	e92d4020 	push	{r5, lr}
    88bc:	ebfffb88 	bl	76e4 <BASIC$$Code+0x76e4>
    88c0:	e59840f4 	ldr	r4, [r8, #244]	; 0xf4
    88c4:	e3540401 	cmp	r4, #16777216	; 0x1000000
    88c8:	33a04000 	movcc	r4, #0
    88cc:	e8bd0020 	ldmfd	sp!, {r5}
    88d0:	eb000602 	bl	a0e0 <BASIC$$Code+0xa0e0>
    88d4:	e1a02009 	mov	r2, r9
    88d8:	e3b09000 	movs	r9, #0
    88dc:	e8bd8000 	ldmfd	sp!, {pc}
    88e0:	e92d4000 	stmfd	sp!, {lr}
    88e4:	ebfffa3c 	bl	71dc <BASIC$$Code+0x71dc>
    88e8:	eb0001f8 	bl	90d0 <BASIC$$Code+0x90d0>
    88ec:	e35a002c 	cmp	sl, #44	; 0x2c
    88f0:	1a0007c5 	bne	a80c <BASIC$$Code+0xa80c>
    88f4:	e92d0001 	stmfd	sp!, {r0}
    88f8:	ebfffd29 	bl	7da4 <BASIC$$Code+0x7da4>
    88fc:	1a0007da 	bne	a86c <BASIC$$Code+0xa86c>
    8900:	e8bd4001 	pop	{r0, lr}
    8904:	e2500001 	subs	r0, r0, #1
    8908:	baffff85 	blt	8724 <BASIC$$Code+0x8724>
    890c:	e2881c03 	add	r1, r8, #768	; 0x300
    8910:	11320001 	teqne	r2, r1
    8914:	0affff83 	beq	8728 <BASIC$$Code+0x8728>
    8918:	e1a01002 	mov	r1, r2
    891c:	e2884c03 	add	r4, r8, #768	; 0x300
    8920:	e0815002 	add	r5, r1, r2
    8924:	e0455084 	sub	r5, r5, r4, lsl #1
    8928:	e3550c01 	cmp	r5, #256	; 0x100
    892c:	2a0008c8 	bcs	ac54 <BASIC$$Code+0xac54>
    8930:	e4d45001 	ldrb	r5, [r4], #1
    8934:	e4c25001 	strb	r5, [r2], #1
    8938:	e1310004 	teq	r1, r4
    893c:	1afffffb 	bne	8930 <BASIC$$Code+0x8930>
    8940:	e2500001 	subs	r0, r0, #1
    8944:	1afffff4 	bne	891c <BASIC$$Code+0x891c>
    8948:	e1a0f00e 	mov	pc, lr
    894c:	e92d4000 	stmfd	sp!, {lr}
    8950:	ebfffb53 	bl	76a4 <BASIC$$Code+0x76a4>
    8954:	e3a0007f 	mov	r0, #127	; 0x7f
    8958:	ef000006 	svc	0x00000006
    895c:	e21100ff 	ands	r0, r1, #255	; 0xff
    8960:	13e00000 	mvnne	r0, #0
    8964:	eafffdf9 	b	8150 <BASIC$$Code+0x8150>
    8968:	e3150080 	tst	r5, #128	; 0x80
    896c:	1a0008af 	bne	ac30 <BASIC$$Code+0xac30>
    8970:	e3150902 	tst	r5, #32768	; 0x8000
    8974:	01a0f00e 	moveq	pc, lr
    8978:	e5985294 	ldr	r5, [r8, #660]	; 0x294
    897c:	e3550000 	cmp	r5, #0
    8980:	51a0f00e 	movpl	pc, lr
    8984:	e92d4011 	push	{r0, r4, lr}
    8988:	e3150101 	tst	r5, #1073741824	; 0x40000000
    898c:	0f00015b 	svceq	0x0000015b
    8990:	1f00017b 	svcne	0x0000017b
    8994:	e33a00f2 	teq	sl, #242	; 0xf2
    8998:	1a000003 	bne	89ac <BASIC$$Code+0x89ac>
    899c:	ebffe175 	bl	f78 <BASIC$$Code+0xf78>
    89a0:	434f5250 	movtmi	r5, #62032	; 0xf250
    89a4:	00000000 	andeq	r0, r0, r0
    89a8:	ea000001 	b	89b4 <BASIC$$Code+0x89b4>
    89ac:	ebffe171 	bl	f78 <BASIC$$Code+0xf78>
    89b0:	00004e46 	andeq	r4, r0, r6, asr #28
    89b4:	e1a00003 	mov	r0, r3
    89b8:	ef000000 	svc	0x00000000
    89bc:	e134000b 	teq	r4, fp
    89c0:	0a000002 	beq	89d0 <BASIC$$Code+0x89d0>
    89c4:	e4d40001 	ldrb	r0, [r4], #1
    89c8:	ef000000 	svc	0x00000000
    89cc:	eafffffa 	b	89bc <BASIC$$Code+0x89bc>
    89d0:	e33a00f2 	teq	sl, #242	; 0xf2
    89d4:	eb000000 	bl	89dc <BASIC$$Code+0x89dc>
    89d8:	e8bd8011 	pop	{r0, r4, pc}
    89dc:	e3150101 	tst	r5, #1073741824	; 0x40000000
    89e0:	0f00015d 	svceq	0x0000015d
    89e4:	1f00017d 	svcne	0x0000017d
    89e8:	ef000120 	svc	0x00000120
    89ec:	1f000004 	svcne	0x00000004
    89f0:	e1a0f00e 	mov	pc, lr
    89f4:	e5d50001 	ldrb	r0, [r5, #1]
    89f8:	e35000ff 	cmp	r0, #255	; 0xff
    89fc:	01a0f00e 	moveq	pc, lr
    8a00:	e2852004 	add	r2, r5, #4
    8a04:	e5d50003 	ldrb	r0, [r5, #3]
    8a08:	e0855000 	add	r5, r5, r0
    8a0c:	e4d20001 	ldrb	r0, [r2], #1
    8a10:	e3500020 	cmp	r0, #32
    8a14:	0afffffc 	beq	8a0c <BASIC$$Code+0x8a0c>
    8a18:	e35000dd 	cmp	r0, #221	; 0xdd
    8a1c:	1afffff4 	bne	89f4 <BASIC$$Code+0x89f4>
    8a20:	e4d20001 	ldrb	r0, [r2], #1
    8a24:	e3500020 	cmp	r0, #32
    8a28:	0afffffc 	beq	8a20 <BASIC$$Code+0x8a20>
    8a2c:	e130000a 	teq	r0, sl
    8a30:	04d20001 	ldrbeq	r0, [r2], #1
    8a34:	01300003 	teqeq	r0, r3
    8a38:	1affffed 	bne	89f4 <BASIC$$Code+0x89f4>
    8a3c:	e1a07004 	mov	r7, r4
    8a40:	e4d20001 	ldrb	r0, [r2], #1
    8a44:	e137000b 	teq	r7, fp
    8a48:	0a000003 	beq	8a5c <BASIC$$Code+0x8a5c>
    8a4c:	e4d76001 	ldrb	r6, [r7], #1
    8a50:	e1360000 	teq	r6, r0
    8a54:	0afffff9 	beq	8a40 <BASIC$$Code+0x8a40>
    8a58:	eaffffe5 	b	89f4 <BASIC$$Code+0x89f4>
    8a5c:	e1a0600e 	mov	r6, lr
    8a60:	ebffe1a0 	bl	10e8 <BASIC$$Code+0x10e8>
    8a64:	e1b0e006 	movs	lr, r6
    8a68:	2affffe1 	bcs	89f4 <BASIC$$Code+0x89f4>
    8a6c:	e1a0f00e 	mov	pc, lr
    8a70:	e5985160 	ldr	r5, [r8, #352]	; 0x160
    8a74:	ebffffde 	bl	89f4 <BASIC$$Code+0x89f4>
    8a78:	1a000013 	bne	8acc <BASIC$$Code+0x8acc>
    8a7c:	e59812a4 	ldr	r1, [r8, #676]	; 0x2a4
    8a80:	e3510000 	cmp	r1, #0
    8a84:	0a000005 	beq	8aa0 <BASIC$$Code+0x8aa0>
    8a88:	e2815004 	add	r5, r1, #4
    8a8c:	ebffffd8 	bl	89f4 <BASIC$$Code+0x89f4>
    8a90:	1a00000d 	bne	8acc <BASIC$$Code+0x8acc>
    8a94:	e5911000 	ldr	r1, [r1]
    8a98:	e3510000 	cmp	r1, #0
    8a9c:	1afffff9 	bne	8a88 <BASIC$$Code+0x8a88>
    8aa0:	e59812a0 	ldr	r1, [r8, #672]	; 0x2a0
    8aa4:	e3510000 	cmp	r1, #0
    8aa8:	0a0008cc 	beq	ade0 <BASIC$$Code+0xade0>
    8aac:	e2815004 	add	r5, r1, #4
    8ab0:	ebffffcf 	bl	89f4 <BASIC$$Code+0x89f4>
    8ab4:	1a000004 	bne	8acc <BASIC$$Code+0x8acc>
    8ab8:	e5911000 	ldr	r1, [r1]
    8abc:	e3510000 	cmp	r1, #0
    8ac0:	1afffff9 	bne	8aac <BASIC$$Code+0x8aac>
    8ac4:	ea0008c5 	b	ade0 <BASIC$$Code+0xade0>
    8ac8:	e4d20001 	ldrb	r0, [r2], #1
    8acc:	e3500020 	cmp	r0, #32
    8ad0:	0afffffc 	beq	8ac8 <BASIC$$Code+0x8ac8>
    8ad4:	e3a01000 	mov	r1, #0
    8ad8:	e3500028 	cmp	r0, #40	; 0x28
    8adc:	12422001 	subne	r2, r2, #1
    8ae0:	e92d0002 	stmfd	sp!, {r1}
    8ae4:	1a00001b 	bne	8b58 <BASIC$$Code+0x8b58>
    8ae8:	e92d1c18 	push	{r3, r4, sl, fp, ip}
    8aec:	e1a0b002 	mov	fp, r2
    8af0:	e1a0c002 	mov	ip, r2
    8af4:	ebffe153 	bl	1048 <BASIC$$Code+0x1048>
    8af8:	e33a00f8 	teq	sl, #248	; 0xf8
    8afc:	e92d0400 	stmfd	sp!, {sl}
    8b00:	0bffe150 	bleq	1048 <BASIC$$Code+0x1048>
    8b04:	ebfff854 	bl	6c5c <BASIC$$Code+0x6c5c>
    8b08:	1a000001 	bne	8b14 <BASIC$$Code+0x8b14>
    8b0c:	2a000882 	bcs	ad1c <BASIC$$Code+0xad1c>
    8b10:	ebfff7da 	bl	6a80 <BASIC$$Code+0x6a80>
    8b14:	e3590c01 	cmp	r9, #256	; 0x100
    8b18:	23899912 	orrcs	r9, r9, #294912	; 0x48000
    8b1c:	31899809 	orrcc	r9, r9, r9, lsl #16
    8b20:	e8bd0010 	ldmfd	sp!, {r4}
    8b24:	e33400f8 	teq	r4, #248	; 0xf8
    8b28:	03190c01 	tsteq	r9, #256	; 0x100
    8b2c:	03899c05 	orreq	r9, r9, #1280	; 0x500
    8b30:	e8bd007c 	pop	{r2, r3, r4, r5, r6}
    8b34:	e92d0201 	push	{r0, r9}
    8b38:	e92d007c 	push	{r2, r3, r4, r5, r6}
    8b3c:	ebffe141 	bl	1048 <BASIC$$Code+0x1048>
    8b40:	e33a002c 	teq	sl, #44	; 0x2c
    8b44:	0affffea 	beq	8af4 <BASIC$$Code+0x8af4>
    8b48:	e33a0029 	teq	sl, #41	; 0x29
    8b4c:	1a000884 	bne	ad64 <BASIC$$Code+0xad64>
    8b50:	e1a0200b 	mov	r2, fp
    8b54:	e8bd1c18 	pop	{r3, r4, sl, fp, ip}
    8b58:	e92d0004 	stmfd	sp!, {r2}
    8b5c:	e2880000 	add	r0, r8, #0
    8b60:	e33a00a4 	teq	sl, #164	; 0xa4
    8b64:	028800f0 	addeq	r0, r8, #240	; 0xf0
    8b68:	e3a09000 	mov	r9, #0
    8b6c:	ebfff7c5 	bl	6a88 <BASIC$$Code+0x6a88>
    8b70:	e2822003 	add	r2, r2, #3
    8b74:	e3c22003 	bic	r2, r2, #3
    8b78:	e8bd0080 	ldmfd	sp!, {r7}
    8b7c:	e1a00002 	mov	r0, r2
    8b80:	e8bd0010 	ldmfd	sp!, {r4}
    8b84:	e3340000 	teq	r4, #0
    8b88:	0a00000b 	beq	8bbc <BASIC$$Code+0x8bbc>
    8b8c:	e92d0010 	stmfd	sp!, {r4}
    8b90:	e1a0100d 	mov	r1, sp
    8b94:	e4915008 	ldr	r5, [r1], #8
    8b98:	e3350000 	teq	r5, #0
    8b9c:	1afffffc 	bne	8b94 <BASIC$$Code+0x8b94>
    8ba0:	e2416008 	sub	r6, r1, #8
    8ba4:	e9360030 	ldmdb	r6!, {r4, r5}
    8ba8:	e8a20030 	stmia	r2!, {r4, r5}
    8bac:	e136000d 	teq	r6, sp
    8bb0:	1afffffb 	bne	8ba4 <BASIC$$Code+0x8ba4>
    8bb4:	e241d004 	sub	sp, r1, #4
    8bb8:	e3a04000 	mov	r4, #0
    8bbc:	e92d1400 	push	{sl, ip}
    8bc0:	e1a0c007 	mov	ip, r7
    8bc4:	ebfff0c7 	bl	4ee8 <BASIC$$Code+0x4ee8>
    8bc8:	e8a21010 	stmia	r2!, {r4, ip}
    8bcc:	e8bd1400 	pop	{sl, ip}
    8bd0:	e2822003 	add	r2, r2, #3
    8bd4:	e3c22003 	bic	r2, r2, #3
    8bd8:	e5882170 	str	r2, [r8, #368]	; 0x170
    8bdc:	ea000026 	b	8c7c <BASIC$$Code+0x8c7c>
    8be0:	e59810f0 	ldr	r1, [r8, #240]	; 0xf0
    8be4:	e92d4000 	stmfd	sp!, {lr}
    8be8:	e3a00000 	mov	r0, #0
    8bec:	e92d0001 	stmfd	sp!, {r0}
    8bf0:	e4db3001 	ldrb	r3, [fp], #1
    8bf4:	e1a0400b 	mov	r4, fp
    8bf8:	e353007a 	cmp	r3, #122	; 0x7a
    8bfc:	8a00087f 	bhi	ae00 <BASIC$$Code+0xae00>
    8c00:	e353005f 	cmp	r3, #95	; 0x5f
    8c04:	2a000007 	bcs	8c28 <BASIC$$Code+0x8c28>
    8c08:	e353005a 	cmp	r3, #90	; 0x5a
    8c0c:	8a00087b 	bhi	ae00 <BASIC$$Code+0xae00>
    8c10:	e3530040 	cmp	r3, #64	; 0x40
    8c14:	2a000003 	bcs	8c28 <BASIC$$Code+0x8c28>
    8c18:	e3530039 	cmp	r3, #57	; 0x39
    8c1c:	8a000877 	bhi	ae00 <BASIC$$Code+0xae00>
    8c20:	e3530030 	cmp	r3, #48	; 0x30
    8c24:	3a000875 	bcc	ae00 <BASIC$$Code+0xae00>
    8c28:	e4db5001 	ldrb	r5, [fp], #1
    8c2c:	e355007a 	cmp	r5, #122	; 0x7a
    8c30:	8a000009 	bhi	8c5c <BASIC$$Code+0x8c5c>
    8c34:	e355005f 	cmp	r5, #95	; 0x5f
    8c38:	2afffffa 	bcs	8c28 <BASIC$$Code+0x8c28>
    8c3c:	e355005a 	cmp	r5, #90	; 0x5a
    8c40:	8a000005 	bhi	8c5c <BASIC$$Code+0x8c5c>
    8c44:	e3550040 	cmp	r5, #64	; 0x40
    8c48:	2afffff6 	bcs	8c28 <BASIC$$Code+0x8c28>
    8c4c:	e3550039 	cmp	r5, #57	; 0x39
    8c50:	8a000001 	bhi	8c5c <BASIC$$Code+0x8c5c>
    8c54:	e3550030 	cmp	r5, #48	; 0x30
    8c58:	2afffff2 	bcs	8c28 <BASIC$$Code+0x8c28>
    8c5c:	e24bb001 	sub	fp, fp, #1
    8c60:	e5985290 	ldr	r5, [r8, #656]	; 0x290
    8c64:	e3550000 	cmp	r5, #0
    8c68:	1bffff3e 	blne	8968 <BASIC$$Code+0x8968>
    8c6c:	ebfff76b 	bl	6a20 <BASIC$$Code+0x6a20>
    8c70:	1affff7e 	bne	8a70 <BASIC$$Code+0x8a70>
    8c74:	e2800003 	add	r0, r0, #3
    8c78:	e3c00003 	bic	r0, r0, #3
    8c7c:	e4db5001 	ldrb	r5, [fp], #1
    8c80:	e3550020 	cmp	r5, #32
    8c84:	0afffffc 	beq	8c7c <BASIC$$Code+0x8c7c>
    8c88:	e3550028 	cmp	r5, #40	; 0x28
    8c8c:	0a000006 	beq	8cac <BASIC$$Code+0x8cac>
    8c90:	e24bb001 	sub	fp, fp, #1
    8c94:	e8900030 	ldm	r0, {r4, r5}
    8c98:	e3340000 	teq	r4, #0
    8c9c:	1a000860 	bne	ae24 <BASIC$$Code+0xae24>
    8ca0:	e92d1c00 	push	{sl, fp, ip}
    8ca4:	e1a0c005 	mov	ip, r5
    8ca8:	eaffdee2 	b	838 <BASIC$$Code+0x838>
    8cac:	e1a06000 	mov	r6, r0
    8cb0:	e1a05000 	mov	r5, r0
    8cb4:	e8b50201 	ldm	r5!, {r0, r9}
    8cb8:	e3300000 	teq	r0, #0
    8cbc:	0a000005 	beq	8cd8 <BASIC$$Code+0x8cd8>
    8cc0:	e1a09829 	lsr	r9, r9, #16
    8cc4:	ebfffbf0 	bl	7c8c <BASIC$$Code+0x7c8c>
    8cc8:	ebfff8be 	bl	6fc8 <BASIC$$Code+0x6fc8>
    8ccc:	e8b50201 	ldm	r5!, {r0, r9}
    8cd0:	e3300000 	teq	r0, #0
    8cd4:	1afffff9 	bne	8cc0 <BASIC$$Code+0x8cc0>
    8cd8:	e385e103 	orr	lr, r5, #-1073741824	; 0xc0000000
    8cdc:	e92d0040 	stmfd	sp!, {r6}
    8ce0:	e92d4420 	push	{r5, sl, lr}
    8ce4:	e1a07006 	mov	r7, r6
    8ce8:	e8b60030 	ldm	r6!, {r4, r5}
    8cec:	e3340000 	teq	r4, #0
    8cf0:	0a00084b 	beq	ae24 <BASIC$$Code+0xae24>
    8cf4:	e92d00c0 	push	{r6, r7}
    8cf8:	e3150c01 	tst	r5, #256	; 0x100
    8cfc:	1a000020 	bne	8d84 <BASIC$$Code+0x8d84>
    8d00:	ebfff935 	bl	71dc <BASIC$$Code+0x71dc>
    8d04:	e8bd00c0 	pop	{r6, r7}
    8d08:	ebfff8ae 	bl	6fc8 <BASIC$$Code+0x6fc8>
    8d0c:	e92d0200 	stmfd	sp!, {r9}
    8d10:	e35a002c 	cmp	sl, #44	; 0x2c
    8d14:	0afffff3 	beq	8ce8 <BASIC$$Code+0x8ce8>
    8d18:	e35a0029 	cmp	sl, #41	; 0x29
    8d1c:	e5965000 	ldr	r5, [r6]
    8d20:	03350000 	teqeq	r5, #0
    8d24:	1a00083e 	bne	ae24 <BASIC$$Code+0xae24>
    8d28:	ebfff8ba 	bl	7018 <BASIC$$Code+0x7018>
    8d2c:	e9360030 	ldmdb	r6!, {r4, r5}
    8d30:	e92d00e0 	push	{r5, r6, r7}
    8d34:	e1a05825 	lsr	r5, r5, #16
    8d38:	ebfff09e 	bl	4fb8 <BASIC$$Code+0x4fb8>
    8d3c:	e8bd00e0 	pop	{r5, r6, r7}
    8d40:	e1560007 	cmp	r6, r7
    8d44:	1afffff7 	bne	8d28 <BASIC$$Code+0x8d28>
    8d48:	e8bd0401 	pop	{r0, sl}
    8d4c:	e92d1c00 	push	{sl, fp, ip}
    8d50:	e510c004 	ldr	ip, [r0, #-4]
    8d54:	eaffdeb7 	b	838 <BASIC$$Code+0x838>
    8d58:	e8b60030 	ldm	r6!, {r4, r5}
    8d5c:	e3340000 	teq	r4, #0
    8d60:	0a00082f 	beq	ae24 <BASIC$$Code+0xae24>
    8d64:	e92d00c0 	push	{r6, r7}
    8d68:	e3150c01 	tst	r5, #256	; 0x100
    8d6c:	1a000004 	bne	8d84 <BASIC$$Code+0x8d84>
    8d70:	ebfff919 	bl	71dc <BASIC$$Code+0x71dc>
    8d74:	e8bd00c0 	pop	{r6, r7}
    8d78:	ebfff892 	bl	6fc8 <BASIC$$Code+0x6fc8>
    8d7c:	e92d0200 	stmfd	sp!, {r9}
    8d80:	ea00001c 	b	8df8 <BASIC$$Code+0x8df8>
    8d84:	e3150902 	tst	r5, #32768	; 0x8000
    8d88:	0a00000e 	beq	8dc8 <BASIC$$Code+0x8dc8>
    8d8c:	e92d0020 	stmfd	sp!, {r5}
    8d90:	ebfff7ae 	bl	6c50 <BASIC$$Code+0x6c50>
    8d94:	0a000838 	beq	ae7c <BASIC$$Code+0xae7c>
    8d98:	e3590c01 	cmp	r9, #256	; 0x100
    8d9c:	3a000836 	bcc	ae7c <BASIC$$Code+0xae7c>
    8da0:	e8bd0080 	ldmfd	sp!, {r7}
    8da4:	e3c77aff 	bic	r7, r7, #1044480	; 0xff000
    8da8:	e1590007 	cmp	r9, r7
    8dac:	1a0006de 	bne	a92c <BASIC$$Code+0xa92c>
    8db0:	e8bd00c0 	pop	{r6, r7}
    8db4:	e5900000 	ldr	r0, [r0]
    8db8:	e92d0001 	stmfd	sp!, {r0}
    8dbc:	e3a09004 	mov	r9, #4
    8dc0:	e92d0200 	stmfd	sp!, {r9}
    8dc4:	ea000008 	b	8dec <BASIC$$Code+0x8dec>
    8dc8:	ebfff7a0 	bl	6c50 <BASIC$$Code+0x6c50>
    8dcc:	1a000001 	bne	8dd8 <BASIC$$Code+0x8dd8>
    8dd0:	2a00081f 	bcs	ae54 <BASIC$$Code+0xae54>
    8dd4:	ebfff729 	bl	6a80 <BASIC$$Code+0x6a80>
    8dd8:	e8bd00c0 	pop	{r6, r7}
    8ddc:	e92d0201 	push	{r0, r9}
    8de0:	ebfffba9 	bl	7c8c <BASIC$$Code+0x7c8c>
    8de4:	ebfff877 	bl	6fc8 <BASIC$$Code+0x6fc8>
    8de8:	e92d0200 	stmfd	sp!, {r9}
    8dec:	e4dba001 	ldrb	sl, [fp], #1
    8df0:	e35a0020 	cmp	sl, #32
    8df4:	0afffffc 	beq	8dec <BASIC$$Code+0x8dec>
    8df8:	e35a002c 	cmp	sl, #44	; 0x2c
    8dfc:	0affffd5 	beq	8d58 <BASIC$$Code+0x8d58>
    8e00:	e35a0029 	cmp	sl, #41	; 0x29
    8e04:	e5965000 	ldr	r5, [r6]
    8e08:	03350000 	teqeq	r5, #0
    8e0c:	1a000804 	bne	ae24 <BASIC$$Code+0xae24>
    8e10:	e24dac01 	sub	sl, sp, #256	; 0x100
    8e14:	ebfff87f 	bl	7018 <BASIC$$Code+0x7018>
    8e18:	e9360030 	ldmdb	r6!, {r4, r5}
    8e1c:	e92d00e0 	push	{r5, r6, r7}
    8e20:	e1a05825 	lsr	r5, r5, #16
    8e24:	ebfff063 	bl	4fb8 <BASIC$$Code+0x4fb8>
    8e28:	e8bd00e0 	pop	{r5, r6, r7}
    8e2c:	e3150b01 	tst	r5, #1024	; 0x400
    8e30:	18bd0030 	popne	{r4, r5}
    8e34:	18aa0030 	stmiane	sl!, {r4, r5}
    8e38:	e1560007 	cmp	r6, r7
    8e3c:	1afffff4 	bne	8e14 <BASIC$$Code+0x8e14>
    8e40:	e8bd0401 	pop	{r0, sl}
    8e44:	e2400008 	sub	r0, r0, #8
    8e48:	eaffff91 	b	8c94 <BASIC$$Code+0x8c94>
    8e4c:	ebfff8e1 	bl	71d8 <BASIC$$Code+0x71d8>
    8e50:	ebffe093 	bl	10a4 <BASIC$$Code+0x10a4>
    8e54:	e8bd0010 	ldmfd	sp!, {r4}
    8e58:	e35400a4 	cmp	r4, #164	; 0xa4
    8e5c:	1a000002 	bne	8e6c <BASIC$$Code+0x8e6c>
    8e60:	eb000005 	bl	8e7c <BASIC$$Code+0x8e7c>
    8e64:	e3390000 	teq	r9, #0
    8e68:	e8bd8000 	ldmfd	sp!, {pc}
    8e6c:	e24dd004 	sub	sp, sp, #4
    8e70:	ebffea68 	bl	3818 <BASIC$$Code+0x3818>
    8e74:	0afffff6 	beq	8e54 <BASIC$$Code+0x8e54>
    8e78:	ea0006bf 	b	a97c <BASIC$$Code+0xa97c>
    8e7c:	e8bd1800 	pop	{fp, ip}
    8e80:	e8bd0010 	ldmfd	sp!, {r4}
    8e84:	e3340000 	teq	r4, #0
    8e88:	01a0f00e 	moveq	pc, lr
    8e8c:	e1a0a00e 	mov	sl, lr
    8e90:	e3540103 	cmp	r4, #-1073741824	; 0xc0000000
    8e94:	2a000008 	bcs	8ebc <BASIC$$Code+0x8ebc>
    8e98:	e1a06004 	mov	r6, r4
    8e9c:	e8bd0080 	ldmfd	sp!, {r7}
    8ea0:	eb000012 	bl	8ef0 <BASIC$$Code+0x8ef0>
    8ea4:	e3a08906 	mov	r8, #98304	; 0x18000
    8ea8:	e8bd0010 	ldmfd	sp!, {r4}
    8eac:	e3340000 	teq	r4, #0
    8eb0:	01a0f00a 	moveq	pc, sl
    8eb4:	e3540103 	cmp	r4, #-1073741824	; 0xc0000000
    8eb8:	3afffff6 	bcc	8e98 <BASIC$$Code+0x8e98>
    8ebc:	e3c44103 	bic	r4, r4, #-1073741824	; 0xc0000000
    8ec0:	e8bd0020 	ldmfd	sp!, {r5}
    8ec4:	e2444008 	sub	r4, r4, #8
    8ec8:	e93400c0 	ldmdb	r4!, {r6, r7}
    8ecc:	e1a07827 	lsr	r7, r7, #16
    8ed0:	eb000006 	bl	8ef0 <BASIC$$Code+0x8ef0>
    8ed4:	e1540005 	cmp	r4, r5
    8ed8:	1afffffa 	bne	8ec8 <BASIC$$Code+0x8ec8>
    8edc:	e3a08906 	mov	r8, #98304	; 0x18000
    8ee0:	e8bd0010 	ldmfd	sp!, {r4}
    8ee4:	e3340000 	teq	r4, #0
    8ee8:	01a0f00a 	moveq	pc, sl
    8eec:	ea0005d4 	b	a644 <BASIC$$Code+0xa644>
    8ef0:	e3570005 	cmp	r7, #5
    8ef4:	0a000005 	beq	8f10 <BASIC$$Code+0x8f10>
    8ef8:	2a000011 	bcs	8f44 <BASIC$$Code+0x8f44>
    8efc:	e3570004 	cmp	r7, #4
    8f00:	e8bd0080 	ldmfd	sp!, {r7}
    8f04:	0a000006 	beq	8f24 <BASIC$$Code+0x8f24>
    8f08:	e5c67000 	strb	r7, [r6]
    8f0c:	e1a0f00e 	mov	pc, lr
    8f10:	e8bd0180 	pop	{r7, r8}
    8f14:	e5c68004 	strb	r8, [r6, #4]
    8f18:	e3c77102 	bic	r7, r7, #-2147483648	; 0x80000000
    8f1c:	e2088102 	and	r8, r8, #-2147483648	; 0x80000000
    8f20:	e1877008 	orr	r7, r7, r8
    8f24:	e5c67000 	strb	r7, [r6]
    8f28:	e1a07467 	ror	r7, r7, #8
    8f2c:	e5c67001 	strb	r7, [r6, #1]
    8f30:	e1a07467 	ror	r7, r7, #8
    8f34:	e5c67002 	strb	r7, [r6, #2]
    8f38:	e1a07467 	ror	r7, r7, #8
    8f3c:	e5c67003 	strb	r7, [r6, #3]
    8f40:	e1a0f00e 	mov	pc, lr
    8f44:	e3570080 	cmp	r7, #128	; 0x80
    8f48:	1a00000c 	bne	8f80 <BASIC$$Code+0x8f80>
    8f4c:	e92d403f 	push	{r0, r1, r2, r3, r4, r5, lr}
    8f50:	e28d301c 	add	r3, sp, #28
    8f54:	e8b30004 	ldm	r3!, {r2}
    8f58:	e3a08906 	mov	r8, #98304	; 0x18000
    8f5c:	e2884c03 	add	r4, r8, #768	; 0x300
    8f60:	e0422004 	sub	r2, r2, r4
    8f64:	e0822003 	add	r2, r2, r3
    8f68:	e1a04006 	mov	r4, r6
    8f6c:	ebfff03d 	bl	5068 <BASIC$$Code+0x5068>
    8f70:	e2827003 	add	r7, r2, #3
    8f74:	e8bd403f 	pop	{r0, r1, r2, r3, r4, r5, lr}
    8f78:	e3c7d003 	bic	sp, r7, #3
    8f7c:	e1a0f00e 	mov	pc, lr
    8f80:	e8bd0080 	ldmfd	sp!, {r7}
    8f84:	e2477906 	sub	r7, r7, #98304	; 0x18000
    8f88:	e2577c03 	subs	r7, r7, #768	; 0x300
    8f8c:	0a000005 	beq	8fa8 <BASIC$$Code+0x8fa8>
    8f90:	e4dd8001 	ldrb	r8, [sp], #1
    8f94:	e4c68001 	strb	r8, [r6], #1
    8f98:	e2577001 	subs	r7, r7, #1
    8f9c:	1afffffb 	bne	8f90 <BASIC$$Code+0x8f90>
    8fa0:	e28dd003 	add	sp, sp, #3
    8fa4:	e3cdd003 	bic	sp, sp, #3
    8fa8:	e3a0700d 	mov	r7, #13
    8fac:	e5c67000 	strb	r7, [r6]
    8fb0:	e1a0f00e 	mov	pc, lr
    8fb4:	e0922002 	adds	r2, r2, r2
    8fb8:	e0a00000 	adc	r0, r0, r0
    8fbc:	e1a03f22 	lsr	r3, r2, #30
    8fc0:	e1833100 	orr	r3, r3, r0, lsl #2
    8fc4:	e0922102 	adds	r2, r2, r2, lsl #2
    8fc8:	e0b00003 	adcs	r0, r0, r3
    8fcc:	e1a0f00e 	mov	pc, lr
    8fd0:	e1a06f00 	lsl	r6, r0, #30
    8fd4:	e1866122 	orr	r6, r6, r2, lsr #2
    8fd8:	e0922006 	adds	r2, r2, r6
    8fdc:	e0b00120 	adcs	r0, r0, r0, lsr #2
    8fe0:	e2811003 	add	r1, r1, #3
    8fe4:	31a0f00e 	movcc	pc, lr
    8fe8:	e2811001 	add	r1, r1, #1
    8fec:	e1b00060 	rrxs	r0, r0
    8ff0:	e1a02062 	rrx	r2, r2
    8ff4:	e1b0f00e 	movs	pc, lr
    8ff8:	e92d4000 	stmfd	sp!, {lr}
    8ffc:	e11000a0 	tst	r0, r0, lsr #1
    9000:	e0922062 	adds	r2, r2, r2, rrx
    9004:	e0b000a0 	adcs	r0, r0, r0, lsr #1
    9008:	e2411004 	sub	r1, r1, #4
    900c:	2bfffff5 	blcs	8fe8 <BASIC$$Code+0x8fe8>
    9010:	e1a06e00 	lsl	r6, r0, #28
    9014:	e1866222 	orr	r6, r6, r2, lsr #4
    9018:	e0922006 	adds	r2, r2, r6
    901c:	e0b00220 	adcs	r0, r0, r0, lsr #4
    9020:	2bfffff0 	blcs	8fe8 <BASIC$$Code+0x8fe8>
    9024:	e1a06c00 	lsl	r6, r0, #24
    9028:	e1866422 	orr	r6, r6, r2, lsr #8
    902c:	e0922006 	adds	r2, r2, r6
    9030:	e0b00420 	adcs	r0, r0, r0, lsr #8
    9034:	2bffffeb 	blcs	8fe8 <BASIC$$Code+0x8fe8>
    9038:	e1a06800 	lsl	r6, r0, #16
    903c:	e1866822 	orr	r6, r6, r2, lsr #16
    9040:	e0922006 	adds	r2, r2, r6
    9044:	e0b00820 	adcs	r0, r0, r0, lsr #16
    9048:	2bffffe6 	blcs	8fe8 <BASIC$$Code+0x8fe8>
    904c:	e3822001 	orr	r2, r2, #1
    9050:	e0922000 	adds	r2, r2, r0
    9054:	e2b00000 	adcs	r0, r0, #0
    9058:	2bffffe2 	blcs	8fe8 <BASIC$$Code+0x8fe8>
    905c:	e8bd8000 	ldmfd	sp!, {pc}
    9060:	e3390000 	teq	r9, #0
    9064:	41a0f00e 	movmi	pc, lr
    9068:	0a0005eb 	beq	a81c <BASIC$$Code+0xa81c>
    906c:	e3a09102 	mov	r9, #-2147483648	; 0x80000000
    9070:	e1b03000 	movs	r3, r0
    9074:	0a000012 	beq	90c4 <BASIC$$Code+0x90c4>
    9078:	e2033102 	and	r3, r3, #-2147483648	; 0x80000000
    907c:	42600000 	rsbmi	r0, r0, #0
    9080:	e3a010a0 	mov	r1, #160	; 0xa0
    9084:	e3500801 	cmp	r0, #65536	; 0x10000
    9088:	31a00800 	lslcc	r0, r0, #16
    908c:	32411010 	subcc	r1, r1, #16
    9090:	e3500401 	cmp	r0, #16777216	; 0x1000000
    9094:	31a00400 	lslcc	r0, r0, #8
    9098:	32411008 	subcc	r1, r1, #8
    909c:	e3500201 	cmp	r0, #268435456	; 0x10000000
    90a0:	31a00200 	lslcc	r0, r0, #4
    90a4:	32411004 	subcc	r1, r1, #4
    90a8:	e3500101 	cmp	r0, #1073741824	; 0x40000000
    90ac:	31a00100 	lslcc	r0, r0, #2
    90b0:	32411002 	subcc	r1, r1, #2
    90b4:	e3500102 	cmp	r0, #-2147483648	; 0x80000000
    90b8:	31a00080 	lslcc	r0, r0, #1
    90bc:	32411001 	subcc	r1, r1, #1
    90c0:	e1a0f00e 	mov	pc, lr
    90c4:	e3a01000 	mov	r1, #0
    90c8:	e1a0f00e 	mov	pc, lr
    90cc:	e3390000 	teq	r9, #0
    90d0:	0a0005d1 	beq	a81c <BASIC$$Code+0xa81c>
    90d4:	51a0f00e 	movpl	pc, lr
    90d8:	e3a09101 	mov	r9, #1073741824	; 0x40000000
    90dc:	e2511080 	subs	r1, r1, #128	; 0x80
    90e0:	9a000148 	bls	9608 <BASIC$$Code+0x9608>
    90e4:	e2711020 	rsbs	r1, r1, #32
    90e8:	9a0006df 	bls	ac6c <BASIC$$Code+0xac6c>
    90ec:	e1a00130 	lsr	r0, r0, r1
    90f0:	e3330000 	teq	r3, #0
    90f4:	42600000 	rsbmi	r0, r0, #0
    90f8:	e1a0f00e 	mov	pc, lr
    90fc:	e2511080 	subs	r1, r1, #128	; 0x80
    9100:	3a000140 	bcc	9608 <BASIC$$Code+0x9608>
    9104:	e1a02110 	lsl	r2, r0, r1
    9108:	e2711020 	rsbs	r1, r1, #32
    910c:	9a0006d6 	bls	ac6c <BASIC$$Code+0xac6c>
    9110:	e1a00130 	lsr	r0, r0, r1
    9114:	e3320000 	teq	r2, #0
    9118:	42800001 	addmi	r0, r0, #1
    911c:	e3330000 	teq	r3, #0
    9120:	42600000 	rsbmi	r0, r0, #0
    9124:	e1a0f00e 	mov	pc, lr
    9128:	e2515080 	subs	r5, r1, #128	; 0x80
    912c:	3a00013e 	bcc	962c <BASIC$$Code+0x962c>
    9130:	e1a04000 	mov	r4, r0
    9134:	e2756020 	rsbs	r6, r5, #32
    9138:	3a0006cb 	bcc	ac6c <BASIC$$Code+0xac6c>
    913c:	e3a02000 	mov	r2, #0
    9140:	e1a06630 	lsr	r6, r0, r6
    9144:	e3330000 	teq	r3, #0
    9148:	42666000 	rsbmi	r6, r6, #0
    914c:	e3a01080 	mov	r1, #128	; 0x80
    9150:	e1b00514 	lsls	r0, r4, r5
    9154:	5a00011d 	bpl	95d0 <BASIC$$Code+0x95d0>
    9158:	e2333102 	eors	r3, r3, #-2147483648	; 0x80000000
    915c:	42866001 	addmi	r6, r6, #1
    9160:	52466001 	subpl	r6, r6, #1
    9164:	e2700000 	rsbs	r0, r0, #0
    9168:	ea000118 	b	95d0 <BASIC$$Code+0x95d0>
    916c:	e8bd4800 	pop	{fp, lr}
    9170:	e3300000 	teq	r0, #0
    9174:	01a0f00e 	moveq	pc, lr
    9178:	e92d4000 	stmfd	sp!, {lr}
    917c:	e3a03000 	mov	r3, #0
    9180:	e1a04000 	mov	r4, r0
    9184:	e0811001 	add	r1, r1, r1
    9188:	eb00013c 	bl	9680 <BASIC$$Code+0x9680>
    918c:	e8bd4000 	ldmfd	sp!, {lr}
    9190:	e3520102 	cmp	r2, #-2147483648	; 0x80000000
    9194:	3a000003 	bcc	91a8 <BASIC$$Code+0x91a8>
    9198:	03c00001 	biceq	r0, r0, #1
    919c:	e2900001 	adds	r0, r0, #1
    91a0:	21a00060 	rrxcs	r0, r0
    91a4:	22811001 	addcs	r1, r1, #1
    91a8:	e3510c01 	cmp	r1, #256	; 0x100
    91ac:	31a0f00e 	movcc	pc, lr
    91b0:	e3310000 	teq	r1, #0
    91b4:	4a000113 	bmi	9608 <BASIC$$Code+0x9608>
    91b8:	ea0006ab 	b	ac6c <BASIC$$Code+0xac6c>
    91bc:	e3300000 	teq	r0, #0
    91c0:	0a000110 	beq	9608 <BASIC$$Code+0x9608>
    91c4:	e3c96003 	bic	r6, r9, #3
    91c8:	e8960030 	ldm	r6, {r4, r5}
    91cc:	e2096003 	and	r6, r9, #3
    91d0:	e1b06186 	lsls	r6, r6, #3
    91d4:	11a04634 	lsrne	r4, r4, r6
    91d8:	12667020 	rsbne	r7, r6, #32
    91dc:	11844715 	orrne	r4, r4, r5, lsl r7
    91e0:	11a05635 	lsrne	r5, r5, r6
    91e4:	e2047102 	and	r7, r4, #-2147483648	; 0x80000000
    91e8:	e21550ff 	ands	r5, r5, #255	; 0xff
    91ec:	03340000 	teqeq	r4, #0
    91f0:	13844102 	orrne	r4, r4, #-2147483648	; 0x80000000
    91f4:	1a000006 	bne	9214 <BASIC$$Code+0x9214>
    91f8:	ea000102 	b	9608 <BASIC$$Code+0x9608>
    91fc:	e3300000 	teq	r0, #0
    9200:	18990030 	ldmne	r9, {r4, r5}
    9204:	12057102 	andne	r7, r5, #-2147483648	; 0x80000000
    9208:	120550ff 	andne	r5, r5, #255	; 0xff
    920c:	13340000 	teqne	r4, #0
    9210:	0a0000fc 	beq	9608 <BASIC$$Code+0x9608>
    9214:	e0233007 	eor	r3, r3, r7
    9218:	e0811005 	add	r1, r1, r5
    921c:	e2411080 	sub	r1, r1, #128	; 0x80
    9220:	e1a06820 	lsr	r6, r0, #16
    9224:	e1a05824 	lsr	r5, r4, #16
    9228:	e0344805 	eors	r4, r4, r5, lsl #16
    922c:	e0207806 	eor	r7, r0, r6, lsl #16
    9230:	e0020497 	mul	r2, r7, r4
    9234:	10040496 	mulne	r4, r6, r4
    9238:	e0070795 	mul	r7, r5, r7
    923c:	e0050596 	mul	r5, r6, r5
    9240:	e0947007 	adds	r7, r4, r7
    9244:	22855801 	addcs	r5, r5, #65536	; 0x10000
    9248:	e0922807 	adds	r2, r2, r7, lsl #16
    924c:	e0b50827 	adcs	r0, r5, r7, lsr #16
    9250:	4a000002 	bmi	9260 <BASIC$$Code+0x9260>
    9254:	e0922002 	adds	r2, r2, r2
    9258:	e0a00000 	adc	r0, r0, r0
    925c:	e2411001 	sub	r1, r1, #1
    9260:	e3520102 	cmp	r2, #-2147483648	; 0x80000000
    9264:	3a000003 	bcc	9278 <BASIC$$Code+0x9278>
    9268:	03c00001 	biceq	r0, r0, #1
    926c:	e2900001 	adds	r0, r0, #1
    9270:	21a00060 	rrxcs	r0, r0
    9274:	22811001 	addcs	r1, r1, #1
    9278:	e3510c01 	cmp	r1, #256	; 0x100
    927c:	31a0f00e 	movcc	pc, lr
    9280:	e3310000 	teq	r1, #0
    9284:	4a0000df 	bmi	9608 <BASIC$$Code+0x9608>
    9288:	ea000677 	b	ac6c <BASIC$$Code+0xac6c>
    928c:	e3300000 	teq	r0, #0
    9290:	13a04102 	movne	r4, #-2147483648	; 0x80000000
    9294:	12611081 	rsbne	r1, r1, #129	; 0x81
    9298:	12811081 	addne	r1, r1, #129	; 0x81
    929c:	1a00001a 	bne	930c <BASIC$$Code+0x930c>
    92a0:	ea000665 	b	ac3c <BASIC$$Code+0xac3c>
    92a4:	e3300000 	teq	r0, #0
    92a8:	0a000663 	beq	ac3c <BASIC$$Code+0xac3c>
    92ac:	e3c96003 	bic	r6, r9, #3
    92b0:	e8960030 	ldm	r6, {r4, r5}
    92b4:	e2096003 	and	r6, r9, #3
    92b8:	e1b06186 	lsls	r6, r6, #3
    92bc:	11a04634 	lsrne	r4, r4, r6
    92c0:	12667020 	rsbne	r7, r6, #32
    92c4:	11844715 	orrne	r4, r4, r5, lsl r7
    92c8:	11a05635 	lsrne	r5, r5, r6
    92cc:	e2047102 	and	r7, r4, #-2147483648	; 0x80000000
    92d0:	e21550ff 	ands	r5, r5, #255	; 0xff
    92d4:	03340000 	teqeq	r4, #0
    92d8:	13844102 	orrne	r4, r4, #-2147483648	; 0x80000000
    92dc:	1a000007 	bne	9300 <BASIC$$Code+0x9300>
    92e0:	ea0000c8 	b	9608 <BASIC$$Code+0x9608>
    92e4:	e3300000 	teq	r0, #0
    92e8:	0a000653 	beq	ac3c <BASIC$$Code+0xac3c>
    92ec:	e8990030 	ldm	r9, {r4, r5}
    92f0:	e2057102 	and	r7, r5, #-2147483648	; 0x80000000
    92f4:	e20550ff 	and	r5, r5, #255	; 0xff
    92f8:	e3340000 	teq	r4, #0
    92fc:	0a0000c1 	beq	9608 <BASIC$$Code+0x9608>
    9300:	e0233007 	eor	r3, r3, r7
    9304:	e0451001 	sub	r1, r5, r1
    9308:	e2811081 	add	r1, r1, #129	; 0x81
    930c:	e3500102 	cmp	r0, #-2147483648	; 0x80000000
    9310:	0a0000d0 	beq	9658 <BASIC$$Code+0x9658>
    9314:	e3b07c01 	movs	r7, #256	; 0x100
    9318:	31540000 	cmpcc	r4, r0
    931c:	20444000 	subcs	r4, r4, r0
    9320:	e0a55005 	adc	r5, r5, r5
    9324:	e1b04084 	lsls	r4, r4, #1
    9328:	31540000 	cmpcc	r4, r0
    932c:	20444000 	subcs	r4, r4, r0
    9330:	e0a55005 	adc	r5, r5, r5
    9334:	e1b04084 	lsls	r4, r4, #1
    9338:	31540000 	cmpcc	r4, r0
    933c:	20444000 	subcs	r4, r4, r0
    9340:	e0a55005 	adc	r5, r5, r5
    9344:	e1b04084 	lsls	r4, r4, #1
    9348:	31540000 	cmpcc	r4, r0
    934c:	20444000 	subcs	r4, r4, r0
    9350:	e0a55005 	adc	r5, r5, r5
    9354:	e1b04084 	lsls	r4, r4, #1
    9358:	31540000 	cmpcc	r4, r0
    935c:	20444000 	subcs	r4, r4, r0
    9360:	e0a55005 	adc	r5, r5, r5
    9364:	e1b04084 	lsls	r4, r4, #1
    9368:	31540000 	cmpcc	r4, r0
    936c:	20444000 	subcs	r4, r4, r0
    9370:	e0a55005 	adc	r5, r5, r5
    9374:	e1b04084 	lsls	r4, r4, #1
    9378:	31540000 	cmpcc	r4, r0
    937c:	20444000 	subcs	r4, r4, r0
    9380:	e0a55005 	adc	r5, r5, r5
    9384:	e1b04084 	lsls	r4, r4, #1
    9388:	31540000 	cmpcc	r4, r0
    938c:	20444000 	subcs	r4, r4, r0
    9390:	e0a55005 	adc	r5, r5, r5
    9394:	e1b04084 	lsls	r4, r4, #1
    9398:	e2477040 	sub	r7, r7, #64	; 0x40
    939c:	e3370000 	teq	r7, #0
    93a0:	1affffdc 	bne	9318 <BASIC$$Code+0x9318>
    93a4:	e3350000 	teq	r5, #0
    93a8:	4a000004 	bmi	93c0 <BASIC$$Code+0x93c0>
    93ac:	31540000 	cmpcc	r4, r0
    93b0:	20444000 	subcs	r4, r4, r0
    93b4:	e0a55005 	adc	r5, r5, r5
    93b8:	e1b04084 	lsls	r4, r4, #1
    93bc:	e2411001 	sub	r1, r1, #1
    93c0:	31540000 	cmpcc	r4, r0
    93c4:	3a000004 	bcc	93dc <BASIC$$Code+0x93dc>
    93c8:	e1340000 	teq	r4, r0
    93cc:	03c55001 	biceq	r5, r5, #1
    93d0:	e2955001 	adds	r5, r5, #1
    93d4:	21a05065 	rrxcs	r5, r5
    93d8:	22811001 	addcs	r1, r1, #1
    93dc:	e1a00005 	mov	r0, r5
    93e0:	e3510c01 	cmp	r1, #256	; 0x100
    93e4:	2a000620 	bcs	ac6c <BASIC$$Code+0xac6c>
    93e8:	e1a0f00e 	mov	pc, lr
    93ec:	e2233102 	eor	r3, r3, #-2147483648	; 0x80000000
    93f0:	e3c96003 	bic	r6, r9, #3
    93f4:	e8960030 	ldm	r6, {r4, r5}
    93f8:	e2096003 	and	r6, r9, #3
    93fc:	e1b06186 	lsls	r6, r6, #3
    9400:	11a04634 	lsrne	r4, r4, r6
    9404:	12667020 	rsbne	r7, r6, #32
    9408:	11844715 	orrne	r4, r4, r5, lsl r7
    940c:	11a05635 	lsrne	r5, r5, r6
    9410:	e2047102 	and	r7, r4, #-2147483648	; 0x80000000
    9414:	e21550ff 	ands	r5, r5, #255	; 0xff
    9418:	03340000 	teqeq	r4, #0
    941c:	13844102 	orrne	r4, r4, #-2147483648	; 0x80000000
    9420:	1a000006 	bne	9440 <BASIC$$Code+0x9440>
    9424:	e1a0f00e 	mov	pc, lr
    9428:	e2233102 	eor	r3, r3, #-2147483648	; 0x80000000
    942c:	e8990030 	ldm	r9, {r4, r5}
    9430:	e2057102 	and	r7, r5, #-2147483648	; 0x80000000
    9434:	e20550ff 	and	r5, r5, #255	; 0xff
    9438:	e3340000 	teq	r4, #0
    943c:	01a0f00e 	moveq	pc, lr
    9440:	e3300000 	teq	r0, #0
    9444:	0a000081 	beq	9650 <BASIC$$Code+0x9650>
    9448:	e0515005 	subs	r5, r1, r5
    944c:	0a000025 	beq	94e8 <BASIC$$Code+0x94e8>
    9450:	8a000013 	bhi	94a4 <BASIC$$Code+0x94a4>
    9454:	e2655000 	rsb	r5, r5, #0
    9458:	e0851001 	add	r1, r5, r1
    945c:	e2752020 	rsbs	r2, r5, #32
    9460:	3a00007b 	bcc	9654 <BASIC$$Code+0x9654>
    9464:	e1330007 	teq	r3, r7
    9468:	4a000008 	bmi	9490 <BASIC$$Code+0x9490>
    946c:	e1a02210 	lsl	r2, r0, r2
    9470:	e0940530 	adds	r0, r4, r0, lsr r5
    9474:	3a000027 	bcc	9518 <BASIC$$Code+0x9518>
    9478:	e1b00060 	rrxs	r0, r0
    947c:	e1a02062 	rrx	r2, r2
    9480:	e2811001 	add	r1, r1, #1
    9484:	e3510c01 	cmp	r1, #256	; 0x100
    9488:	3a000022 	bcc	9518 <BASIC$$Code+0x9518>
    948c:	ea0005f6 	b	ac6c <BASIC$$Code+0xac6c>
    9490:	e3a06000 	mov	r6, #0
    9494:	e0562210 	subs	r2, r6, r0, lsl r2
    9498:	e0d40530 	sbcs	r0, r4, r0, lsr r5
    949c:	e1a03007 	mov	r3, r7
    94a0:	ea000016 	b	9500 <BASIC$$Code+0x9500>
    94a4:	e2756020 	rsbs	r6, r5, #32
    94a8:	31a0f00e 	movcc	pc, lr
    94ac:	e1330007 	teq	r3, r7
    94b0:	4a000008 	bmi	94d8 <BASIC$$Code+0x94d8>
    94b4:	e1a02614 	lsl	r2, r4, r6
    94b8:	e0900534 	adds	r0, r0, r4, lsr r5
    94bc:	3a000015 	bcc	9518 <BASIC$$Code+0x9518>
    94c0:	e1b00060 	rrxs	r0, r0
    94c4:	e1a02062 	rrx	r2, r2
    94c8:	e2811001 	add	r1, r1, #1
    94cc:	e3510c01 	cmp	r1, #256	; 0x100
    94d0:	3a000010 	bcc	9518 <BASIC$$Code+0x9518>
    94d4:	ea0005e4 	b	ac6c <BASIC$$Code+0xac6c>
    94d8:	e3a02000 	mov	r2, #0
    94dc:	e0522614 	subs	r2, r2, r4, lsl r6
    94e0:	e0d00534 	sbcs	r0, r0, r4, lsr r5
    94e4:	ea000005 	b	9500 <BASIC$$Code+0x9500>
    94e8:	e3a02000 	mov	r2, #0
    94ec:	e1330007 	teq	r3, r7
    94f0:	5affffde 	bpl	9470 <BASIC$$Code+0x9470>
    94f4:	e0500004 	subs	r0, r0, r4
    94f8:	31a03007 	movcc	r3, r7
    94fc:	32700000 	rsbscc	r0, r0, #0
    9500:	41a0f00e 	movmi	pc, lr
    9504:	0a00003c 	beq	95fc <BASIC$$Code+0x95fc>
    9508:	e2411001 	sub	r1, r1, #1
    950c:	e0922002 	adds	r2, r2, r2
    9510:	e0b00000 	adcs	r0, r0, r0
    9514:	7afffffb 	bvc	9508 <BASIC$$Code+0x9508>
    9518:	e3520102 	cmp	r2, #-2147483648	; 0x80000000
    951c:	31a0f00e 	movcc	pc, lr
    9520:	03c00001 	biceq	r0, r0, #1
    9524:	e2900001 	adds	r0, r0, #1
    9528:	21a00060 	rrxcs	r0, r0
    952c:	22811001 	addcs	r1, r1, #1
    9530:	e1a0f00e 	mov	pc, lr
    9534:	e3300000 	teq	r0, #0
    9538:	0a000044 	beq	9650 <BASIC$$Code+0x9650>
    953c:	e0515005 	subs	r5, r1, r5
    9540:	0a000013 	beq	9594 <BASIC$$Code+0x9594>
    9544:	3a000008 	bcc	956c <BASIC$$Code+0x956c>
    9548:	e3550024 	cmp	r5, #36	; 0x24
    954c:	81a0f00e 	movhi	pc, lr
    9550:	e1a06004 	mov	r6, r4
    9554:	e1a04534 	lsr	r4, r4, r5
    9558:	e2755020 	rsbs	r5, r5, #32
    955c:	51a06516 	lslpl	r6, r6, r5
    9560:	42655000 	rsbmi	r5, r5, #0
    9564:	41a06536 	lsrmi	r6, r6, r5
    9568:	ea000009 	b	9594 <BASIC$$Code+0x9594>
    956c:	e2655000 	rsb	r5, r5, #0
    9570:	e0851001 	add	r1, r5, r1
    9574:	e3550024 	cmp	r5, #36	; 0x24
    9578:	8a000035 	bhi	9654 <BASIC$$Code+0x9654>
    957c:	e1a02000 	mov	r2, r0
    9580:	e1a00530 	lsr	r0, r0, r5
    9584:	e2755020 	rsbs	r5, r5, #32
    9588:	51a02512 	lslpl	r2, r2, r5
    958c:	42655000 	rsbmi	r5, r5, #0
    9590:	41a02532 	lsrmi	r2, r2, r5
    9594:	e1330007 	teq	r3, r7
    9598:	4a000006 	bmi	95b8 <BASIC$$Code+0x95b8>
    959c:	e0922006 	adds	r2, r2, r6
    95a0:	e0b00004 	adcs	r0, r0, r4
    95a4:	31a0f00e 	movcc	pc, lr
    95a8:	e1b00060 	rrxs	r0, r0
    95ac:	e1a02062 	rrx	r2, r2
    95b0:	e2811001 	add	r1, r1, #1
    95b4:	e1a0f00e 	mov	pc, lr
    95b8:	e0522006 	subs	r2, r2, r6
    95bc:	e0d00004 	sbcs	r0, r0, r4
    95c0:	2a000002 	bcs	95d0 <BASIC$$Code+0x95d0>
    95c4:	e1a03007 	mov	r3, r7
    95c8:	e2722000 	rsbs	r2, r2, #0
    95cc:	e2f00000 	rscs	r0, r0, #0
    95d0:	41a0f00e 	movmi	pc, lr
    95d4:	0a000008 	beq	95fc <BASIC$$Code+0x95fc>
    95d8:	e2411001 	sub	r1, r1, #1
    95dc:	e0922002 	adds	r2, r2, r2
    95e0:	e0b00000 	adcs	r0, r0, r0
    95e4:	61a0f00e 	movvs	pc, lr
    95e8:	e2411001 	sub	r1, r1, #1
    95ec:	e0922002 	adds	r2, r2, r2
    95f0:	e0b00000 	adcs	r0, r0, r0
    95f4:	7afffff7 	bvc	95d8 <BASIC$$Code+0x95d8>
    95f8:	e1a0f00e 	mov	pc, lr
    95fc:	e1b00002 	movs	r0, r2
    9600:	e2411020 	sub	r1, r1, #32
    9604:	1afffe9e 	bne	9084 <BASIC$$Code+0x9084>
    9608:	e3a01000 	mov	r1, #0
    960c:	e3a00000 	mov	r0, #0
    9610:	e3a03000 	mov	r3, #0
    9614:	e3a02000 	mov	r2, #0
    9618:	e1a0f00e 	mov	pc, lr
    961c:	e3a00102 	mov	r0, #-2147483648	; 0x80000000
    9620:	e3a01081 	mov	r1, #129	; 0x81
    9624:	e3a03000 	mov	r3, #0
    9628:	e1a0f00e 	mov	pc, lr
    962c:	e3a05000 	mov	r5, #0
    9630:	e3a04000 	mov	r4, #0
    9634:	e3a07000 	mov	r7, #0
    9638:	e3a06000 	mov	r6, #0
    963c:	e1a0f00e 	mov	pc, lr
    9640:	e1a04000 	mov	r4, r0
    9644:	e1a05001 	mov	r5, r1
    9648:	e1a07003 	mov	r7, r3
    964c:	e1a0f00e 	mov	pc, lr
    9650:	e1a01005 	mov	r1, r5
    9654:	e1a03007 	mov	r3, r7
    9658:	e1a00004 	mov	r0, r4
    965c:	e1a0f00e 	mov	pc, lr
    9660:	e3300000 	teq	r0, #0
    9664:	18990030 	ldmne	r9, {r4, r5}
    9668:	12057102 	andne	r7, r5, #-2147483648	; 0x80000000
    966c:	120550ff 	andne	r5, r5, #255	; 0xff
    9670:	13340000 	teqne	r4, #0
    9674:	0affffe3 	beq	9608 <BASIC$$Code+0x9608>
    9678:	e0233007 	eor	r3, r3, r7
    967c:	e0811005 	add	r1, r1, r5
    9680:	e2411080 	sub	r1, r1, #128	; 0x80
    9684:	e1a06820 	lsr	r6, r0, #16
    9688:	e1a05824 	lsr	r5, r4, #16
    968c:	e0244805 	eor	r4, r4, r5, lsl #16
    9690:	e0207806 	eor	r7, r0, r6, lsl #16
    9694:	e0020497 	mul	r2, r7, r4
    9698:	e0040496 	mul	r4, r6, r4
    969c:	e0070795 	mul	r7, r5, r7
    96a0:	e0050596 	mul	r5, r6, r5
    96a4:	e0947007 	adds	r7, r4, r7
    96a8:	22855801 	addcs	r5, r5, #65536	; 0x10000
    96ac:	e0922807 	adds	r2, r2, r7, lsl #16
    96b0:	e0b50827 	adcs	r0, r5, r7, lsr #16
    96b4:	41a0f00e 	movmi	pc, lr
    96b8:	e0922002 	adds	r2, r2, r2
    96bc:	e0a00000 	adc	r0, r0, r0
    96c0:	e2411001 	sub	r1, r1, #1
    96c4:	e1a0f00e 	mov	pc, lr
    96c8:	e3390000 	teq	r9, #0
    96cc:	0affffd2 	beq	961c <BASIC$$Code+0x961c>
    96d0:	e92d4800 	push	{fp, lr}
    96d4:	42699000 	rsbmi	r9, r9, #0
    96d8:	4bfffeeb 	blmi	928c <BASIC$$Code+0x928c>
    96dc:	e35b0002 	cmp	fp, #2
    96e0:	3a00000c 	bcc	9718 <BASIC$$Code+0x9718>
    96e4:	0afffea0 	beq	916c <BASIC$$Code+0x916c>
    96e8:	e3a0b000 	mov	fp, #0
    96ec:	e1b090a9 	lsrs	r9, r9, #1
    96f0:	0a000006 	beq	9710 <BASIC$$Code+0x9710>
    96f4:	228bb001 	addcs	fp, fp, #1
    96f8:	2bfff643 	blcs	700c <BASIC$$Code+0x700c>
    96fc:	ebfffe9b 	bl	9170 <BASIC$$Code+0x9170>
    9700:	eafffff9 	b	96ec <BASIC$$Code+0x96ec>
    9704:	e1a0900d 	mov	r9, sp
    9708:	ebfffebb 	bl	91fc <BASIC$$Code+0x91fc>
    970c:	e28dd008 	add	sp, sp, #8
    9710:	e25bb001 	subs	fp, fp, #1
    9714:	5afffffa 	bpl	9704 <BASIC$$Code+0x9704>
    9718:	e8bd8800 	pop	{fp, pc}
    971c:	e92d4000 	stmfd	sp!, {lr}
    9720:	ebfffe92 	bl	9170 <BASIC$$Code+0x9170>
    9724:	e2233102 	eor	r3, r3, #-2147483648	; 0x80000000
    9728:	e3a07000 	mov	r7, #0
    972c:	e3a04102 	mov	r4, #-2147483648	; 0x80000000
    9730:	e3a05081 	mov	r5, #129	; 0x81
    9734:	ebffff41 	bl	9440 <BASIC$$Code+0x9440>
    9738:	e8bd4000 	ldmfd	sp!, {lr}
    973c:	e3300000 	teq	r0, #0
    9740:	01a0f00e 	moveq	pc, lr
    9744:	e3330000 	teq	r3, #0
    9748:	4a000558 	bmi	acb0 <BASIC$$Code+0xacb0>
    974c:	e3a04101 	mov	r4, #1073741824	; 0x40000000
    9750:	e1b010a1 	lsrs	r1, r1, #1
    9754:	e2a11040 	adc	r1, r1, #64	; 0x40
    9758:	32400101 	subcc	r0, r0, #1073741824	; 0x40000000
    975c:	22400102 	subcs	r0, r0, #-2147483648	; 0x80000000
    9760:	33a07201 	movcc	r7, #268435456	; 0x10000000
    9764:	23a07302 	movcs	r7, #134217728	; 0x8000000
    9768:	e0244007 	eor	r4, r4, r7
    976c:	e1500004 	cmp	r0, r4
    9770:	20400004 	subcs	r0, r0, r4
    9774:	20244087 	eorcs	r4, r4, r7, lsl #1
    9778:	e0244007 	eor	r4, r4, r7
    977c:	e0800000 	add	r0, r0, r0
    9780:	e1b070e7 	rors	r7, r7, #1
    9784:	5afffff7 	bpl	9768 <BASIC$$Code+0x9768>
    9788:	e3a02000 	mov	r2, #0
    978c:	e1500004 	cmp	r0, r4
    9790:	03520102 	cmpeq	r2, #-2147483648	; 0x80000000
    9794:	3a000002 	bcc	97a4 <BASIC$$Code+0x97a4>
    9798:	e2522102 	subs	r2, r2, #-2147483648	; 0x80000000
    979c:	e0c00004 	sbc	r0, r0, r4
    97a0:	e2244001 	eor	r4, r4, #1
    97a4:	e0922002 	adds	r2, r2, r2
    97a8:	e0a00000 	adc	r0, r0, r0
    97ac:	e3a06000 	mov	r6, #0
    97b0:	e1500004 	cmp	r0, r4
    97b4:	03520101 	cmpeq	r2, #1073741824	; 0x40000000
    97b8:	3a000002 	bcc	97c8 <BASIC$$Code+0x97c8>
    97bc:	e2522101 	subs	r2, r2, #1073741824	; 0x40000000
    97c0:	e0c00004 	sbc	r0, r0, r4
    97c4:	e2266102 	eor	r6, r6, #-2147483648	; 0x80000000
    97c8:	e0922002 	adds	r2, r2, r2
    97cc:	e0a00000 	adc	r0, r0, r0
    97d0:	e2266202 	eor	r6, r6, #536870912	; 0x20000000
    97d4:	e1500004 	cmp	r0, r4
    97d8:	01520006 	cmpeq	r2, r6
    97dc:	3a000002 	bcc	97ec <BASIC$$Code+0x97ec>
    97e0:	e0522006 	subs	r2, r2, r6
    97e4:	e0c00004 	sbc	r0, r0, r4
    97e8:	e2266101 	eor	r6, r6, #1073741824	; 0x40000000
    97ec:	e2266202 	eor	r6, r6, #536870912	; 0x20000000
    97f0:	e1827080 	orr	r7, r2, r0, lsl #1
    97f4:	e1b02086 	lsls	r2, r6, #1
    97f8:	e0a40004 	adc	r0, r4, r4
    97fc:	51a0f00e 	movpl	pc, lr
    9800:	e3370000 	teq	r7, #0
    9804:	03c00001 	biceq	r0, r0, #1
    9808:	e2900001 	adds	r0, r0, #1
    980c:	21a00060 	rrxcs	r0, r0
    9810:	22811001 	addcs	r1, r1, #1
    9814:	e1a0f00e 	mov	pc, lr
    9818:	e3510087 	cmp	r1, #135	; 0x87
    981c:	3a000006 	bcc	983c <BASIC$$Code+0x983c>
    9820:	035004b3 	cmpeq	r0, #-1291845632	; 0xb3000000
    9824:	3a000004 	bcc	983c <BASIC$$Code+0x983c>
    9828:	e3330000 	teq	r3, #0
    982c:	4affff75 	bmi	9608 <BASIC$$Code+0x9608>
    9830:	ea000534 	b	ad08 <BASIC$$Code+0xad08>
    9834:	b8aa3b29 	stmialt	sl!, {r0, r3, r5, r8, r9, fp, ip, sp}
    9838:	00000081 	andeq	r0, r0, r1, lsl #1
    983c:	e3510071 	cmp	r1, #113	; 0x71
    9840:	3affff75 	bcc	961c <BASIC$$Code+0x961c>
    9844:	e92d4000 	stmfd	sp!, {lr}
    9848:	ebfff5ef 	bl	700c <BASIC$$Code+0x700c>
    984c:	e24f9020 	sub	r9, pc, #32
    9850:	ebfffe69 	bl	91fc <BASIC$$Code+0x91fc>
    9854:	ebfffe28 	bl	90fc <BASIC$$Code+0x90fc>
    9858:	e1b0a000 	movs	sl, r0
    985c:	0a000011 	beq	98a8 <BASIC$$Code+0x98a8>
    9860:	e0601100 	rsb	r1, r0, r0, lsl #2
    9864:	e0601101 	rsb	r1, r0, r1, lsl #2
    9868:	e0801181 	add	r1, r0, r1, lsl #3
    986c:	e0600101 	rsb	r0, r0, r1, lsl #2
    9870:	e2600000 	rsb	r0, r0, #0
    9874:	ebfffdfd 	bl	9070 <BASIC$$Code+0x9070>
    9878:	e2411009 	sub	r1, r1, #9
    987c:	e1a0900d 	mov	r9, sp
    9880:	ebfffee9 	bl	942c <BASIC$$Code+0x942c>
    9884:	eb00008a 	bl	9ab4 <BASIC$$Code+0x9ab4>
    9888:	e26a0000 	rsb	r0, sl, #0
    988c:	ebfffdf7 	bl	9070 <BASIC$$Code+0x9070>
    9890:	e28f90d0 	add	r9, pc, #208	; 0xd0
    9894:	ebfffe58 	bl	91fc <BASIC$$Code+0x91fc>
    9898:	e1a0900d 	mov	r9, sp
    989c:	ebfffee2 	bl	942c <BASIC$$Code+0x942c>
    98a0:	eb000083 	bl	9ab4 <BASIC$$Code+0x9ab4>
    98a4:	ea000001 	b	98b0 <BASIC$$Code+0x98b0>
    98a8:	e1a0900d 	mov	r9, sp
    98ac:	eb00008f 	bl	9af0 <BASIC$$Code+0x9af0>
    98b0:	ebfffe2e 	bl	9170 <BASIC$$Code+0x9170>
    98b4:	ebfff5d4 	bl	700c <BASIC$$Code+0x700c>
    98b8:	e28f9088 	add	r9, pc, #136	; 0x88
    98bc:	ebfffe4e 	bl	91fc <BASIC$$Code+0x91fc>
    98c0:	e28f9088 	add	r9, pc, #136	; 0x88
    98c4:	ebfffed8 	bl	942c <BASIC$$Code+0x942c>
    98c8:	e28d9008 	add	r9, sp, #8
    98cc:	ebfffe4a 	bl	91fc <BASIC$$Code+0x91fc>
    98d0:	ebfff5cd 	bl	700c <BASIC$$Code+0x700c>
    98d4:	e28d9008 	add	r9, sp, #8
    98d8:	eb000084 	bl	9af0 <BASIC$$Code+0x9af0>
    98dc:	e28f9074 	add	r9, pc, #116	; 0x74
    98e0:	ebfffe45 	bl	91fc <BASIC$$Code+0x91fc>
    98e4:	e28f9074 	add	r9, pc, #116	; 0x74
    98e8:	ebfffecf 	bl	942c <BASIC$$Code+0x942c>
    98ec:	e28d9008 	add	r9, sp, #8
    98f0:	ebfffe41 	bl	91fc <BASIC$$Code+0x91fc>
    98f4:	e3a04102 	mov	r4, #-2147483648	; 0x80000000
    98f8:	e3a07000 	mov	r7, #0
    98fc:	e3a05080 	mov	r5, #128	; 0x80
    9900:	ebfffece 	bl	9440 <BASIC$$Code+0x9440>
    9904:	e89d0030 	ldm	sp, {r4, r5}
    9908:	e2057102 	and	r7, r5, #-2147483648	; 0x80000000
    990c:	e20550ff 	and	r5, r5, #255	; 0xff
    9910:	e3340000 	teq	r4, #0
    9914:	12277102 	eorne	r7, r7, #-2147483648	; 0x80000000
    9918:	ebfffec8 	bl	9440 <BASIC$$Code+0x9440>
    991c:	e1a0900d 	mov	r9, sp
    9920:	ebfffe6f 	bl	92e4 <BASIC$$Code+0x92e4>
    9924:	e3a04102 	mov	r4, #-2147483648	; 0x80000000
    9928:	e3a07000 	mov	r7, #0
    992c:	e3a05080 	mov	r5, #128	; 0x80
    9930:	ebfffec2 	bl	9440 <BASIC$$Code+0x9440>
    9934:	e081100a 	add	r1, r1, sl
    9938:	e2811001 	add	r1, r1, #1
    993c:	e28dd018 	add	sp, sp, #24
    9940:	e8bd4000 	ldmfd	sp!, {lr}
    9944:	eafffe17 	b	91a8 <BASIC$$Code+0x91a8>
    9948:	c2fbc974 	rscsgt	ip, fp, #116, 18	; 0x1d0000
    994c:	00000079 	andeq	r0, r0, r9, ror r0
    9950:	80000000 	andhi	r0, r0, r0
    9954:	0000007f 	andeq	r0, r0, pc, ror r0
    9958:	9bde1394 	blls	ff78e7b0 <BASIC$$Code+0xff78e7b0>
    995c:	00000075 	andeq	r0, r0, r5, ror r0
    9960:	db699d07 	blle	1a70d84 <BASIC$$Code+0x1a70d84>
    9964:	0000007c 	andeq	r0, r0, ip, ror r0
    9968:	de8082e3 	cdple	2, 8, cr8, cr0, cr3, {7}
    996c:	80000074 	andhi	r0, r0, r4, ror r0
    9970:	e3300000 	teq	r0, #0
    9974:	0a0004d2 	beq	acc4 <BASIC$$Code+0xacc4>
    9978:	e3330000 	teq	r3, #0
    997c:	4a0004d0 	bmi	acc4 <BASIC$$Code+0xacc4>
    9980:	e92d4000 	stmfd	sp!, {lr}
    9984:	e241a080 	sub	sl, r1, #128	; 0x80
    9988:	e3a01080 	mov	r1, #128	; 0x80
    998c:	e25044b5 	subs	r4, r0, #-1258291200	; 0xb5000000
    9990:	3a00000c 	bcc	99c8 <BASIC$$Code+0x99c8>
    9994:	e92d000b 	push	{r0, r1, r3}
    9998:	e3a04102 	mov	r4, #-2147483648	; 0x80000000
    999c:	e3a07102 	mov	r7, #-2147483648	; 0x80000000
    99a0:	e3a05081 	mov	r5, #129	; 0x81
    99a4:	ebfffea5 	bl	9440 <BASIC$$Code+0x9440>
    99a8:	e8bd00b0 	pop	{r4, r5, r7}
    99ac:	ebfff596 	bl	700c <BASIC$$Code+0x700c>
    99b0:	e2455001 	sub	r5, r5, #1
    99b4:	e3a00102 	mov	r0, #-2147483648	; 0x80000000
    99b8:	e3a03000 	mov	r3, #0
    99bc:	e3a01080 	mov	r1, #128	; 0x80
    99c0:	ebfffe9e 	bl	9440 <BASIC$$Code+0x9440>
    99c4:	ea00000a 	b	99f4 <BASIC$$Code+0x99f4>
    99c8:	e24aa001 	sub	sl, sl, #1
    99cc:	e3a04102 	mov	r4, #-2147483648	; 0x80000000
    99d0:	e3a07102 	mov	r7, #-2147483648	; 0x80000000
    99d4:	e3a05080 	mov	r5, #128	; 0x80
    99d8:	ebfffe98 	bl	9440 <BASIC$$Code+0x9440>
    99dc:	ebfff58a 	bl	700c <BASIC$$Code+0x700c>
    99e0:	e2411001 	sub	r1, r1, #1
    99e4:	e3a04102 	mov	r4, #-2147483648	; 0x80000000
    99e8:	e3a07000 	mov	r7, #0
    99ec:	e3a05080 	mov	r5, #128	; 0x80
    99f0:	ebfffe92 	bl	9440 <BASIC$$Code+0x9440>
    99f4:	e1a0900d 	mov	r9, sp
    99f8:	ebfffe39 	bl	92e4 <BASIC$$Code+0x92e4>
    99fc:	eb00002c 	bl	9ab4 <BASIC$$Code+0x9ab4>
    9a00:	e24dd008 	sub	sp, sp, #8
    9a04:	ebfffdd9 	bl	9170 <BASIC$$Code+0x9170>
    9a08:	ebfff57f 	bl	700c <BASIC$$Code+0x700c>
    9a0c:	e28f9088 	add	r9, pc, #136	; 0x88
    9a10:	ebfffdf9 	bl	91fc <BASIC$$Code+0x91fc>
    9a14:	e28f9088 	add	r9, pc, #136	; 0x88
    9a18:	ebfffe83 	bl	942c <BASIC$$Code+0x942c>
    9a1c:	e1a0900d 	mov	r9, sp
    9a20:	ebfffdf5 	bl	91fc <BASIC$$Code+0x91fc>
    9a24:	e28d9008 	add	r9, sp, #8
    9a28:	eb000021 	bl	9ab4 <BASIC$$Code+0x9ab4>
    9a2c:	ebfff589 	bl	7058 <BASIC$$Code+0x7058>
    9a30:	e28f9074 	add	r9, pc, #116	; 0x74
    9a34:	ebfffe7c 	bl	942c <BASIC$$Code+0x942c>
    9a38:	e1a0900d 	mov	r9, sp
    9a3c:	ebfffe28 	bl	92e4 <BASIC$$Code+0x92e4>
    9a40:	e28dd008 	add	sp, sp, #8
    9a44:	e1a0900d 	mov	r9, sp
    9a48:	ebfffdeb 	bl	91fc <BASIC$$Code+0x91fc>
    9a4c:	ebfffe76 	bl	942c <BASIC$$Code+0x942c>
    9a50:	e33a0000 	teq	sl, #0
    9a54:	0a00000e 	beq	9a94 <BASIC$$Code+0x9a94>
    9a58:	eb000015 	bl	9ab4 <BASIC$$Code+0x9ab4>
    9a5c:	e1a0000a 	mov	r0, sl
    9a60:	ebfffd82 	bl	9070 <BASIC$$Code+0x9070>
    9a64:	e24f9f41 	sub	r9, pc, #260	; 0x104
    9a68:	ebfffde3 	bl	91fc <BASIC$$Code+0x91fc>
    9a6c:	e1a0900d 	mov	r9, sp
    9a70:	ebfffe6d 	bl	942c <BASIC$$Code+0x942c>
    9a74:	ebfffef1 	bl	9640 <BASIC$$Code+0x9640>
    9a78:	e06a110a 	rsb	r1, sl, sl, lsl #2
    9a7c:	e06a1101 	rsb	r1, sl, r1, lsl #2
    9a80:	e08a1181 	add	r1, sl, r1, lsl #3
    9a84:	e06a0101 	rsb	r0, sl, r1, lsl #2
    9a88:	ebfffd78 	bl	9070 <BASIC$$Code+0x9070>
    9a8c:	e2411009 	sub	r1, r1, #9
    9a90:	ebfffe6a 	bl	9440 <BASIC$$Code+0x9440>
    9a94:	e28dd008 	add	sp, sp, #8
    9a98:	e8bd8000 	ldmfd	sp!, {pc}
    9a9c:	ded689e5 	vfnmale.f16	s17, s13, s11	; <UNPREDICTABLE>
    9aa0:	0000007a 	andeq	r0, r0, sl, ror r0
    9aa4:	ee08307e 	mcr	0, 0, r3, cr8, cr14, {3}
    9aa8:	8000007f 	andhi	r0, r0, pc, ror r0
    9aac:	b286223e 	addlt	r2, r6, #-536870909	; 0xe0000003
    9ab0:	80000083 	andhi	r0, r0, r3, lsl #1
    9ab4:	e1832001 	orr	r2, r3, r1
    9ab8:	e8890005 	stm	r9, {r0, r2}
    9abc:	e1a0f00e 	mov	pc, lr
    9ac0:	e5c91004 	strb	r1, [r9, #4]
    9ac4:	e3c02102 	bic	r2, r0, #-2147483648	; 0x80000000
    9ac8:	e1822003 	orr	r2, r2, r3
    9acc:	e5c92000 	strb	r2, [r9]
    9ad0:	e1a02462 	ror	r2, r2, #8
    9ad4:	e5c92001 	strb	r2, [r9, #1]
    9ad8:	e1a02462 	ror	r2, r2, #8
    9adc:	e5c92002 	strb	r2, [r9, #2]
    9ae0:	e1a02462 	ror	r2, r2, #8
    9ae4:	e5c92003 	strb	r2, [r9, #3]
    9ae8:	e1a0f00e 	mov	pc, lr
    9aec:	e28f9f7a 	add	r9, pc, #488	; 0x1e8
    9af0:	e8990003 	ldm	r9, {r0, r1}
    9af4:	e2013102 	and	r3, r1, #-2147483648	; 0x80000000
    9af8:	e20110ff 	and	r1, r1, #255	; 0xff
    9afc:	e3300000 	teq	r0, #0
    9b00:	e1a0f00e 	mov	pc, lr
    9b04:	e3c92003 	bic	r2, r9, #3
    9b08:	e8920003 	ldm	r2, {r0, r1}
    9b0c:	e2092003 	and	r2, r9, #3
    9b10:	e1b02182 	lsls	r2, r2, #3
    9b14:	11a00230 	lsrne	r0, r0, r2
    9b18:	12623020 	rsbne	r3, r2, #32
    9b1c:	11800311 	orrne	r0, r0, r1, lsl r3
    9b20:	11a01231 	lsrne	r1, r1, r2
    9b24:	e2003102 	and	r3, r0, #-2147483648	; 0x80000000
    9b28:	e21110ff 	ands	r1, r1, #255	; 0xff
    9b2c:	03300000 	teqeq	r0, #0
    9b30:	13800102 	orrne	r0, r0, #-2147483648	; 0x80000000
    9b34:	e1a0f00e 	mov	pc, lr
    9b38:	e92d4000 	stmfd	sp!, {lr}
    9b3c:	ebfff6e8 	bl	76e4 <BASIC$$Code+0x76e4>
    9b40:	5bfffd48 	blpl	9068 <BASIC$$Code+0x9068>
    9b44:	e3a0a000 	mov	sl, #0
    9b48:	e92d0408 	push	{r3, sl}
    9b4c:	e3a03000 	mov	r3, #0
    9b50:	e3510080 	cmp	r1, #128	; 0x80
    9b54:	03500102 	cmpeq	r0, #-2147483648	; 0x80000000
    9b58:	9a000013 	bls	9bac <BASIC$$Code+0x9bac>
    9b5c:	e3510081 	cmp	r1, #129	; 0x81
    9b60:	03500102 	cmpeq	r0, #-2147483648	; 0x80000000
    9b64:	8a000445 	bhi	ac80 <BASIC$$Code+0xac80>
    9b68:	e26aa001 	rsb	sl, sl, #1
    9b6c:	e24dd008 	sub	sp, sp, #8
    9b70:	e2233102 	eor	r3, r3, #-2147483648	; 0x80000000
    9b74:	e3a04102 	mov	r4, #-2147483648	; 0x80000000
    9b78:	e3a05081 	mov	r5, #129	; 0x81
    9b7c:	e3a07000 	mov	r7, #0
    9b80:	ebfffe2e 	bl	9440 <BASIC$$Code+0x9440>
    9b84:	e2411001 	sub	r1, r1, #1
    9b88:	ebfff51f 	bl	700c <BASIC$$Code+0x700c>
    9b8c:	ebfffeea 	bl	973c <BASIC$$Code+0x973c>
    9b90:	e2811001 	add	r1, r1, #1
    9b94:	e2233102 	eor	r3, r3, #-2147483648	; 0x80000000
    9b98:	e28d9008 	add	r9, sp, #8
    9b9c:	ebffffc4 	bl	9ab4 <BASIC$$Code+0x9ab4>
    9ba0:	e1a0900d 	mov	r9, sp
    9ba4:	ebffffd1 	bl	9af0 <BASIC$$Code+0x9af0>
    9ba8:	ea000004 	b	9bc0 <BASIC$$Code+0x9bc0>
    9bac:	e3510071 	cmp	r1, #113	; 0x71
    9bb0:	3a00001f 	bcc	9c34 <BASIC$$Code+0x9c34>
    9bb4:	ebfff514 	bl	700c <BASIC$$Code+0x700c>
    9bb8:	ebfffd6c 	bl	9170 <BASIC$$Code+0x9170>
    9bbc:	ebfff512 	bl	700c <BASIC$$Code+0x700c>
    9bc0:	e28f90dc 	add	r9, pc, #220	; 0xdc
    9bc4:	ebfffd8c 	bl	91fc <BASIC$$Code+0x91fc>
    9bc8:	e28f90dc 	add	r9, pc, #220	; 0xdc
    9bcc:	ebfffe16 	bl	942c <BASIC$$Code+0x942c>
    9bd0:	e1a0900d 	mov	r9, sp
    9bd4:	ebfffd88 	bl	91fc <BASIC$$Code+0x91fc>
    9bd8:	e28f90d4 	add	r9, pc, #212	; 0xd4
    9bdc:	ebfffe12 	bl	942c <BASIC$$Code+0x942c>
    9be0:	e1a0900d 	mov	r9, sp
    9be4:	ebfffd84 	bl	91fc <BASIC$$Code+0x91fc>
    9be8:	ebfff507 	bl	700c <BASIC$$Code+0x700c>
    9bec:	e28d9008 	add	r9, sp, #8
    9bf0:	ebffffbe 	bl	9af0 <BASIC$$Code+0x9af0>
    9bf4:	e28f90c0 	add	r9, pc, #192	; 0xc0
    9bf8:	ebfffe0b 	bl	942c <BASIC$$Code+0x942c>
    9bfc:	e28d9008 	add	r9, sp, #8
    9c00:	ebfffd7d 	bl	91fc <BASIC$$Code+0x91fc>
    9c04:	e28f90b8 	add	r9, pc, #184	; 0xb8
    9c08:	ebfffe07 	bl	942c <BASIC$$Code+0x942c>
    9c0c:	e28d9008 	add	r9, sp, #8
    9c10:	ebfffd79 	bl	91fc <BASIC$$Code+0x91fc>
    9c14:	e28f90b0 	add	r9, pc, #176	; 0xb0
    9c18:	ebfffe03 	bl	942c <BASIC$$Code+0x942c>
    9c1c:	e1a0900d 	mov	r9, sp
    9c20:	ebfffdaf 	bl	92e4 <BASIC$$Code+0x92e4>
    9c24:	e28d9010 	add	r9, sp, #16
    9c28:	ebfffd73 	bl	91fc <BASIC$$Code+0x91fc>
    9c2c:	ebfffdfe 	bl	942c <BASIC$$Code+0x942c>
    9c30:	e28dd018 	add	sp, sp, #24
    9c34:	e59d4004 	ldr	r4, [sp, #4]
    9c38:	e3540000 	cmp	r4, #0
    9c3c:	0a00000e 	beq	9c7c <BASIC$$Code+0x9c7c>
    9c40:	e8bd0030 	pop	{r4, r5}
    9c44:	e3540000 	cmp	r4, #0
    9c48:	0a000004 	beq	9c60 <BASIC$$Code+0x9c60>
    9c4c:	e35a0000 	cmp	sl, #0
    9c50:	028f907c 	addeq	r9, pc, #124	; 0x7c
    9c54:	128f9080 	addne	r9, pc, #128	; 0x80
    9c58:	ebfffdf3 	bl	942c <BASIC$$Code+0x942c>
    9c5c:	eafff96e 	b	821c <BASIC$$Code+0x821c>
    9c60:	e3300000 	teq	r0, #0
    9c64:	12233102 	eorne	r3, r3, #-2147483648	; 0x80000000
    9c68:	e35a0000 	cmp	sl, #0
    9c6c:	0afff96a 	beq	821c <BASIC$$Code+0x821c>
    9c70:	e28f9064 	add	r9, pc, #100	; 0x64
    9c74:	ebfffdec 	bl	942c <BASIC$$Code+0x942c>
    9c78:	eafff967 	b	821c <BASIC$$Code+0x821c>
    9c7c:	e35a0000 	cmp	sl, #0
    9c80:	0a000001 	beq	9c8c <BASIC$$Code+0x9c8c>
    9c84:	e28f9050 	add	r9, pc, #80	; 0x50
    9c88:	ebfffde7 	bl	942c <BASIC$$Code+0x942c>
    9c8c:	e8bd0030 	pop	{r4, r5}
    9c90:	e3540000 	cmp	r4, #0
    9c94:	0afff960 	beq	821c <BASIC$$Code+0x821c>
    9c98:	e3300000 	teq	r0, #0
    9c9c:	12233102 	eorne	r3, r3, #-2147483648	; 0x80000000
    9ca0:	eafff95d 	b	821c <BASIC$$Code+0x821c>
    9ca4:	98313f1b 	ldmdals	r1!, {r0, r1, r3, r4, r8, r9, sl, fp, ip, sp}
    9ca8:	80000080 	andhi	r0, r0, r0, lsl #1
    9cac:	b9f9e054 	ldmiblt	r9!, {r2, r4, r6, sp, lr, pc}^
    9cb0:	00000082 	andeq	r0, r0, r2, lsl #1
    9cb4:	b01b1fcb 	andslt	r1, fp, fp, asr #31
    9cb8:	80000082 	andhi	r0, r0, r2, lsl #1
    9cbc:	a5578500 	ldrbge	r8, [r7, #-1280]	; 0xfffffb00
    9cc0:	80000084 	andhi	r0, r0, r4, lsl #1
    9cc4:	c6eaf706 	strbtgt	pc, [sl], r6, lsl #14	; <UNPREDICTABLE>
    9cc8:	00000085 	andeq	r0, r0, r5, lsl #1
    9ccc:	841457dc 	ldrhi	r5, [r4], #-2012	; 0xfffff824
    9cd0:	80000085 	andhi	r0, r0, r5, lsl #1
    9cd4:	c90fdaa2 	stmdbgt	pc, {r1, r5, r7, r9, fp, ip, lr, pc}	; <UNPREDICTABLE>
    9cd8:	00000082 	andeq	r0, r0, r2, lsl #1
    9cdc:	c90fdaa2 	stmdbgt	pc, {r1, r5, r7, r9, fp, ip, lr, pc}	; <UNPREDICTABLE>
    9ce0:	00000081 	andeq	r0, r0, r1, lsl #1
    9ce4:	860a91c1 	strhi	r9, [sl], -r1, asr #3
    9ce8:	00000081 	andeq	r0, r0, r1, lsl #1
    9cec:	860a91c1 	strhi	r9, [sl], -r1, asr #3
    9cf0:	00000080 	andeq	r0, r0, r0, lsl #1
    9cf4:	c9100000 	ldmdbgt	r0, {}	; <UNPREDICTABLE>
    9cf8:	80000081 	andhi	r0, r0, r1, lsl #1
    9cfc:	95777a61 	ldrbls	r7, [r7, #-2657]!	; 0xfffff59f
    9d00:	0000006f 	andeq	r0, r0, pc, rrx
    9d04:	e92d4000 	stmfd	sp!, {lr}
    9d08:	ebfff675 	bl	76e4 <BASIC$$Code+0x76e4>
    9d0c:	5bfffcd5 	blpl	9068 <BASIC$$Code+0x9068>
    9d10:	e3510098 	cmp	r1, #152	; 0x98
    9d14:	2a0003f0 	bcs	acdc <BASIC$$Code+0xacdc>
    9d18:	e3a0a000 	mov	sl, #0
    9d1c:	e3a03000 	mov	r3, #0
    9d20:	ebfff4b9 	bl	700c <BASIC$$Code+0x700c>
    9d24:	e24f9050 	sub	r9, pc, #80	; 0x50
    9d28:	ebfffdbf 	bl	942c <BASIC$$Code+0x942c>
    9d2c:	eb0000ca 	bl	a05c <BASIC$$Code+0xa05c>
    9d30:	4bfffe34 	blmi	9608 <BASIC$$Code+0x9608>
    9d34:	ebfffcf0 	bl	90fc <BASIC$$Code+0x90fc>
    9d38:	e3100001 	tst	r0, #1
    9d3c:	122aa102 	eorne	sl, sl, #-2147483648	; 0x80000000
    9d40:	ebfffcca 	bl	9070 <BASIC$$Code+0x9070>
    9d44:	e3a07102 	mov	r7, #-2147483648	; 0x80000000
    9d48:	e3a04102 	mov	r4, #-2147483648	; 0x80000000
    9d4c:	e3a05080 	mov	r5, #128	; 0x80
    9d50:	ebfffdba 	bl	9440 <BASIC$$Code+0x9440>
    9d54:	ea00000f 	b	9d98 <BASIC$$Code+0x9d98>
    9d58:	e92d4000 	stmfd	sp!, {lr}
    9d5c:	ebfff660 	bl	76e4 <BASIC$$Code+0x76e4>
    9d60:	5bfffcc0 	blpl	9068 <BASIC$$Code+0x9068>
    9d64:	e3510098 	cmp	r1, #152	; 0x98
    9d68:	2a0003db 	bcs	acdc <BASIC$$Code+0xacdc>
    9d6c:	e1a0a003 	mov	sl, r3
    9d70:	e3a03000 	mov	r3, #0
    9d74:	ebfff4a4 	bl	700c <BASIC$$Code+0x700c>
    9d78:	eb0000b7 	bl	a05c <BASIC$$Code+0xa05c>
    9d7c:	4bfffe21 	blmi	9608 <BASIC$$Code+0x9608>
    9d80:	ebfffcdd 	bl	90fc <BASIC$$Code+0x90fc>
    9d84:	e3100001 	tst	r0, #1
    9d88:	122aa102 	eorne	sl, sl, #-2147483648	; 0x80000000
    9d8c:	e3300000 	teq	r0, #0
    9d90:	0a000033 	beq	9e64 <BASIC$$Code+0x9e64>
    9d94:	ebfffcb5 	bl	9070 <BASIC$$Code+0x9070>
    9d98:	e1a02120 	lsr	r2, r0, #2
    9d9c:	e0822320 	add	r2, r2, r0, lsr #6
    9da0:	e0422420 	sub	r2, r2, r0, lsr #8
    9da4:	e0422520 	sub	r2, r2, r0, lsr #10
    9da8:	e0822620 	add	r2, r2, r0, lsr #12
    9dac:	e04228a0 	sub	r2, r2, r0, lsr #17
    9db0:	e3a04000 	mov	r4, #0
    9db4:	e0922f80 	adds	r2, r2, r0, lsl #31
    9db8:	e0a440a0 	adc	r4, r4, r0, lsr #1
    9dbc:	e0922e00 	adds	r2, r2, r0, lsl #28
    9dc0:	e0a44220 	adc	r4, r4, r0, lsr #4
    9dc4:	e0922c80 	adds	r2, r2, r0, lsl #25
    9dc8:	e0a443a0 	adc	r4, r4, r0, lsr #7
    9dcc:	e0922a80 	adds	r2, r2, r0, lsl #21
    9dd0:	e0a445a0 	adc	r4, r4, r0, lsr #11
    9dd4:	e0522700 	subs	r2, r2, r0, lsl #14
    9dd8:	e0c44920 	sbc	r4, r4, r0, lsr #18
    9ddc:	e0522600 	subs	r2, r2, r0, lsl #12
    9de0:	e0c44a20 	sbc	r4, r4, r0, lsr #20
    9de4:	e0922500 	adds	r2, r2, r0, lsl #10
    9de8:	e0a44b20 	adc	r4, r4, r0, lsr #22
    9dec:	e0922400 	adds	r2, r2, r0, lsl #8
    9df0:	e0a44c20 	adc	r4, r4, r0, lsr #24
    9df4:	e0922300 	adds	r2, r2, r0, lsl #6
    9df8:	e0a44d20 	adc	r4, r4, r0, lsr #26
    9dfc:	e0922100 	adds	r2, r2, r0, lsl #2
    9e00:	e0a44f20 	adc	r4, r4, r0, lsr #30
    9e04:	e0900004 	adds	r0, r0, r4
    9e08:	22811001 	addcs	r1, r1, #1
    9e0c:	21a020a2 	lsrcs	r2, r2, #1
    9e10:	21822f80 	orrcs	r2, r2, r0, lsl #31
    9e14:	21a00060 	rrxcs	r0, r0
    9e18:	e2811001 	add	r1, r1, #1
    9e1c:	e2233102 	eor	r3, r3, #-2147483648	; 0x80000000
    9e20:	e1a0900d 	mov	r9, sp
    9e24:	e92d000e 	push	{r1, r2, r3}
    9e28:	ebfffd7f 	bl	942c <BASIC$$Code+0x942c>
    9e2c:	ebffff20 	bl	9ab4 <BASIC$$Code+0x9ab4>
    9e30:	e8bd000e 	pop	{r1, r2, r3}
    9e34:	e2411020 	sub	r1, r1, #32
    9e38:	e1b00002 	movs	r0, r2
    9e3c:	0a000008 	beq	9e64 <BASIC$$Code+0x9e64>
    9e40:	52411001 	subpl	r1, r1, #1
    9e44:	51b00080 	lslspl	r0, r0, #1
    9e48:	5afffffc 	bpl	9e40 <BASIC$$Code+0x9e40>
    9e4c:	e3310000 	teq	r1, #0
    9e50:	4a000003 	bmi	9e64 <BASIC$$Code+0x9e64>
    9e54:	e1a0900d 	mov	r9, sp
    9e58:	ebfffd73 	bl	942c <BASIC$$Code+0x942c>
    9e5c:	ebffff14 	bl	9ab4 <BASIC$$Code+0x9ab4>
    9e60:	ea000001 	b	9e6c <BASIC$$Code+0x9e6c>
    9e64:	e1a0900d 	mov	r9, sp
    9e68:	ebffff20 	bl	9af0 <BASIC$$Code+0x9af0>
    9e6c:	e3510071 	cmp	r1, #113	; 0x71
    9e70:	3a000017 	bcc	9ed4 <BASIC$$Code+0x9ed4>
    9e74:	ebfffcbd 	bl	9170 <BASIC$$Code+0x9170>
    9e78:	ebfff463 	bl	700c <BASIC$$Code+0x700c>
    9e7c:	e28f9060 	add	r9, pc, #96	; 0x60
    9e80:	ebfffcdd 	bl	91fc <BASIC$$Code+0x91fc>
    9e84:	e28f9060 	add	r9, pc, #96	; 0x60
    9e88:	ebfffd67 	bl	942c <BASIC$$Code+0x942c>
    9e8c:	e1a0900d 	mov	r9, sp
    9e90:	ebfffcd9 	bl	91fc <BASIC$$Code+0x91fc>
    9e94:	e28f9058 	add	r9, pc, #88	; 0x58
    9e98:	ebfffd63 	bl	942c <BASIC$$Code+0x942c>
    9e9c:	e1a0900d 	mov	r9, sp
    9ea0:	ebfffcd5 	bl	91fc <BASIC$$Code+0x91fc>
    9ea4:	e28f9050 	add	r9, pc, #80	; 0x50
    9ea8:	ebfffd5f 	bl	942c <BASIC$$Code+0x942c>
    9eac:	e1a0900d 	mov	r9, sp
    9eb0:	ebfffcd1 	bl	91fc <BASIC$$Code+0x91fc>
    9eb4:	e28f9048 	add	r9, pc, #72	; 0x48
    9eb8:	ebfffd5b 	bl	942c <BASIC$$Code+0x942c>
    9ebc:	e1a0900d 	mov	r9, sp
    9ec0:	ebfffccd 	bl	91fc <BASIC$$Code+0x91fc>
    9ec4:	e28dd008 	add	sp, sp, #8
    9ec8:	e1a0900d 	mov	r9, sp
    9ecc:	ebfffcca 	bl	91fc <BASIC$$Code+0x91fc>
    9ed0:	ebfffd55 	bl	942c <BASIC$$Code+0x942c>
    9ed4:	e28dd008 	add	sp, sp, #8
    9ed8:	e023300a 	eor	r3, r3, sl
    9edc:	e3b09102 	movs	r9, #-2147483648	; 0x80000000
    9ee0:	e8bd8000 	ldmfd	sp!, {pc}
    9ee4:	cd070c7f 	stcgt	12, cr0, [r7, #-508]	; 0xfffffe04
    9ee8:	80000067 	andhi	r0, r0, r7, rrx
    9eec:	b8b5d27e 	ldmlt	r5!, {r1, r2, r3, r4, r5, r6, r9, ip, lr, pc}
    9ef0:	0000006e 	andeq	r0, r0, lr, rrx
    9ef4:	d00bd47f 	andle	sp, fp, pc, ror r4
    9ef8:	80000074 	andhi	r0, r0, r4, ror r0
    9efc:	888885ba 	stmhi	r8, {r1, r3, r4, r5, r7, r8, sl, pc}
    9f00:	0000007a 	andeq	r0, r0, sl, ror r0
    9f04:	aaaaaaa1 	bge	feab4990 <BASIC$$Code+0xfeab4990>
    9f08:	8000007e 	andhi	r0, r0, lr, ror r0
    9f0c:	e92d4000 	stmfd	sp!, {lr}
    9f10:	ebfff5f3 	bl	76e4 <BASIC$$Code+0x76e4>
    9f14:	5bfffc53 	blpl	9068 <BASIC$$Code+0x9068>
    9f18:	e92d0008 	stmfd	sp!, {r3}
    9f1c:	e3a03000 	mov	r3, #0
    9f20:	e3a0a000 	mov	sl, #0
    9f24:	e3510081 	cmp	r1, #129	; 0x81
    9f28:	23500106 	cmpcs	r0, #-2147483647	; 0x80000001
    9f2c:	3a000001 	bcc	9f38 <BASIC$$Code+0x9f38>
    9f30:	ebfffcd5 	bl	928c <BASIC$$Code+0x928c>
    9f34:	e3a0a002 	mov	sl, #2
    9f38:	e351007f 	cmp	r1, #127	; 0x7f
    9f3c:	03500489 	cmpeq	r0, #-1996488704	; 0x89000000
    9f40:	03500603 	cmpeq	r0, #3145728	; 0x300000
    9f44:	03500ca2 	cmpeq	r0, #41472	; 0xa200
    9f48:	035000f5 	cmpeq	r0, #245	; 0xf5
    9f4c:	3a00000f 	bcc	9f90 <BASIC$$Code+0x9f90>
    9f50:	ebfff42d 	bl	700c <BASIC$$Code+0x700c>
    9f54:	e28f90d8 	add	r9, pc, #216	; 0xd8
    9f58:	ebfffca7 	bl	91fc <BASIC$$Code+0x91fc>
    9f5c:	e3a04102 	mov	r4, #-2147483648	; 0x80000000
    9f60:	e3a05081 	mov	r5, #129	; 0x81
    9f64:	e3a07102 	mov	r7, #-2147483648	; 0x80000000
    9f68:	ebfffd34 	bl	9440 <BASIC$$Code+0x9440>
    9f6c:	ebfff426 	bl	700c <BASIC$$Code+0x700c>
    9f70:	e28d9008 	add	r9, sp, #8
    9f74:	ebfffedd 	bl	9af0 <BASIC$$Code+0x9af0>
    9f78:	e28f90b4 	add	r9, pc, #180	; 0xb4
    9f7c:	ebfffd2a 	bl	942c <BASIC$$Code+0x942c>
    9f80:	e1a0900d 	mov	r9, sp
    9f84:	ebfffcd6 	bl	92e4 <BASIC$$Code+0x92e4>
    9f88:	e28dd010 	add	sp, sp, #16
    9f8c:	e28aa001 	add	sl, sl, #1
    9f90:	e3510071 	cmp	r1, #113	; 0x71
    9f94:	3a000017 	bcc	9ff8 <BASIC$$Code+0x9ff8>
    9f98:	ebfff41b 	bl	700c <BASIC$$Code+0x700c>
    9f9c:	ebfffc73 	bl	9170 <BASIC$$Code+0x9170>
    9fa0:	ebfff419 	bl	700c <BASIC$$Code+0x700c>
    9fa4:	e28f9090 	add	r9, pc, #144	; 0x90
    9fa8:	ebfffc93 	bl	91fc <BASIC$$Code+0x91fc>
    9fac:	e28f9090 	add	r9, pc, #144	; 0x90
    9fb0:	ebfffd1d 	bl	942c <BASIC$$Code+0x942c>
    9fb4:	e1a0900d 	mov	r9, sp
    9fb8:	ebfffc8f 	bl	91fc <BASIC$$Code+0x91fc>
    9fbc:	ebfff412 	bl	700c <BASIC$$Code+0x700c>
    9fc0:	e28d9008 	add	r9, sp, #8
    9fc4:	ebfffec9 	bl	9af0 <BASIC$$Code+0x9af0>
    9fc8:	e28f907c 	add	r9, pc, #124	; 0x7c
    9fcc:	ebfffd16 	bl	942c <BASIC$$Code+0x942c>
    9fd0:	e28d9008 	add	r9, sp, #8
    9fd4:	ebfffc88 	bl	91fc <BASIC$$Code+0x91fc>
    9fd8:	e28f9074 	add	r9, pc, #116	; 0x74
    9fdc:	ebfffd12 	bl	942c <BASIC$$Code+0x942c>
    9fe0:	e1a0900d 	mov	r9, sp
    9fe4:	ebfffcbe 	bl	92e4 <BASIC$$Code+0x92e4>
    9fe8:	e28d9010 	add	r9, sp, #16
    9fec:	ebfffc82 	bl	91fc <BASIC$$Code+0x91fc>
    9ff0:	ebfffd0d 	bl	942c <BASIC$$Code+0x942c>
    9ff4:	e28dd018 	add	sp, sp, #24
    9ff8:	e35a0001 	cmp	sl, #1
    9ffc:	82233102 	eorhi	r3, r3, #-2147483648	; 0x80000000
    a000:	3a000004 	bcc	a018 <BASIC$$Code+0xa018>
    a004:	e35a0002 	cmp	sl, #2
    a008:	b24f9fc9 	sublt	r9, pc, #804	; 0x324
    a00c:	024f9fce 	subeq	r9, pc, #824	; 0x338
    a010:	824f9fcd 	subhi	r9, pc, #820	; 0x334
    a014:	ebfffd04 	bl	942c <BASIC$$Code+0x942c>
    a018:	e8bd4010 	pop	{r4, lr}
    a01c:	e3540000 	cmp	r4, #0
    a020:	12233102 	eorne	r3, r3, #-2147483648	; 0x80000000
    a024:	e3300000 	teq	r0, #0
    a028:	03a03000 	moveq	r3, #0
    a02c:	e3b09102 	movs	r9, #-2147483648	; 0x80000000
    a030:	e1a0f00e 	mov	pc, lr
    a034:	ddb3d743 	ldcle	7, cr13, [r3, #268]!	; 0x10c
    a038:	00000081 	andeq	r0, r0, r1, lsl #1
    a03c:	b853adf8 	ldmdalt	r3, {r3, r4, r5, r6, r7, r8, sl, fp, sp, pc}^
    a040:	80000080 	andhi	r0, r0, r0, lsl #1
    a044:	b854a78a 	ldmdalt	r4, {r1, r3, r7, r8, r9, sl, sp, pc}^
    a048:	80000081 	andhi	r0, r0, r1, lsl #1
    a04c:	98123bf0 	ldmdals	r2, {r4, r5, r6, r7, r8, r9, fp, ip, sp}
    a050:	00000083 	andeq	r0, r0, r3, lsl #1
    a054:	8a3f7dbf 	bhi	fe9758 <BASIC$$Code+0xfe9758>
    a058:	00000083 	andeq	r0, r0, r3, lsl #1
    a05c:	e1a06f00 	lsl	r6, r0, #30
    a060:	e1a04120 	lsr	r4, r0, #2
    a064:	e0966d80 	adds	r6, r6, r0, lsl #27
    a068:	e0a442a0 	adc	r4, r4, r0, lsr #5
    a06c:	e0566c80 	subs	r6, r6, r0, lsl #25
    a070:	e0c443a0 	sbc	r4, r4, r0, lsr #7
    a074:	e0566a00 	subs	r6, r6, r0, lsl #20
    a078:	e0c44620 	sbc	r4, r4, r0, lsr #12
    a07c:	e0966900 	adds	r6, r6, r0, lsl #18
    a080:	e0a44720 	adc	r4, r4, r0, lsr #14
    a084:	e0566800 	subs	r6, r6, r0, lsl #16
    a088:	e0c44820 	sbc	r4, r4, r0, lsr #16
    a08c:	e0966580 	adds	r6, r6, r0, lsl #11
    a090:	e0a44aa0 	adc	r4, r4, r0, lsr #21
    a094:	e0566400 	subs	r6, r6, r0, lsl #8
    a098:	e0c44c20 	sbc	r4, r4, r0, lsr #24
    a09c:	e0566280 	subs	r6, r6, r0, lsl #5
    a0a0:	e0c44da0 	sbc	r4, r4, r0, lsr #27
    a0a4:	e0566100 	subs	r6, r6, r0, lsl #2
    a0a8:	e0c44f20 	sbc	r4, r4, r0, lsr #30
    a0ac:	e0900004 	adds	r0, r0, r4
    a0b0:	32411001 	subcc	r1, r1, #1
    a0b4:	21a060a6 	lsrcs	r6, r6, #1
    a0b8:	21866f80 	orrcs	r6, r6, r0, lsl #31
    a0bc:	21a00060 	rrxcs	r0, r0
    a0c0:	e3560102 	cmp	r6, #-2147483648	; 0x80000000
    a0c4:	03c00001 	biceq	r0, r0, #1
    a0c8:	22900001 	addscs	r0, r0, #1
    a0cc:	21a00060 	rrxcs	r0, r0
    a0d0:	22811001 	addcs	r1, r1, #1
    a0d4:	e2411001 	sub	r1, r1, #1
    a0d8:	e3310000 	teq	r1, #0
    a0dc:	e1a0f00e 	mov	pc, lr
    a0e0:	e3350000 	teq	r5, #0
    a0e4:	1a000090 	bne	a32c <BASIC$$Code+0xa32c>
    a0e8:	e1a05864 	ror	r5, r4, #16
    a0ec:	e20550ff 	and	r5, r5, #255	; 0xff
    a0f0:	e1a04464 	ror	r4, r4, #8
    a0f4:	e20440ff 	and	r4, r4, #255	; 0xff
    a0f8:	e3550003 	cmp	r5, #3
    a0fc:	23a05000 	movcs	r5, #0
    a100:	e354000b 	cmp	r4, #11
    a104:	23a0400a 	movcs	r4, #10
    a108:	e3340000 	teq	r4, #0
    a10c:	1a000001 	bne	a118 <BASIC$$Code+0xa118>
    a110:	e3350002 	teq	r5, #2
    a114:	13a0400a 	movne	r4, #10
    a118:	e3a07000 	mov	r7, #0
    a11c:	e92d4010 	push	{r4, lr}
    a120:	ebfffbce 	bl	9060 <BASIC$$Code+0x9060>
    a124:	e2889c03 	add	r9, r8, #768	; 0x300
    a128:	e3500000 	cmp	r0, #0
    a12c:	1a000007 	bne	a150 <BASIC$$Code+0xa150>
    a130:	e3350000 	teq	r5, #0
    a134:	1a000002 	bne	a144 <BASIC$$Code+0xa144>
    a138:	e3a06030 	mov	r6, #48	; 0x30
    a13c:	e4c96001 	strb	r6, [r9], #1
    a140:	e8bd8040 	pop	{r6, pc}
    a144:	e3350001 	teq	r5, #1
    a148:	0a00004c 	beq	a280 <BASIC$$Code+0xa280>
    a14c:	ea000030 	b	a214 <BASIC$$Code+0xa214>
    a150:	e3a02000 	mov	r2, #0
    a154:	e3330000 	teq	r3, #0
    a158:	43a0302d 	movmi	r3, #45	; 0x2d
    a15c:	44c93001 	strbmi	r3, [r9], #1
    a160:	43a03000 	movmi	r3, #0
    a164:	e3510081 	cmp	r1, #129	; 0x81
    a168:	2a000002 	bcs	a178 <BASIC$$Code+0xa178>
    a16c:	ebfffb97 	bl	8fd0 <BASIC$$Code+0x8fd0>
    a170:	e2477001 	sub	r7, r7, #1
    a174:	eafffffa 	b	a164 <BASIC$$Code+0xa164>
    a178:	e3510084 	cmp	r1, #132	; 0x84
    a17c:	3a000008 	bcc	a1a4 <BASIC$$Code+0xa1a4>
    a180:	1a000001 	bne	a18c <BASIC$$Code+0xa18c>
    a184:	e350020a 	cmp	r0, #-1610612736	; 0xa0000000
    a188:	3a000005 	bcc	a1a4 <BASIC$$Code+0xa1a4>
    a18c:	ebfffb99 	bl	8ff8 <BASIC$$Code+0x8ff8>
    a190:	e2877001 	add	r7, r7, #1
    a194:	eafffff2 	b	a164 <BASIC$$Code+0xa164>
    a198:	ebfffd1f 	bl	961c <BASIC$$Code+0x961c>
    a19c:	e2877001 	add	r7, r7, #1
    a1a0:	eaffffef 	b	a164 <BASIC$$Code+0xa164>
    a1a4:	e59d4000 	ldr	r4, [sp]
    a1a8:	e3550002 	cmp	r5, #2
    a1ac:	1a000004 	bne	a1c4 <BASIC$$Code+0xa1c4>
    a1b0:	e0b44007 	adcs	r4, r4, r7
    a1b4:	4a000016 	bmi	a214 <BASIC$$Code+0xa214>
    a1b8:	e354000b 	cmp	r4, #11
    a1bc:	23a0400a 	movcs	r4, #10
    a1c0:	23a05000 	movcs	r5, #0
    a1c4:	e92d00bf 	push	{r0, r1, r2, r3, r4, r5, r7}
    a1c8:	e3a0020a 	mov	r0, #-1610612736	; 0xa0000000
    a1cc:	e3a01083 	mov	r1, #131	; 0x83
    a1d0:	e3a02000 	mov	r2, #0
    a1d4:	e3a03000 	mov	r3, #0
    a1d8:	e1b05004 	movs	r5, r4
    a1dc:	0a000002 	beq	a1ec <BASIC$$Code+0xa1ec>
    a1e0:	ebfffb84 	bl	8ff8 <BASIC$$Code+0x8ff8>
    a1e4:	e2555001 	subs	r5, r5, #1
    a1e8:	1afffffc 	bne	a1e0 <BASIC$$Code+0xa1e0>
    a1ec:	e8bd00f0 	pop	{r4, r5, r6, r7}
    a1f0:	ebfffccf 	bl	9534 <BASIC$$Code+0x9534>
    a1f4:	e3510084 	cmp	r1, #132	; 0x84
    a1f8:	3bfffb7a 	blcc	8fe8 <BASIC$$Code+0x8fe8>
    a1fc:	3afffffc 	bcc	a1f4 <BASIC$$Code+0xa1f4>
    a200:	e8bd00b0 	pop	{r4, r5, r7}
    a204:	e350020a 	cmp	r0, #-1610612736	; 0xa0000000
    a208:	2affffe2 	bcs	a198 <BASIC$$Code+0xa198>
    a20c:	e3540000 	cmp	r4, #0
    a210:	1a000003 	bne	a224 <BASIC$$Code+0xa224>
    a214:	e59d4000 	ldr	r4, [sp]
    a218:	e2844001 	add	r4, r4, #1
    a21c:	ebfffcf9 	bl	9608 <BASIC$$Code+0x9608>
    a220:	e3a07000 	mov	r7, #0
    a224:	e3a06001 	mov	r6, #1
    a228:	e3350001 	teq	r5, #1
    a22c:	0a000013 	beq	a280 <BASIC$$Code+0xa280>
    a230:	e3370000 	teq	r7, #0
    a234:	4a000004 	bmi	a24c <BASIC$$Code+0xa24c>
    a238:	e1570004 	cmp	r7, r4
    a23c:	2a00000f 	bcs	a280 <BASIC$$Code+0xa280>
    a240:	e2876001 	add	r6, r7, #1
    a244:	e3a07000 	mov	r7, #0
    a248:	ea00000c 	b	a280 <BASIC$$Code+0xa280>
    a24c:	e3350002 	teq	r5, #2
    a250:	0a000002 	beq	a260 <BASIC$$Code+0xa260>
    a254:	e3770001 	cmn	r7, #1
    a258:	13770002 	cmnne	r7, #2
    a25c:	1a000007 	bne	a280 <BASIC$$Code+0xa280>
    a260:	e3a0602e 	mov	r6, #46	; 0x2e
    a264:	e5c96001 	strb	r6, [r9, #1]
    a268:	e3a06030 	mov	r6, #48	; 0x30
    a26c:	e4c96002 	strb	r6, [r9], #2
    a270:	e2977001 	adds	r7, r7, #1
    a274:	14c96001 	strbne	r6, [r9], #1
    a278:	1afffffc 	bne	a270 <BASIC$$Code+0xa270>
    a27c:	e3a06080 	mov	r6, #128	; 0x80
    a280:	e1a03e20 	lsr	r3, r0, #28
    a284:	e3833030 	orr	r3, r3, #48	; 0x30
    a288:	e4c93001 	strb	r3, [r9], #1
    a28c:	e3c0020f 	bic	r0, r0, #-268435456	; 0xf0000000
    a290:	ebfffb47 	bl	8fb4 <BASIC$$Code+0x8fb4>
    a294:	e2566001 	subs	r6, r6, #1
    a298:	03a0302e 	moveq	r3, #46	; 0x2e
    a29c:	04c93001 	strbeq	r3, [r9], #1
    a2a0:	e2544001 	subs	r4, r4, #1
    a2a4:	1afffff5 	bne	a280 <BASIC$$Code+0xa280>
    a2a8:	e3350001 	teq	r5, #1
    a2ac:	0a000008 	beq	a2d4 <BASIC$$Code+0xa2d4>
    a2b0:	e3350002 	teq	r5, #2
    a2b4:	0a000004 	beq	a2cc <BASIC$$Code+0xa2cc>
    a2b8:	e5793001 	ldrb	r3, [r9, #-1]!
    a2bc:	e3530030 	cmp	r3, #48	; 0x30
    a2c0:	0afffffc 	beq	a2b8 <BASIC$$Code+0xa2b8>
    a2c4:	e353002e 	cmp	r3, #46	; 0x2e
    a2c8:	12899001 	addne	r9, r9, #1
    a2cc:	e3370000 	teq	r7, #0
    a2d0:	0a000014 	beq	a328 <BASIC$$Code+0xa328>
    a2d4:	e3a03045 	mov	r3, #69	; 0x45
    a2d8:	e4c93001 	strb	r3, [r9], #1
    a2dc:	e2976000 	adds	r6, r7, #0
    a2e0:	43a0302d 	movmi	r3, #45	; 0x2d
    a2e4:	44c93001 	strbmi	r3, [r9], #1
    a2e8:	42666000 	rsbmi	r6, r6, #0
    a2ec:	e3a03030 	mov	r3, #48	; 0x30
    a2f0:	e256600a 	subs	r6, r6, #10
    a2f4:	22833001 	addcs	r3, r3, #1
    a2f8:	2afffffc 	bcs	a2f0 <BASIC$$Code+0xa2f0>
    a2fc:	e3330030 	teq	r3, #48	; 0x30
    a300:	14c93001 	strbne	r3, [r9], #1
    a304:	e286603a 	add	r6, r6, #58	; 0x3a
    a308:	e4c96001 	strb	r6, [r9], #1
    a30c:	e3350000 	teq	r5, #0
    a310:	0a000004 	beq	a328 <BASIC$$Code+0xa328>
    a314:	e3a02020 	mov	r2, #32
    a318:	e3370000 	teq	r7, #0
    a31c:	54c92001 	strbpl	r2, [r9], #1
    a320:	e3330030 	teq	r3, #48	; 0x30
    a324:	04c92001 	strbeq	r2, [r9], #1
    a328:	e8bd8010 	pop	{r4, pc}
    a32c:	e92d4000 	stmfd	sp!, {lr}
    a330:	ebfffb65 	bl	90cc <BASIC$$Code+0x90cc>
    a334:	e2889c03 	add	r9, r8, #768	; 0x300
    a338:	e3a0201c 	mov	r2, #28
    a33c:	e3a03000 	mov	r3, #0
    a340:	e1a01230 	lsr	r1, r0, r2
    a344:	e201100f 	and	r1, r1, #15
    a348:	e3510009 	cmp	r1, #9
    a34c:	93811030 	orrls	r1, r1, #48	; 0x30
    a350:	82811037 	addhi	r1, r1, #55	; 0x37
    a354:	e3320000 	teq	r2, #0
    a358:	03a03001 	moveq	r3, #1
    a35c:	e3330000 	teq	r3, #0
    a360:	03510030 	cmpeq	r1, #48	; 0x30
    a364:	13a03001 	movne	r3, #1
    a368:	14c91001 	strbne	r1, [r9], #1
    a36c:	e2522004 	subs	r2, r2, #4
    a370:	5afffff2 	bpl	a340 <BASIC$$Code+0xa340>
    a374:	e8bd8000 	ldmfd	sp!, {pc}
    a378:	e3b09101 	movs	r9, #1073741824	; 0x40000000
    a37c:	e1a0f00e 	mov	pc, lr
    a380:	e35a002e 	cmp	sl, #46	; 0x2e
    a384:	e3a00000 	mov	r0, #0
    a388:	e3a02000 	mov	r2, #0
    a38c:	e3a03000 	mov	r3, #0
    a390:	e3a05000 	mov	r5, #0
    a394:	0a000022 	beq	a424 <BASIC$$Code+0xa424>
    a398:	e24aa030 	sub	sl, sl, #48	; 0x30
    a39c:	e35a0009 	cmp	sl, #9
    a3a0:	8afffff4 	bhi	a378 <BASIC$$Code+0xa378>
    a3a4:	e1a02c0a 	lsl	r2, sl, #24
    a3a8:	e4dba001 	ldrb	sl, [fp], #1
    a3ac:	e25a1030 	subs	r1, sl, #48	; 0x30
    a3b0:	3a000005 	bcc	a3cc <BASIC$$Code+0xa3cc>
    a3b4:	e3510009 	cmp	r1, #9
    a3b8:	8a000005 	bhi	a3d4 <BASIC$$Code+0xa3d4>
    a3bc:	e1a01c01 	lsl	r1, r1, #24
    a3c0:	e0822102 	add	r2, r2, r2, lsl #2
    a3c4:	e0812082 	add	r2, r1, r2, lsl #1
    a3c8:	e4dba001 	ldrb	sl, [fp], #1
    a3cc:	e35a002e 	cmp	sl, #46	; 0x2e
    a3d0:	0a000013 	beq	a424 <BASIC$$Code+0xa424>
    a3d4:	e35a0045 	cmp	sl, #69	; 0x45
    a3d8:	0a000015 	beq	a434 <BASIC$$Code+0xa434>
    a3dc:	e24aa030 	sub	sl, sl, #48	; 0x30
    a3e0:	e35a0009 	cmp	sl, #9
    a3e4:	8a000016 	bhi	a444 <BASIC$$Code+0xa444>
    a3e8:	e3500306 	cmp	r0, #402653184	; 0x18000000
    a3ec:	e3330000 	teq	r3, #0
    a3f0:	2a000009 	bcs	a41c <BASIC$$Code+0xa41c>
    a3f4:	12455001 	subne	r5, r5, #1
    a3f8:	e0922002 	adds	r2, r2, r2
    a3fc:	e0a00000 	adc	r0, r0, r0
    a400:	e1a01f22 	lsr	r1, r2, #30
    a404:	e1811100 	orr	r1, r1, r0, lsl #2
    a408:	e0922102 	adds	r2, r2, r2, lsl #2
    a40c:	e0a00001 	adc	r0, r0, r1
    a410:	e0922c0a 	adds	r2, r2, sl, lsl #24
    a414:	e2a00000 	adc	r0, r0, #0
    a418:	eaffffea 	b	a3c8 <BASIC$$Code+0xa3c8>
    a41c:	02855001 	addeq	r5, r5, #1
    a420:	eaffffe8 	b	a3c8 <BASIC$$Code+0xa3c8>
    a424:	e2333001 	eors	r3, r3, #1
    a428:	1affffe6 	bne	a3c8 <BASIC$$Code+0xa3c8>
    a42c:	e2233001 	eor	r3, r3, #1
    a430:	ea000003 	b	a444 <BASIC$$Code+0xa444>
    a434:	e1a0700e 	mov	r7, lr
    a438:	eb000020 	bl	a4c0 <BASIC$$Code+0xa4c0>
    a43c:	e1a0e007 	mov	lr, r7
    a440:	e0855006 	add	r5, r5, r6
    a444:	e24bb001 	sub	fp, fp, #1
    a448:	e1951003 	orrs	r1, r5, r3
    a44c:	0a000014 	beq	a4a4 <BASIC$$Code+0xa4a4>
    a450:	e1a0700e 	mov	r7, lr
    a454:	e1921000 	orrs	r1, r2, r0
    a458:	0a00000d 	beq	a494 <BASIC$$Code+0xa494>
    a45c:	e3a010a8 	mov	r1, #168	; 0xa8
    a460:	e3300000 	teq	r0, #0
    a464:	5bfffc5b 	blpl	95d8 <BASIC$$Code+0x95d8>
    a468:	e3350000 	teq	r5, #0
    a46c:	0a000007 	beq	a490 <BASIC$$Code+0xa490>
    a470:	4a000003 	bmi	a484 <BASIC$$Code+0xa484>
    a474:	ebfffad5 	bl	8fd0 <BASIC$$Code+0x8fd0>
    a478:	e2555001 	subs	r5, r5, #1
    a47c:	1afffffc 	bne	a474 <BASIC$$Code+0xa474>
    a480:	ea000002 	b	a490 <BASIC$$Code+0xa490>
    a484:	ebfffadb 	bl	8ff8 <BASIC$$Code+0x8ff8>
    a488:	e2955001 	adds	r5, r5, #1
    a48c:	1afffffc 	bne	a484 <BASIC$$Code+0xa484>
    a490:	ebfffb3e 	bl	9190 <BASIC$$Code+0x9190>
    a494:	e3a09102 	mov	r9, #-2147483648	; 0x80000000
    a498:	e3a03000 	mov	r3, #0
    a49c:	e2599000 	subs	r9, r9, #0
    a4a0:	e1a0f007 	mov	pc, r7
    a4a4:	e3500502 	cmp	r0, #8388608	; 0x800000
    a4a8:	2affffe8 	bcs	a450 <BASIC$$Code+0xa450>
    a4ac:	e1a00400 	lsl	r0, r0, #8
    a4b0:	e1800c22 	orr	r0, r0, r2, lsr #24
    a4b4:	e3a09101 	mov	r9, #1073741824	; 0x40000000
    a4b8:	e2599000 	subs	r9, r9, #0
    a4bc:	e1a0f00e 	mov	pc, lr
    a4c0:	e4dba001 	ldrb	sl, [fp], #1
    a4c4:	e35a002d 	cmp	sl, #45	; 0x2d
    a4c8:	0a000011 	beq	a514 <BASIC$$Code+0xa514>
    a4cc:	e35a002b 	cmp	sl, #43	; 0x2b
    a4d0:	1a000000 	bne	a4d8 <BASIC$$Code+0xa4d8>
    a4d4:	e4dba001 	ldrb	sl, [fp], #1
    a4d8:	e35a0039 	cmp	sl, #57	; 0x39
    a4dc:	8a00000a 	bhi	a50c <BASIC$$Code+0xa50c>
    a4e0:	e25aa030 	subs	sl, sl, #48	; 0x30
    a4e4:	3a000008 	bcc	a50c <BASIC$$Code+0xa50c>
    a4e8:	e1a0600a 	mov	r6, sl
    a4ec:	e4dba001 	ldrb	sl, [fp], #1
    a4f0:	e35a0039 	cmp	sl, #57	; 0x39
    a4f4:	8a000003 	bhi	a508 <BASIC$$Code+0xa508>
    a4f8:	e25aa030 	subs	sl, sl, #48	; 0x30
    a4fc:	228bb001 	addcs	fp, fp, #1
    a500:	20866106 	addcs	r6, r6, r6, lsl #2
    a504:	208a6086 	addcs	r6, sl, r6, lsl #1
    a508:	e1a0f00e 	mov	pc, lr
    a50c:	e3a06000 	mov	r6, #0
    a510:	e1a0f00e 	mov	pc, lr
    a514:	e92d4000 	stmfd	sp!, {lr}
    a518:	ebffffed 	bl	a4d4 <BASIC$$Code+0xa4d4>
    a51c:	e2666000 	rsb	r6, r6, #0
    a520:	e8bd8000 	ldmfd	sp!, {pc}
    a524:	ef000120 	svc	0x00000120
    a528:	e92d0201 	push	{r0, r9}
    a52c:	e3a0901c 	mov	r9, #28
    a530:	e1a0093a 	lsr	r0, sl, r9
    a534:	e200000f 	and	r0, r0, #15
    a538:	e3500009 	cmp	r0, #9
    a53c:	93800030 	orrls	r0, r0, #48	; 0x30
    a540:	82800037 	addhi	r0, r0, #55	; 0x37
    a544:	ef000000 	svc	0x00000000
    a548:	e2599004 	subs	r9, r9, #4
    a54c:	5afffff7 	bpl	a530 <BASIC$$Code+0xa530>
    a550:	e8bd0201 	pop	{r0, r9}
    a554:	e1b0f00e 	movs	pc, lr
    a558:	ebffd9f1 	bl	d24 <BASIC$$Code+0xd24>
    a55c:	6c695300 	stclvs	3, cr5, [r9], #-0
    a560:	0021796c 	eoreq	r7, r1, ip, ror #18
    a564:	ebffd9ee 	bl	d24 <BASIC$$Code+0xd24>
    a568:	206f4e00 	rsbcs	r4, pc, r0, lsl #28
    a56c:	6d6f6f72 	stclvs	15, cr6, [pc, #-456]!	; a3ac <BASIC$$Code+0xa3ac>
    a570:	206f7420 	rsbcs	r7, pc, r0, lsr #8
    a574:	74206f64 	strtvc	r6, [r0], #-3940	; 0xfffff09c
    a578:	20736968 	rsbscs	r6, r3, r8, ror #18
    a57c:	756e6572 	strbvc	r6, [lr, #-1394]!	; 0xfffffa8e
    a580:	7265626d 	rsbvc	r6, r5, #-805306362	; 0xd0000006
    a584:	00000000 	andeq	r0, r0, r0
    a588:	ebffd9e5 	bl	d24 <BASIC$$Code+0xd24>
    a58c:	6e694c00 	cdpvs	12, 6, cr4, cr9, cr0, {0}
    a590:	756e2065 	strbvc	r2, [lr, #-101]!	; 0xffffff9b
    a594:	7265626d 	rsbvc	r6, r5, #-805306362	; 0xd0000006
    a598:	616c2073 	smcvs	49667	; 0xc203
    a59c:	72656772 	rsbvc	r6, r5, #29884416	; 0x1c80000
    a5a0:	61687420 	cmnvs	r8, r0, lsr #8
    a5a4:	3536206e 	ldrcc	r2, [r6, #-110]!	; 0xffffff92
    a5a8:	20393732 	eorscs	r3, r9, r2, lsr r7
    a5ac:	6c756f77 	ldclvs	15, cr6, [r5], #-476	; 0xfffffe24
    a5b0:	65622064 	strbvs	r2, [r2, #-100]!	; 0xffffff9c
    a5b4:	6e656720 	cdpvs	7, 6, cr6, cr5, cr0, {1}
    a5b8:	74617265 	strbtvc	r7, [r1], #-613	; 0xfffffd9b
    a5bc:	62206465 	eorvs	r6, r0, #1694498816	; 0x65000000
    a5c0:	68742079 	ldmdavs	r4!, {r0, r3, r4, r5, r6, sp}^
    a5c4:	72207369 	eorvc	r7, r0, #-1543503871	; 0xa4000001
    a5c8:	6d756e65 	ldclvs	14, cr6, [r5, #-404]!	; 0xfffffe6c
    a5cc:	00726562 	rsbseq	r6, r2, r2, ror #10
    a5d0:	ebffd9d3 	bl	d24 <BASIC$$Code+0xd24>
    a5d4:	206f4e00 	rsbcs	r4, pc, r0, lsl #28
    a5d8:	6d6f6f72 	stclvs	15, cr6, [pc, #-456]!	; a418 <BASIC$$Code+0xa418>
    a5dc:	00000000 	andeq	r0, r0, r0
    a5e0:	ebffd9cf 	bl	d24 <BASIC$$Code+0xd24>
    a5e4:	6e694c00 	cdpvs	12, 6, cr4, cr9, cr0, {0}
    a5e8:	6f742065 	svcvs	0x00742065
    a5ec:	6f6c206f 	svcvs	0x006c206f
    a5f0:	0000676e 	andeq	r6, r0, lr, ror #14
    a5f4:	ebffd9ca 	bl	d24 <BASIC$$Code+0xd24>
    a5f8:	6f745300 	svcvs	0x00745300
    a5fc:	64657070 	strbtvs	r7, [r5], #-112	; 0xffffff90
    a600:	00000000 	andeq	r0, r0, r0
    a604:	ebffd9c6 	bl	d24 <BASIC$$Code+0xd24>
    a608:	766e4900 	strbtvc	r4, [lr], -r0, lsl #18
    a60c:	64696c61 	strbtvs	r6, [r9], #-3169	; 0xfffff39f
    a610:	53494c20 	movtpl	r4, #39968	; 0x9c20
    a614:	6f204f54 	svcvs	0x00204f54
    a618:	6f697470 	svcvs	0x00697470
    a61c:	0000006e 	andeq	r0, r0, lr, rrx
    a620:	ebffd9bf 	bl	d24 <BASIC$$Code+0xd24>
    a624:	766e4900 	strbtvc	r4, [lr], -r0, lsl #18
    a628:	64696c61 	strbtvs	r6, [r9], #-3169	; 0xfffff39f
    a62c:	49575420 	ldmdbmi	r7, {r5, sl, ip, lr}^
    a630:	6f204f4e 	svcvs	0x00204f4e
    a634:	6f697470 	svcvs	0x00697470
    a638:	0000006e 	andeq	r0, r0, lr, rrx
    a63c:	e3a00000 	mov	r0, #0
    a640:	e588029c 	str	r0, [r8, #668]	; 0x29c
    a644:	ebffd9b6 	bl	d24 <BASIC$$Code+0xd24>
    a648:	726f4300 	rsbvc	r4, pc, #0, 6
    a64c:	74707572 	ldrbtvc	r7, [r0], #-1394	; 0xfffffa8e
    a650:	206e6f69 	rsbcs	r6, lr, r9, ror #30
    a654:	7320666f 			; <UNDEFINED> instruction: 0x7320666f
    a658:	6b636174 	blvs	18e2c30 <BASIC$$Code+0x18e2c30>
    a65c:	00000000 	andeq	r0, r0, r0
    a660:	ebffd9af 	bl	d24 <BASIC$$Code+0xd24>
    a664:	72724500 	rsbsvc	r4, r2, #0, 10
    a668:	6320726f 			; <UNDEFINED> instruction: 0x6320726f
    a66c:	72746e6f 	rsbsvc	r6, r4, #1776	; 0x6f0
    a670:	73206c6f 			; <UNDEFINED> instruction: 0x73206c6f
    a674:	75746174 	ldrbvc	r6, [r4, #-372]!	; 0xfffffe8c
    a678:	6f6e2073 	svcvs	0x006e2073
    a67c:	6f662074 	svcvs	0x00662074
    a680:	20646e75 	rsbcs	r6, r4, r5, ror lr
    a684:	73206e6f 			; <UNDEFINED> instruction: 0x73206e6f
    a688:	6b636174 	blvs	18e2c60 <BASIC$$Code+0x18e2c60>
    a68c:	726f6620 	rsbvc	r6, pc, #32, 12	; 0x2000000
    a690:	53455220 	movtpl	r5, #21024	; 0x5220
    a694:	45524f54 	ldrbmi	r4, [r2, #-3924]	; 0xfffff0ac
    a698:	52524520 	subspl	r4, r2, #32, 10	; 0x8000000
    a69c:	0000524f 	andeq	r5, r0, pc, asr #4
    a6a0:	ebffd99f 	bl	d24 <BASIC$$Code+0xd24>
    a6a4:	73694d00 	cmnvc	r9, #0, 26
    a6a8:	676e6973 			; <UNDEFINED> instruction: 0x676e6973
    a6ac:	636e6920 	cmnvs	lr, #32, 18	; 0x80000
    a6b0:	2065726f 	rsbcs	r7, r5, pc, ror #4
    a6b4:	656d616e 	strbvs	r6, [sp, #-366]!	; 0xfffffe92
    a6b8:	00000000 	andeq	r0, r0, r0
    a6bc:	ebffd998 	bl	d24 <BASIC$$Code+0xd24>
    a6c0:	53494c00 	movtpl	r4, #39936	; 0x9c00
    a6c4:	57542f54 			; <UNDEFINED> instruction: 0x57542f54
    a6c8:	66204e49 	strtvs	r4, [r0], -r9, asr #28
    a6cc:	646e756f 	strbtvs	r7, [lr], #-1391	; 0xfffffa91
    a6d0:	6e696c20 	cdpvs	12, 6, cr6, cr9, cr0, {1}
    a6d4:	756e2065 	strbvc	r2, [lr, #-101]!	; 0xffffff9b
    a6d8:	7265626d 	rsbvc	r6, r5, #-805306362	; 0xd0000006
    a6dc:	66657220 	strbtvs	r7, [r5], -r0, lsr #4
    a6e0:	6e657265 	cdpvs	2, 6, cr7, cr5, cr5, {3}
    a6e4:	00006563 	andeq	r6, r0, r3, ror #10
    a6e8:	ebffd98d 	bl	d24 <BASIC$$Code+0xd24>
    a6ec:	4c454800 	mcrrmi	8, 0, r4, r5, cr0
    a6f0:	61682050 	qdsubvs	r2, r0, r8
    a6f4:	6f6e2073 	svcvs	0x006e2073
    a6f8:	666e6920 	strbtvs	r6, [lr], -r0, lsr #18
    a6fc:	616d726f 	cmnvs	sp, pc, ror #4
    a700:	6e6f6974 			; <UNDEFINED> instruction: 0x6e6f6974
    a704:	206e6f20 	rsbcs	r6, lr, r0, lsr #30
    a708:	73696874 	cmnvc	r9, #116, 16	; 0x740000
    a70c:	79656b20 	stmdbvc	r5!, {r5, r8, r9, fp, sp, lr}^
    a710:	64726f77 	ldrbtvs	r6, [r2], #-3959	; 0xfffff089
    a714:	00000000 	andeq	r0, r0, r0
    a718:	ebffd981 	bl	d24 <BASIC$$Code+0xd24>
    a71c:	206f4e01 	rsbcs	r4, pc, r1, lsl #28
    a720:	68637573 	stmdavs	r3!, {r0, r1, r4, r5, r6, r8, sl, ip, sp, lr}^
    a724:	656e6d20 	strbvs	r6, [lr, #-3360]!	; 0xfffff2e0
    a728:	696e6f6d 	stmdbvs	lr!, {r0, r2, r3, r5, r6, r8, r9, sl, fp, sp, lr}^
    a72c:	00000063 	andeq	r0, r0, r3, rrx
    a730:	ebffd97b 	bl	d24 <BASIC$$Code+0xd24>
    a734:	206f4e01 	rsbcs	r4, pc, r1, lsl #28
    a738:	68637573 	stmdavs	r3!, {r0, r1, r4, r5, r6, r8, sl, ip, sp, lr}^
    a73c:	66757320 	ldrbtvs	r7, [r5], -r0, lsr #6
    a740:	20786966 	rsbscs	r6, r8, r6, ror #18
    a744:	45206e6f 	strmi	r6, [r0, #-3695]!	; 0xfffff191
    a748:	00005551 	andeq	r5, r0, r1, asr r5
    a74c:	ebffd974 	bl	d24 <BASIC$$Code+0xd24>
    a750:	64614202 	strbtvs	r4, [r1], #-514	; 0xfffffdfe
    a754:	6d6d6920 			; <UNDEFINED> instruction: 0x6d6d6920
    a758:	6964656d 	stmdbvs	r4!, {r0, r2, r3, r5, r6, r8, sl, sp, lr}^
    a75c:	20657461 	rsbcs	r7, r5, r1, ror #8
    a760:	736e6f63 	cmnvc	lr, #396	; 0x18c
    a764:	746e6174 	strbtvc	r6, [lr], #-372	; 0xfffffe8c
    a768:	00000000 	andeq	r0, r0, r0
    a76c:	ebffd96c 	bl	d24 <BASIC$$Code+0xd24>
    a770:	64614202 	strbtvs	r4, [r1], #-514	; 0xfffffdfe
    a774:	64646120 	strbtvs	r6, [r4], #-288	; 0xfffffee0
    a778:	73736572 	cmnvc	r3, #478150656	; 0x1c800000
    a77c:	66666f20 	strbtvs	r6, [r6], -r0, lsr #30
    a780:	00746573 	rsbseq	r6, r4, r3, ror r5
    a784:	ebffd966 	bl	d24 <BASIC$$Code+0xd24>
    a788:	64614202 	strbtvs	r4, [r1], #-514	; 0xfffffdfe
    a78c:	69687320 	stmdbvs	r8!, {r5, r8, r9, ip, sp, lr}^
    a790:	00007466 	andeq	r7, r0, r6, ror #8
    a794:	ebffd962 	bl	d24 <BASIC$$Code+0xd24>
    a798:	64614203 	strbtvs	r4, [r1], #-515	; 0xfffffdfd
    a79c:	67657220 	strbvs	r7, [r5, -r0, lsr #4]!
    a7a0:	65747369 	ldrbvs	r7, [r4, #-873]!	; 0xfffffc97
    a7a4:	00000072 	andeq	r0, r0, r2, ror r0
    a7a8:	ebffd95d 	bl	d24 <BASIC$$Code+0xd24>
    a7ac:	70754403 	rsbsvc	r4, r5, r3, lsl #8
    a7b0:	6163696c 	cmnvs	r3, ip, ror #18
    a7b4:	72206574 	eorvc	r6, r0, #116, 10	; 0x1d000000
    a7b8:	73696765 	cmnvc	r9, #26476544	; 0x1940000
    a7bc:	20726574 	rsbscs	r6, r2, r4, ror r5
    a7c0:	6d206e69 	stcvs	14, cr6, [r0, #-420]!	; 0xfffffe5c
    a7c4:	69746c75 	ldmdbvs	r4!, {r0, r2, r4, r5, r6, sl, fp, sp, lr}^
    a7c8:	00796c70 	rsbseq	r6, r9, r0, ror ip
    a7cc:	ebffd954 	bl	d24 <BASIC$$Code+0xd24>
    a7d0:	73694d04 	cmnvc	r9, #4, 26	; 0x100
    a7d4:	676e6973 			; <UNDEFINED> instruction: 0x676e6973
    a7d8:	00003d20 	andeq	r3, r0, r0, lsr #26
    a7dc:	ebffd950 	bl	d24 <BASIC$$Code+0xd24>
    a7e0:	73694d04 	cmnvc	r9, #4, 26	; 0x100
    a7e4:	676e6973 			; <UNDEFINED> instruction: 0x676e6973
    a7e8:	69203d20 	stmdbvs	r0!, {r5, r8, sl, fp, ip, sp}
    a7ec:	4f46206e 	svcmi	0x0046206e
    a7f0:	74732052 	ldrbtvc	r2, [r3], #-82	; 0xffffffae
    a7f4:	6d657461 	cfstrdvs	mvd7, [r5, #-388]!	; 0xfffffe7c
    a7f8:	00746e65 	rsbseq	r6, r4, r5, ror #28
    a7fc:	ebffd948 	bl	d24 <BASIC$$Code+0xd24>
    a800:	73694d04 	cmnvc	r9, #4, 26	; 0x100
    a804:	656b6174 	strbvs	r6, [fp, #-372]!	; 0xfffffe8c
    a808:	00000000 	andeq	r0, r0, r0
    a80c:	ebffd944 	bl	d24 <BASIC$$Code+0xd24>
    a810:	73694d05 	cmnvc	r9, #320	; 0x140
    a814:	676e6973 			; <UNDEFINED> instruction: 0x676e6973
    a818:	00002c20 	andeq	r2, r0, r0, lsr #24
    a81c:	ebffd940 	bl	d24 <BASIC$$Code+0xd24>
    a820:	70795406 	rsbsvc	r5, r9, r6, lsl #8
    a824:	696d2065 	stmdbvs	sp!, {r0, r2, r5, r6, sp}^
    a828:	74616d73 	strbtvc	r6, [r1], #-3443	; 0xfffff28d
    a82c:	203a6863 	eorscs	r6, sl, r3, ror #16
    a830:	626d756e 	rsbvs	r7, sp, #461373440	; 0x1b800000
    a834:	6e207265 	cdpvs	2, 2, cr7, cr0, cr5, {3}
    a838:	65646565 	strbvs	r6, [r4, #-1381]!	; 0xfffffa9b
    a83c:	00000064 	andeq	r0, r0, r4, rrx
    a840:	ebffd937 	bl	d24 <BASIC$$Code+0xd24>
    a844:	70795406 	rsbsvc	r5, r9, r6, lsl #8
    a848:	696d2065 	stmdbvs	sp!, {r0, r2, r5, r6, sp}^
    a84c:	74616d73 	strbtvc	r6, [r1], #-3443	; 0xfffff28d
    a850:	203a6863 	eorscs	r6, sl, r3, ror #16
    a854:	656d756e 	strbvs	r7, [sp, #-1390]!	; 0xfffffa92
    a858:	20636972 	rsbcs	r6, r3, r2, ror r9
    a85c:	69726176 	ldmdbvs	r2!, {r1, r2, r4, r5, r6, r8, sp, lr}^
    a860:	656c6261 	strbvs	r6, [ip, #-609]!	; 0xfffffd9f
    a864:	65656e20 	strbvs	r6, [r5, #-3616]!	; 0xfffff1e0
    a868:	00646564 	rsbeq	r6, r4, r4, ror #10
    a86c:	ebffd92c 	bl	d24 <BASIC$$Code+0xd24>
    a870:	70795406 	rsbsvc	r5, r9, r6, lsl #8
    a874:	696d2065 	stmdbvs	sp!, {r0, r2, r5, r6, sp}^
    a878:	74616d73 	strbtvc	r6, [r1], #-3443	; 0xfffff28d
    a87c:	203a6863 	eorscs	r6, sl, r3, ror #16
    a880:	69727473 	ldmdbvs	r2!, {r0, r1, r4, r5, r6, sl, ip, sp, lr}^
    a884:	6e20676e 	cdpvs	7, 2, cr6, cr0, cr14, {3}
    a888:	65646565 	strbvs	r6, [r4, #-1381]!	; 0xfffffa9b
    a88c:	00000064 	andeq	r0, r0, r4, rrx
    a890:	ebffd923 	bl	d24 <BASIC$$Code+0xd24>
    a894:	70795406 	rsbsvc	r5, r9, r6, lsl #8
    a898:	696d2065 	stmdbvs	sp!, {r0, r2, r5, r6, sp}^
    a89c:	74616d73 	strbtvc	r6, [r1], #-3443	; 0xfffff28d
    a8a0:	203a6863 	eorscs	r6, sl, r3, ror #16
    a8a4:	69727473 	ldmdbvs	r2!, {r0, r1, r4, r5, r6, sl, ip, sp, lr}^
    a8a8:	7620676e 	strtvc	r6, [r0], -lr, ror #14
    a8ac:	61697261 	cmnvs	r9, r1, ror #4
    a8b0:	20656c62 	rsbcs	r6, r5, r2, ror #24
    a8b4:	6465656e 	strbtvs	r6, [r5], #-1390	; 0xfffffa92
    a8b8:	00006465 	andeq	r6, r0, r5, ror #8
    a8bc:	ebffd918 	bl	d24 <BASIC$$Code+0xd24>
    a8c0:	70795406 	rsbsvc	r5, r9, r6, lsl #8
    a8c4:	696d2065 	stmdbvs	sp!, {r0, r2, r5, r6, sp}^
    a8c8:	74616d73 	strbtvc	r6, [r1], #-3443	; 0xfffff28d
    a8cc:	203a6863 	eorscs	r6, sl, r3, ror #16
    a8d0:	61727261 	cmnvs	r2, r1, ror #4
    a8d4:	656e2079 	strbvs	r2, [lr, #-121]!	; 0xffffff87
    a8d8:	64656465 	strbtvs	r6, [r5], #-1125	; 0xfffffb9b
    a8dc:	00000000 	andeq	r0, r0, r0
    a8e0:	ebffd90f 	bl	d24 <BASIC$$Code+0xd24>
    a8e4:	70795406 	rsbsvc	r5, r9, r6, lsl #8
    a8e8:	696d2065 	stmdbvs	sp!, {r0, r2, r5, r6, sp}^
    a8ec:	74616d73 	strbtvc	r6, [r1], #-3443	; 0xfffff28d
    a8f0:	62206863 	eorvs	r6, r0, #6488064	; 0x630000
    a8f4:	65777465 	ldrbvs	r7, [r7, #-1125]!	; 0xfffffb9b
    a8f8:	61206e65 			; <UNDEFINED> instruction: 0x61206e65
    a8fc:	79617272 	stmdbvc	r1!, {r1, r4, r5, r6, r9, ip, sp, lr}^
    a900:	00000073 	andeq	r0, r0, r3, ror r0
    a904:	ebffd906 	bl	d24 <BASIC$$Code+0xd24>
    a908:	6e614306 	cdpvs	3, 6, cr4, cr1, cr6, {0}
    a90c:	61207427 			; <UNDEFINED> instruction: 0x61207427
    a910:	67697373 			; <UNDEFINED> instruction: 0x67697373
    a914:	6f74206e 	svcvs	0x0074206e
    a918:	72726120 	rsbsvc	r6, r2, #32, 2
    a91c:	6f207961 	svcvs	0x00207961
    a920:	68742066 	ldmdavs	r4!, {r1, r2, r5, r6, sp}^
    a924:	73207369 			; <UNDEFINED> instruction: 0x73207369
    a928:	00657a69 	rsbeq	r7, r5, r9, ror #20
    a92c:	ebffd8fc 	bl	d24 <BASIC$$Code+0xd24>
    a930:	72724106 	rsbsvc	r4, r2, #-2147483647	; 0x80000001
    a934:	74207961 	strtvc	r7, [r0], #-2401	; 0xfffff69f
    a938:	20657079 	rsbcs	r7, r5, r9, ror r0
    a93c:	6d73696d 			; <UNDEFINED> instruction: 0x6d73696d
    a940:	68637461 	stmdavs	r3!, {r0, r5, r6, sl, ip, sp, lr}^
    a944:	20736120 	rsbscs	r6, r3, r0, lsr #2
    a948:	61726170 	cmnvs	r2, r0, ror r1
    a94c:	6574656d 	ldrbvs	r6, [r4, #-1389]!	; 0xfffffa93
    a950:	00000072 	andeq	r0, r0, r2, ror r0
    a954:	ebffd8f2 	bl	d24 <BASIC$$Code+0xd24>
    a958:	6e614306 	cdpvs	3, 6, cr4, cr1, cr6, {0}
    a95c:	53207427 			; <UNDEFINED> instruction: 0x53207427
    a960:	20504157 	subscs	r4, r0, r7, asr r1
    a964:	61727261 	cmnvs	r2, r1, ror #4
    a968:	6f207379 	svcvs	0x00207379
    a96c:	69642066 	stmdbvs	r4!, {r1, r2, r5, r6, sp}^
    a970:	6e656666 	cdpvs	6, 6, cr6, cr5, cr6, {3}
    a974:	79742074 	ldmdbvc	r4!, {r2, r4, r5, r6, sp}^
    a978:	00736570 	rsbseq	r6, r3, r0, ror r5
    a97c:	ebffd8e8 	bl	d24 <BASIC$$Code+0xd24>
    a980:	746f4e07 	strbtvc	r4, [pc], #-3591	; a988 <BASIC$$Code+0xa988>
    a984:	206e6920 	rsbcs	r6, lr, r0, lsr #18
    a988:	75662061 	strbvc	r2, [r6, #-97]!	; 0xffffff9f
    a98c:	6974636e 	ldmdbvs	r4!, {r1, r2, r3, r5, r6, r8, r9, sp, lr}^
    a990:	00006e6f 	andeq	r6, r0, pc, ror #28
    a994:	ebffd8e2 	bl	d24 <BASIC$$Code+0xd24>
    a998:	6f6f5408 	svcvs	0x006f5408
    a99c:	776f6c20 	strbvc	r6, [pc, -r0, lsr #24]!
    a9a0:	76206120 	strtvc	r6, [r0], -r0, lsr #2
    a9a4:	65756c61 	ldrbvs	r6, [r5, #-3169]!	; 0xfffff39f
    a9a8:	726f6620 	rsbvc	r6, pc, #32, 12	; 0x2000000
    a9ac:	6e3c2420 	cfabsdvs	mvd2, mvd12
    a9b0:	65626d75 	strbvs	r6, [r2, #-3445]!	; 0xfffff28b
    a9b4:	00003e72 	andeq	r3, r0, r2, ror lr
    a9b8:	ebffd8d9 	bl	d24 <BASIC$$Code+0xd24>
    a9bc:	73694d09 	cmnvc	r9, #576	; 0x240
    a9c0:	676e6973 			; <UNDEFINED> instruction: 0x676e6973
    a9c4:	00002220 	andeq	r2, r0, r0, lsr #4
    a9c8:	ebffd8d5 	bl	d24 <BASIC$$Code+0xd24>
    a9cc:	4d49440a 	cfstrdmi	mvd4, [r9, #-40]	; 0xffffffd8
    a9d0:	66202928 	strtvs	r2, [r0], -r8, lsr #18
    a9d4:	74636e75 	strbtvc	r6, [r3], #-3701	; 0xfffff18b
    a9d8:	206e6f69 	rsbcs	r6, lr, r9, ror #30
    a9dc:	6465656e 	strbtvs	r6, [r5], #-1390	; 0xfffffa92
    a9e0:	6e612073 	mcrvs	0, 3, r2, cr1, cr3, {3}
    a9e4:	72726120 	rsbsvc	r6, r2, #32, 2
    a9e8:	00007961 	andeq	r7, r0, r1, ror #18
    a9ec:	ebffd8cc 	bl	d24 <BASIC$$Code+0xd24>
    a9f0:	206f4e0a 	rsbcs	r4, pc, sl, lsl #28
    a9f4:	6d6f6f72 	stclvs	15, cr6, [pc, #-456]!	; a834 <BASIC$$Code+0xa834>
    a9f8:	726f6620 	rsbvc	r6, pc, #32, 12	; 0x2000000
    a9fc:	69687420 	stmdbvs	r8!, {r5, sl, ip, sp, lr}^
    aa00:	69642073 	stmdbvs	r4!, {r0, r1, r4, r5, r6, sp}^
    aa04:	736e656d 	cmnvc	lr, #457179136	; 0x1b400000
    aa08:	006e6f69 	rsbeq	r6, lr, r9, ror #30
    aa0c:	ebffd8c4 	bl	d24 <BASIC$$Code+0xd24>
    aa10:	206f4e0a 	rsbcs	r4, pc, sl, lsl #28
    aa14:	6d6f6f72 	stclvs	15, cr6, [pc, #-456]!	; a854 <BASIC$$Code+0xa854>
    aa18:	206f7420 	rsbcs	r7, pc, r0, lsr #8
    aa1c:	6d206f64 	stcvs	15, cr6, [r0, #-400]!	; 0xfffffe70
    aa20:	69727461 	ldmdbvs	r2!, {r0, r5, r6, sl, ip, sp, lr}^
    aa24:	756d2078 	strbvc	r2, [sp, #-120]!	; 0xffffff88
    aa28:	7069746c 	rsbvc	r7, r9, ip, ror #8
    aa2c:	7720796c 	strvc	r7, [r0, -ip, ror #18]!
    aa30:	20687469 	rsbcs	r7, r8, r9, ror #8
    aa34:	72756f73 	rsbsvc	r6, r5, #460	; 0x1cc
    aa38:	73286563 			; <UNDEFINED> instruction: 0x73286563
    aa3c:	68742029 	ldmdavs	r4!, {r0, r3, r5, sp}^
    aa40:	61732065 	cmnvs	r3, r5, rrx
    aa44:	6120656d 			; <UNDEFINED> instruction: 0x6120656d
    aa48:	65642073 	strbvs	r2, [r4, #-115]!	; 0xffffff8d
    aa4c:	6e697473 	mcrvs	4, 3, r7, cr9, cr3, {3}
    aa50:	6f697461 	svcvs	0x00697461
    aa54:	0000006e 	andeq	r0, r0, lr, rrx
    aa58:	ebffd8b1 	bl	d24 <BASIC$$Code+0xd24>
    aa5c:	706d490a 	rsbvc	r4, sp, sl, lsl #18
    aa60:	6973736f 	ldmdbvs	r3!, {r0, r1, r2, r3, r5, r6, r8, r9, ip, sp, lr}^
    aa64:	20656c62 	rsbcs	r6, r5, r2, ror #24
    aa68:	656d6964 	strbvs	r6, [sp, #-2404]!	; 0xfffff69c
    aa6c:	6f69736e 	svcvs	0x0069736e
    aa70:	0000006e 	andeq	r0, r0, lr, rrx
    aa74:	ebffd8aa 	bl	d24 <BASIC$$Code+0xd24>
    aa78:	206f4e0a 	rsbcs	r4, pc, sl, lsl #28
    aa7c:	20646e65 	rsbcs	r6, r4, r5, ror #28
    aa80:	6420666f 	strtvs	r6, [r0], #-1647	; 0xfffff991
    aa84:	6e656d69 	cdpvs	13, 6, cr6, cr5, cr9, {3}
    aa88:	6e6f6973 			; <UNDEFINED> instruction: 0x6e6f6973
    aa8c:	73696c20 	cmnvc	r9, #32, 24	; 0x2000
    aa90:	00292074 	eoreq	r2, r9, r4, ror r0
    aa94:	ebffd8a2 	bl	d24 <BASIC$$Code+0xd24>
    aa98:	6461420a 	strbtvs	r4, [r1], #-522	; 0xfffffdf6
    aa9c:	4d494420 	cfstrdmi	mvd4, [r9, #-128]	; 0xffffff80
    aaa0:	61747320 	cmnvs	r4, r0, lsr #6
    aaa4:	656d6574 	strbvs	r6, [sp, #-1396]!	; 0xfffffa8c
    aaa8:	0000746e 	andeq	r7, r0, lr, ror #8
    aaac:	ebffd89c 	bl	d24 <BASIC$$Code+0xd24>
    aab0:	6e61430a 	cdpvs	3, 6, cr4, cr1, cr10, {0}
    aab4:	44207427 	strtmi	r7, [r0], #-1063	; 0xfffffbd9
    aab8:	6e204d49 	cdpvs	13, 2, cr4, cr0, cr9, {2}
    aabc:	74616765 	strbtvc	r6, [r1], #-1893	; 0xfffff89b
    aac0:	20657669 	rsbcs	r7, r5, r9, ror #12
    aac4:	6f6d6d61 	svcvs	0x006d6d61
    aac8:	00746e75 	rsbseq	r6, r4, r5, ror lr
    aacc:	ebffd894 	bl	d24 <BASIC$$Code+0xd24>
    aad0:	206f4e0a 	rsbcs	r4, pc, sl, lsl #28
    aad4:	6d6f6f72 	stclvs	15, cr6, [pc, #-456]!	; a914 <BASIC$$Code+0xa914>
    aad8:	726f6620 	rsbvc	r6, pc, #32, 12	; 0x2000000
    aadc:	69687420 	stmdbvs	r8!, {r5, sl, ip, sp, lr}^
    aae0:	49442073 	stmdbmi	r4, {r0, r1, r4, r5, r6, sp}^
    aae4:	0000004d 	andeq	r0, r0, sp, asr #32
    aae8:	ebffd88d 	bl	d24 <BASIC$$Code+0xd24>
    aaec:	7272410a 	rsbsvc	r4, r2, #-2147483646	; 0x80000002
    aaf0:	20737961 	rsbscs	r7, r3, r1, ror #18
    aaf4:	6e6e6163 	powvsez	f6, f6, f3
    aaf8:	6220746f 	eorvs	r7, r0, #1862270976	; 0x6f000000
    aafc:	65722065 	ldrbvs	r2, [r2, #-101]!	; 0xffffff9b
    ab00:	656d6964 	strbvs	r6, [sp, #-2404]!	; 0xfffff69c
    ab04:	6f69736e 	svcvs	0x0069736e
    ab08:	0064656e 	rsbeq	r6, r4, lr, ror #10
    ab0c:	ebffd884 	bl	d24 <BASIC$$Code+0xd24>
    ab10:	6574490c 	ldrbvs	r4, [r4, #-2316]!	; 0xfffff6f4
    ab14:	6320736d 			; <UNDEFINED> instruction: 0x6320736d
    ab18:	6f206e61 	svcvs	0x00206e61
    ab1c:	20796c6e 	rsbscs	r6, r9, lr, ror #24
    ab20:	6d206562 	cfstr32vs	mvfx6, [r0, #-392]!	; 0xfffffe78
    ab24:	20656461 	rsbcs	r6, r5, r1, ror #8
    ab28:	61636f6c 	cmnvs	r3, ip, ror #30
    ab2c:	6e69206c 	cdpvs	0, 6, cr2, cr9, cr12, {3}
    ab30:	66206120 	strtvs	r6, [r0], -r0, lsr #2
    ab34:	74636e75 	strbtvc	r6, [r3], #-3701	; 0xfffff18b
    ab38:	206e6f69 	rsbcs	r6, lr, r9, ror #30
    ab3c:	7020726f 	eorvc	r7, r0, pc, ror #4
    ab40:	65636f72 	strbvs	r6, [r3, #-3954]!	; 0xfffff08e
    ab44:	65727564 	ldrbvs	r7, [r2, #-1380]!	; 0xfffffa9c
    ab48:	00000000 	andeq	r0, r0, r0
    ab4c:	ebffd874 	bl	d24 <BASIC$$Code+0xd24>
    ab50:	746f4e0d 	strbtvc	r4, [pc], #-3597	; ab58 <BASIC$$Code+0xab58>
    ab54:	206e6920 	rsbcs	r6, lr, r0, lsr #18
    ab58:	72702061 	rsbsvc	r2, r0, #97	; 0x61
    ab5c:	6465636f 	strbtvs	r6, [r5], #-879	; 0xfffffc91
    ab60:	00657275 	rsbeq	r7, r5, r5, ror r2
    ab64:	ebffd86e 	bl	d24 <BASIC$$Code+0xd24>
    ab68:	6665520e 	strbtvs	r5, [r5], -lr, lsl #4
    ab6c:	6e657265 	cdpvs	2, 6, cr7, cr5, cr5, {3}
    ab70:	61206563 			; <UNDEFINED> instruction: 0x61206563
    ab74:	79617272 	stmdbvc	r1!, {r1, r4, r5, r6, r9, ip, sp, lr}^
    ab78:	636e6920 	cmnvs	lr, #32, 18	; 0x80000
    ab7c:	6572726f 	ldrbvs	r7, [r2, #-623]!	; 0xfffffd91
    ab80:	00007463 	andeq	r7, r0, r3, ror #8
    ab84:	ebffd866 	bl	d24 <BASIC$$Code+0xd24>
    ab88:	6b6e550e 	blvs	1b9ffc8 <BASIC$$Code+0x1b9ffc8>
    ab8c:	6e776f6e 	cdpvs	15, 7, cr6, cr7, cr14, {3}
    ab90:	72726120 	rsbsvc	r6, r2, #32, 2
    ab94:	00007961 	andeq	r7, r0, r1, ror #18
    ab98:	ebffd861 	bl	d24 <BASIC$$Code+0xd24>
    ab9c:	6b6e550e 	blvs	1b9ffdc <BASIC$$Code+0x1b9ffdc>
    aba0:	6e776f6e 	cdpvs	15, 7, cr6, cr7, cr14, {3}
    aba4:	72726120 	rsbsvc	r6, r2, #32, 2
    aba8:	69207961 	stmdbvs	r0!, {r0, r5, r6, r8, fp, ip, sp, lr}
    abac:	4944206e 	stmdbmi	r4, {r1, r2, r3, r5, r6, sp}^
    abb0:	2029284d 	eorcs	r2, r9, sp, asr #16
    abb4:	636e7566 	cmnvs	lr, #427819008	; 0x19800000
    abb8:	6e6f6974 			; <UNDEFINED> instruction: 0x6e6f6974
    abbc:	00000000 	andeq	r0, r0, r0
    abc0:	ebffd857 	bl	d24 <BASIC$$Code+0xd24>
    abc4:	646e550e 	strbtvs	r5, [lr], #-1294	; 0xfffffaf2
    abc8:	6e656d69 	cdpvs	13, 6, cr6, cr5, cr9, {3}
    abcc:	6e6f6973 			; <UNDEFINED> instruction: 0x6e6f6973
    abd0:	61206465 			; <UNDEFINED> instruction: 0x61206465
    abd4:	79617272 	stmdbvc	r1!, {r1, r4, r5, r6, r9, ip, sp, lr}^
    abd8:	00000000 	andeq	r0, r0, r0
    abdc:	ebffd850 	bl	d24 <BASIC$$Code+0xd24>
    abe0:	6275530f 	rsbsvs	r5, r5, #1006632960	; 0x3c000000
    abe4:	69726373 	ldmdbvs	r2!, {r0, r1, r4, r5, r6, r8, r9, sp, lr}^
    abe8:	6f207470 	svcvs	0x00207470
    abec:	6f207475 	svcvs	0x00207475
    abf0:	61722066 	cmnvs	r2, r6, rrx
    abf4:	0065676e 	rsbeq	r6, r5, lr, ror #14
    abf8:	ebffd849 	bl	d24 <BASIC$$Code+0xd24>
    abfc:	636e490f 	cmnvs	lr, #245760	; 0x3c000
    ac00:	6572726f 	ldrbvs	r7, [r2, #-623]!	; 0xfffffd91
    ac04:	6e207463 	cdpvs	4, 2, cr7, cr0, cr3, {3}
    ac08:	65626d75 	strbvs	r6, [r2, #-3445]!	; 0xfffff28b
    ac0c:	666f2072 			; <UNDEFINED> instruction: 0x666f2072
    ac10:	62757320 	rsbsvs	r7, r5, #32, 6	; 0x80000000
    ac14:	69726373 	ldmdbvs	r2!, {r0, r1, r4, r5, r6, r8, r9, sp, lr}^
    ac18:	00737470 	rsbseq	r7, r3, r0, ror r4
    ac1c:	ebffd840 	bl	d24 <BASIC$$Code+0xd24>
    ac20:	6e795310 	mrcvs	3, 3, r5, cr9, cr0, {0}
    ac24:	20786174 	rsbscs	r6, r8, r4, ror r1
    ac28:	6f727265 	svcvs	0x00727265
    ac2c:	00000072 	andeq	r0, r0, r2, ror r0
    ac30:	ebffd83b 	bl	d24 <BASIC$$Code+0xd24>
    ac34:	63734511 	cmnvs	r3, #71303168	; 0x4400000
    ac38:	00657061 	rsbeq	r7, r5, r1, rrx
    ac3c:	ebffd838 	bl	d24 <BASIC$$Code+0xd24>
    ac40:	76694412 			; <UNDEFINED> instruction: 0x76694412
    ac44:	6f697369 	svcvs	0x00697369
    ac48:	7962206e 	stmdbvc	r2!, {r1, r2, r3, r5, r6, sp}^
    ac4c:	72657a20 	rsbvc	r7, r5, #32, 20	; 0x20000
    ac50:	0000006f 	andeq	r0, r0, pc, rrx
    ac54:	ebffd832 	bl	d24 <BASIC$$Code+0xd24>
    ac58:	72745313 	rsbsvc	r5, r4, #1275068416	; 0x4c000000
    ac5c:	20676e69 	rsbcs	r6, r7, r9, ror #28
    ac60:	206f6f74 	rsbcs	r6, pc, r4, ror pc	; <UNPREDICTABLE>
    ac64:	676e6f6c 	strbvs	r6, [lr, -ip, ror #30]!
    ac68:	00000000 	andeq	r0, r0, r0
    ac6c:	ebffd82c 	bl	d24 <BASIC$$Code+0xd24>
    ac70:	6d754e14 	ldclvs	14, cr4, [r5, #-80]!	; 0xffffffb0
    ac74:	20726562 	rsbscs	r6, r2, r2, ror #10
    ac78:	206f6f74 	rsbcs	r6, pc, r4, ror pc	; <UNPREDICTABLE>
    ac7c:	00676962 	rsbeq	r6, r7, r2, ror #18
    ac80:	ebffd827 	bl	d24 <BASIC$$Code+0xd24>
    ac84:	6d754e14 	ldclvs	14, cr4, [r5, #-80]!	; 0xffffffb0
    ac88:	20726562 	rsbscs	r6, r2, r2, ror #10
    ac8c:	206f6f74 	rsbcs	r6, pc, r4, ror pc	; <UNPREDICTABLE>
    ac90:	20676962 	rsbcs	r6, r7, r2, ror #18
    ac94:	20726f66 	rsbscs	r6, r2, r6, ror #30
    ac98:	20637261 	rsbcs	r7, r3, r1, ror #4
    ac9c:	656e6953 	strbvs	r6, [lr, #-2387]!	; 0xfffff6ad
    aca0:	20726f20 	rsbscs	r6, r2, r0, lsr #30
    aca4:	20637261 	rsbcs	r7, r3, r1, ror #4
    aca8:	69736f43 	ldmdbvs	r3!, {r0, r1, r6, r8, r9, sl, fp, sp, lr}^
    acac:	0000656e 	andeq	r6, r0, lr, ror #10
    acb0:	ebffd81b 	bl	d24 <BASIC$$Code+0xd24>
    acb4:	67654e15 			; <UNDEFINED> instruction: 0x67654e15
    acb8:	76697461 	strbtvc	r7, [r9], -r1, ror #8
    acbc:	6f722065 	svcvs	0x00722065
    acc0:	0000746f 	andeq	r7, r0, pc, ror #8
    acc4:	ebffd816 	bl	d24 <BASIC$$Code+0xd24>
    acc8:	676f4c16 			; <UNDEFINED> instruction: 0x676f4c16
    accc:	74697261 	strbtvc	r7, [r9], #-609	; 0xfffffd9f
    acd0:	72206d68 	eorvc	r6, r0, #104, 26	; 0x1a00
    acd4:	65676e61 	strbvs	r6, [r7, #-3681]!	; 0xfffff19f
    acd8:	00000000 	andeq	r0, r0, r0
    acdc:	ebffd810 	bl	d24 <BASIC$$Code+0xd24>
    ace0:	63634117 	cmnvs	r3, #-1073741819	; 0xc0000005
    ace4:	63617275 	cmnvs	r1, #1342177287	; 0x50000007
    ace8:	6f6c2079 	svcvs	0x006c2079
    acec:	69207473 	stmdbvs	r0!, {r0, r1, r4, r5, r6, sl, ip, sp, lr}
    acf0:	6953206e 	ldmdbvs	r3, {r1, r2, r3, r5, r6, sp}^
    acf4:	432f656e 			; <UNDEFINED> instruction: 0x432f656e
    acf8:	6e69736f 	cdpvs	3, 6, cr7, cr9, cr15, {3}
    acfc:	61542f65 	cmpvs	r4, r5, ror #30
    ad00:	6e65676e 	cdpvs	7, 6, cr6, cr5, cr14, {3}
    ad04:	00000074 	andeq	r0, r0, r4, ror r0
    ad08:	ebffd805 	bl	d24 <BASIC$$Code+0xd24>
    ad0c:	70784518 	rsbsvc	r4, r8, r8, lsl r5
    ad10:	6e656e6f 	cdpvs	14, 6, cr6, cr5, cr15, {3}
    ad14:	61722074 	cmnvs	r2, r4, ror r0
    ad18:	0065676e 	rsbeq	r6, r5, lr, ror #14
    ad1c:	ebffd800 	bl	d24 <BASIC$$Code+0xd24>
    ad20:	6b6e551a 	blvs	1ba0190 <BASIC$$Code+0x1ba0190>
    ad24:	6e776f6e 	cdpvs	15, 7, cr6, cr7, cr14, {3}
    ad28:	20726f20 	rsbscs	r6, r2, r0, lsr #30
    ad2c:	7373696d 	cmnvc	r3, #1785856	; 0x1b4000
    ad30:	20676e69 	rsbcs	r6, r7, r9, ror #28
    ad34:	69726176 	ldmdbvs	r2!, {r1, r2, r4, r5, r6, r8, sp, lr}^
    ad38:	656c6261 	strbvs	r6, [ip, #-609]!	; 0xfffffd9f
    ad3c:	00000000 	andeq	r0, r0, r0
    ad40:	ebffd7f7 	bl	d24 <BASIC$$Code+0xd24>
    ad44:	6e61431a 	mcrvs	3, 3, r4, cr1, cr10, {0}
    ad48:	75207427 	strvc	r7, [r0, #-1063]!	; 0xfffffbd9
    ad4c:	61206573 			; <UNDEFINED> instruction: 0x61206573
    ad50:	79617272 	stmdbvc	r1!, {r1, r4, r5, r6, r9, ip, sp, lr}^
    ad54:	66657220 	strbtvs	r7, [r5], -r0, lsr #4
    ad58:	6e657265 	cdpvs	2, 6, cr7, cr5, cr5, {3}
    ad5c:	68206563 	stmdavs	r0!, {r0, r1, r5, r6, r8, sl, sp, lr}
    ad60:	00657265 	rsbeq	r7, r5, r5, ror #4
    ad64:	ebffd7ee 	bl	d24 <BASIC$$Code+0xd24>
    ad68:	73694d1b 	cmnvc	r9, #1728	; 0x6c0
    ad6c:	676e6973 			; <UNDEFINED> instruction: 0x676e6973
    ad70:	00002920 	andeq	r2, r0, r0, lsr #18
    ad74:	ebffd7ea 	bl	d24 <BASIC$$Code+0xd24>
    ad78:	73694d1b 	cmnvc	r9, #1728	; 0x6c0
    ad7c:	676e6973 			; <UNDEFINED> instruction: 0x676e6973
    ad80:	00005d20 	andeq	r5, r0, r0, lsr #26
    ad84:	ebffd7e6 	bl	d24 <BASIC$$Code+0xd24>
    ad88:	73694d1b 	cmnvc	r9, #1728	; 0x6c0
    ad8c:	676e6973 			; <UNDEFINED> instruction: 0x676e6973
    ad90:	00007b20 	andeq	r7, r0, r0, lsr #22
    ad94:	ebffd7e2 	bl	d24 <BASIC$$Code+0xd24>
    ad98:	73694d1b 	cmnvc	r9, #1728	; 0x6c0
    ad9c:	676e6973 			; <UNDEFINED> instruction: 0x676e6973
    ada0:	00007d20 	andeq	r7, r0, r0, lsr #26
    ada4:	ebffd7de 	bl	d24 <BASIC$$Code+0xd24>
    ada8:	6461421c 	strbtvs	r4, [r1], #-540	; 0xfffffde4
    adac:	78654820 	stmdavc	r5!, {r5, fp, lr}^
    adb0:	00000000 	andeq	r0, r0, r0
    adb4:	ebffd7da 	bl	d24 <BASIC$$Code+0xd24>
    adb8:	7865481c 	stmdavc	r5!, {r2, r3, r4, fp, lr}^
    adbc:	6d756e20 	ldclvs	14, cr6, [r5, #-128]!	; 0xffffff80
    adc0:	20726562 	rsbscs	r6, r2, r2, ror #10
    adc4:	206f6f74 	rsbcs	r6, pc, r4, ror pc	; <UNPREDICTABLE>
    adc8:	6772616c 	ldrbvs	r6, [r2, -ip, ror #2]!
    adcc:	00000065 	andeq	r0, r0, r5, rrx
    add0:	ebffd7d3 	bl	d24 <BASIC$$Code+0xd24>
    add4:	6461421c 	strbtvs	r4, [r1], #-540	; 0xfffffde4
    add8:	6e694220 	cdpvs	2, 6, cr4, cr9, cr0, {1}
    addc:	00797261 	rsbseq	r7, r9, r1, ror #4
    ade0:	ebffd7cf 	bl	d24 <BASIC$$Code+0xd24>
    ade4:	206f4e1d 	rsbcs	r4, pc, sp, lsl lr	; <UNPREDICTABLE>
    ade8:	68637573 	stmdavs	r3!, {r0, r1, r4, r5, r6, r8, sl, ip, sp, lr}^
    adec:	6e756620 	cdpvs	6, 7, cr6, cr5, cr0, {1}
    adf0:	6f697463 	svcvs	0x00697463
    adf4:	72702f6e 	rsbsvc	r2, r0, #440	; 0x1b8
    adf8:	6465636f 	strbtvs	r6, [r5], #-879	; 0xfffffc91
    adfc:	00657275 	rsbeq	r7, r5, r5, ror r2
    ae00:	ebffd7c7 	bl	d24 <BASIC$$Code+0xd24>
    ae04:	6461421e 	strbtvs	r4, [r1], #-542	; 0xfffffde2
    ae08:	6c616320 	stclvs	3, cr6, [r1], #-128	; 0xffffff80
    ae0c:	666f206c 	strbtvs	r2, [pc], -ip, rrx
    ae10:	6e756620 	cdpvs	6, 7, cr6, cr5, cr0, {1}
    ae14:	6f697463 	svcvs	0x00697463
    ae18:	72702f6e 	rsbsvc	r2, r0, #440	; 0x1b8
    ae1c:	6465636f 	strbtvs	r6, [r5], #-879	; 0xfffffc91
    ae20:	00657275 	rsbeq	r7, r5, r5, ror r2
    ae24:	ebffd7be 	bl	d24 <BASIC$$Code+0xd24>
    ae28:	6772411f 			; <UNDEFINED> instruction: 0x6772411f
    ae2c:	6e656d75 	mcrvs	13, 3, r6, cr5, cr5, {3}
    ae30:	6f207374 	svcvs	0x00207374
    ae34:	75662066 	strbvc	r2, [r6, #-102]!	; 0xffffff9a
    ae38:	6974636e 	ldmdbvs	r4!, {r1, r2, r3, r5, r6, r8, r9, sp, lr}^
    ae3c:	702f6e6f 	eorvc	r6, pc, pc, ror #28
    ae40:	65636f72 	strbvs	r6, [r3, #-3954]!	; 0xfffff08e
    ae44:	65727564 	ldrbvs	r7, [r2, #-1380]!	; 0xfffffa9c
    ae48:	636e6920 	cmnvs	lr, #32, 18	; 0x80000
    ae4c:	6572726f 	ldrbvs	r7, [r2, #-623]!	; 0xfffffd91
    ae50:	00007463 	andeq	r7, r0, r3, ror #8
    ae54:	ebffd7b2 	bl	d24 <BASIC$$Code+0xd24>
    ae58:	766e491f 			; <UNDEFINED> instruction: 0x766e491f
    ae5c:	64696c61 	strbtvs	r6, [r9], #-3169	; 0xfffff39f
    ae60:	54455220 	strbpl	r5, [r5], #-544	; 0xfffffde0
    ae64:	204e5255 	subcs	r5, lr, r5, asr r2
    ae68:	75746361 	ldrbvc	r6, [r4, #-865]!	; 0xfffffc9f
    ae6c:	70206c61 	eorvc	r6, r0, r1, ror #24
    ae70:	6d617261 	sfmvs	f7, 2, [r1, #-388]!	; 0xfffffe7c
    ae74:	72657465 	rsbvc	r7, r5, #1694498816	; 0x65000000
    ae78:	00000000 	andeq	r0, r0, r0
    ae7c:	ebffd7a8 	bl	d24 <BASIC$$Code+0xd24>
    ae80:	766e491f 			; <UNDEFINED> instruction: 0x766e491f
    ae84:	64696c61 	strbtvs	r6, [r9], #-3169	; 0xfffff39f
    ae88:	72726120 	rsbsvc	r6, r2, #32, 2
    ae8c:	61207961 			; <UNDEFINED> instruction: 0x61207961
    ae90:	61757463 	cmnvs	r5, r3, ror #8
    ae94:	6170206c 	cmnvs	r0, ip, rrx
    ae98:	656d6172 	strbvs	r6, [sp, #-370]!	; 0xfffffe8e
    ae9c:	00726574 	rsbseq	r6, r2, r4, ror r5
    aea0:	ebffd79f 	bl	d24 <BASIC$$Code+0xd24>
    aea4:	746f4e20 	strbtvc	r4, [pc], #-3616	; aeac <BASIC$$Code+0xaeac>
    aea8:	206e6920 	rsbcs	r6, lr, r0, lsr #18
    aeac:	4f462061 	svcmi	0x00462061
    aeb0:	6f6c2052 	svcvs	0x006c2052
    aeb4:	0000706f 	andeq	r7, r0, pc, rrx
    aeb8:	ebffd799 	bl	d24 <BASIC$$Code+0xd24>
    aebc:	6e614321 	cdpvs	3, 6, cr4, cr1, cr1, {1}
    aec0:	6d207427 	cfstrsvs	mvf7, [r0, #-156]!	; 0xffffff64
    aec4:	68637461 	stmdavs	r3!, {r0, r5, r6, sl, ip, sp, lr}^
    aec8:	524f4620 	subpl	r4, pc, #32, 12	; 0x2000000
    aecc:	00000000 	andeq	r0, r0, r0
    aed0:	ebffd793 	bl	d24 <BASIC$$Code+0xd24>
    aed4:	64614222 	strbtvs	r4, [r1], #-546	; 0xfffffdde
    aed8:	524f4620 	subpl	r4, pc, #32, 12	; 0x2000000
    aedc:	6e6f6320 	cdpvs	3, 6, cr6, cr15, cr0, {1}
    aee0:	6c6f7274 	sfmvs	f7, 2, [pc], #-464	; ad18 <BASIC$$Code+0xad18>
    aee4:	72617620 	rsbvc	r7, r1, #32, 12	; 0x2000000
    aee8:	6c626169 	stfvse	f6, [r2], #-420	; 0xfffffe5c
    aeec:	00000065 	andeq	r0, r0, r5, rrx
    aef0:	ebffd78b 	bl	d24 <BASIC$$Code+0xd24>
    aef4:	65685423 	strbvs	r5, [r8, #-1059]!	; 0xfffffbdd
    aef8:	65747320 	ldrbvs	r7, [r4, #-800]!	; 0xfffffce0
    aefc:	61632070 	smcvs	12800	; 0x3200
    af00:	746f6e6e 	strbtvc	r6, [pc], #-3694	; af08 <BASIC$$Code+0xaf08>
    af04:	20656220 	rsbcs	r6, r5, r0, lsr #4
    af08:	6f72657a 	svcvs	0x0072657a
    af0c:	00000000 	andeq	r0, r0, r0
    af10:	ebffd783 	bl	d24 <BASIC$$Code+0xd24>
    af14:	73694d24 	cmnvc	r9, #36, 26	; 0x900
    af18:	676e6973 			; <UNDEFINED> instruction: 0x676e6973
    af1c:	004f5420 	subeq	r5, pc, r0, lsr #8
    af20:	ebffd77f 	bl	d24 <BASIC$$Code+0xd24>
    af24:	746f4e26 	strbtvc	r4, [pc], #-3622	; af2c <BASIC$$Code+0xaf2c>
    af28:	206e6920 	rsbcs	r6, lr, r0, lsr #18
    af2c:	75732061 	ldrbvc	r2, [r3, #-97]!	; 0xffffff9f
    af30:	756f7262 	strbvc	r7, [pc, #-610]!	; acd6 <BASIC$$Code+0xacd6>
    af34:	656e6974 	strbvs	r6, [lr, #-2420]!	; 0xfffff68c
    af38:	00000000 	andeq	r0, r0, r0
    af3c:	ebffd778 	bl	d24 <BASIC$$Code+0xd24>
    af40:	204e4f27 	subcs	r4, lr, r7, lsr #30
    af44:	746e7973 	strbtvc	r7, [lr], #-2419	; 0xfffff68d
    af48:	00007861 	andeq	r7, r0, r1, ror #16
    af4c:	ebffd774 	bl	d24 <BASIC$$Code+0xd24>
    af50:	204e4f28 	subcs	r4, lr, r8, lsr #30
    af54:	676e6172 			; <UNDEFINED> instruction: 0x676e6172
    af58:	00000065 	andeq	r0, r0, r5, rrx
    af5c:	ebffd770 	bl	d24 <BASIC$$Code+0xd24>
    af60:	206f4e29 	rsbcs	r4, pc, r9, lsr #28
    af64:	68637573 	stmdavs	r3!, {r0, r1, r4, r5, r6, r8, sl, ip, sp, lr}^
    af68:	6e696c20 	cdpvs	12, 6, cr6, cr9, cr0, {1}
    af6c:	00000065 	andeq	r0, r0, r5, rrx
    af70:	ebffd76b 	bl	d24 <BASIC$$Code+0xd24>
    af74:	74754f2a 	ldrbtvc	r4, [r5], #-3882	; 0xfffff0d6
    af78:	20666f20 	rsbcs	r6, r6, r0, lsr #30
    af7c:	61746164 	cmnvs	r4, r4, ror #2
    af80:	00000000 	andeq	r0, r0, r0
    af84:	ebffd766 	bl	d24 <BASIC$$Code+0xd24>
    af88:	746f4e2b 	strbtvc	r4, [pc], #-3627	; af90 <BASIC$$Code+0xaf90>
    af8c:	206e6920 	rsbcs	r6, lr, r0, lsr #18
    af90:	45522061 	ldrbmi	r2, [r2, #-97]	; 0xffffff9f
    af94:	54414550 	strbpl	r4, [r1], #-1360	; 0xfffffab0
    af98:	6f6f6c20 	svcvs	0x006f6c20
    af9c:	00000070 	andeq	r0, r0, r0, ror r0
    afa0:	ebffd75f 	bl	d24 <BASIC$$Code+0xd24>
    afa4:	73694d2d 	cmnvc	r9, #2880	; 0xb40
    afa8:	676e6973 			; <UNDEFINED> instruction: 0x676e6973
    afac:	00002320 	andeq	r2, r0, r0, lsr #6
    afb0:	ebffd75b 	bl	d24 <BASIC$$Code+0xd24>
    afb4:	746f4e2e 	strbtvc	r4, [pc], #-3630	; afbc <BASIC$$Code+0xafbc>
    afb8:	206e6920 	rsbcs	r6, lr, r0, lsr #18
    afbc:	48572061 	ldmdami	r7, {r0, r5, r6, sp}^
    afc0:	20454c49 	subcs	r4, r5, r9, asr #24
    afc4:	706f6f6c 	rsbvc	r6, pc, ip, ror #30
    afc8:	00000000 	andeq	r0, r0, r0
    afcc:	ebffd754 	bl	d24 <BASIC$$Code+0xd24>
    afd0:	73694d2f 	cmnvc	r9, #3008	; 0xbc0
    afd4:	676e6973 			; <UNDEFINED> instruction: 0x676e6973
    afd8:	444e4520 	strbmi	r4, [lr], #-1312	; 0xfffffae0
    afdc:	45534143 	ldrbmi	r4, [r3, #-323]	; 0xfffffebd
    afe0:	00000000 	andeq	r0, r0, r0
    afe4:	ebffd74e 	bl	d24 <BASIC$$Code+0xd24>
    afe8:	20464f30 	subcs	r4, r6, r0, lsr pc
    afec:	7373696d 	cmnvc	r3, #1785856	; 0x1b4000
    aff0:	20676e69 	rsbcs	r6, r7, r9, ror #28
    aff4:	6d6f7266 	sfmvs	f7, 2, [pc, #-408]!	; ae64 <BASIC$$Code+0xae64>
    aff8:	53414320 	movtpl	r4, #4896	; 0x1320
    affc:	74732045 	ldrbtvc	r2, [r3], #-69	; 0xffffffbb
    b000:	6d657461 	cfstrdvs	mvd7, [r5, #-388]!	; 0xfffffe7c
    b004:	00746e65 	rsbseq	r6, r4, r5, ror #28
    b008:	ebffd745 	bl	d24 <BASIC$$Code+0xd24>
    b00c:	53414330 	movtpl	r4, #4912	; 0x1330
    b010:	4f2e2e45 	svcmi	0x002e2e45
    b014:	74732046 	ldrbtvc	r2, [r3], #-70	; 0xffffffba
    b018:	6d657461 	cfstrdvs	mvd7, [r5, #-388]!	; 0xfffffe7c
    b01c:	20746e65 	rsbscs	r6, r4, r5, ror #28
    b020:	7473756d 	ldrbtvc	r7, [r3], #-1389	; 0xfffffa93
    b024:	20656220 	rsbcs	r6, r5, r0, lsr #4
    b028:	20656874 	rsbcs	r6, r5, r4, ror r8
    b02c:	7473616c 	ldrbtvc	r6, [r3], #-364	; 0xfffffe94
    b030:	69687420 	stmdbvs	r8!, {r5, sl, ip, sp, lr}^
    b034:	6f20676e 	svcvs	0x0020676e
    b038:	2061206e 	rsbcs	r2, r1, lr, rrx
    b03c:	656e696c 	strbvs	r6, [lr, #-2412]!	; 0xfffff694
    b040:	00000000 	andeq	r0, r0, r0
    b044:	ebffd736 	bl	d24 <BASIC$$Code+0xd24>
    b048:	73694d31 	cmnvc	r9, #3136	; 0xc40
    b04c:	676e6973 			; <UNDEFINED> instruction: 0x676e6973
    b050:	444e4520 	strbmi	r4, [lr], #-1312	; 0xfffffae0
    b054:	00004649 	andeq	r4, r0, r9, asr #12
    b058:	ebffd731 	bl	d24 <BASIC$$Code+0xd24>
    b05c:	64614232 	strbtvs	r4, [r1], #-562	; 0xfffffdce
    b060:	554f4d20 	strbpl	r4, [pc, #-3360]	; a348 <BASIC$$Code+0xa348>
    b064:	76204553 			; <UNDEFINED> instruction: 0x76204553
    b068:	61697261 	cmnvs	r9, r1, ror #4
    b06c:	00656c62 	rsbeq	r6, r5, r2, ror #24
    b070:	ebffd72b 	bl	d24 <BASIC$$Code+0xd24>
    b074:	6f6f5433 	svcvs	0x006f5433
    b078:	6e616d20 	cdpvs	13, 6, cr6, cr1, cr0, {1}
    b07c:	6e692079 	mcrvs	0, 3, r2, cr9, cr9, {3}
    b080:	20747570 	rsbscs	r7, r4, r0, ror r5
    b084:	72707865 	rsbsvc	r7, r0, #6619136	; 0x650000
    b088:	69737365 	ldmdbvs	r3!, {r0, r2, r5, r6, r8, r9, ip, sp, lr}^
    b08c:	20736e6f 	rsbscs	r6, r3, pc, ror #28
    b090:	20726f66 	rsbscs	r6, r2, r6, ror #30
    b094:	00535953 	subseq	r5, r3, r3, asr r9
    b098:	ebffd721 	bl	d24 <BASIC$$Code+0xd24>
    b09c:	6f6f5433 	svcvs	0x006f5433
    b0a0:	6e616d20 	cdpvs	13, 6, cr6, cr1, cr0, {1}
    b0a4:	756f2079 	strbvc	r2, [pc, #-121]!	; b033 <BASIC$$Code+0xb033>
    b0a8:	74757074 	ldrbtvc	r7, [r5], #-116	; 0xffffff8c
    b0ac:	72617620 	rsbvc	r7, r1, #32, 12	; 0x2000000
    b0b0:	6c626169 	stfvse	f6, [r2], #-420	; 0xfffffe5c
    b0b4:	66207365 	strtvs	r7, [r0], -r5, ror #6
    b0b8:	5320726f 			; <UNDEFINED> instruction: 0x5320726f
    b0bc:	00005359 	andeq	r5, r0, r9, asr r3
    b0c0:	ebffd717 	bl	d24 <BASIC$$Code+0xd24>
    b0c4:	6e614334 	mcrvs	3, 3, r4, cr1, cr4, {1}
    b0c8:	69207427 	stmdbvs	r0!, {r0, r1, r2, r5, sl, ip, sp, lr}
    b0cc:	6174736e 	cmnvs	r4, lr, ror #6
    b0d0:	6c206c6c 	stcvs	12, cr6, [r0], #-432	; 0xfffffe50
    b0d4:	61726269 	cmnvs	r2, r9, ror #4
    b0d8:	00007972 	andeq	r7, r0, r2, ror r9
    b0dc:	ebffd710 	bl	d24 <BASIC$$Code+0xd24>
    b0e0:	64614234 	strbtvs	r4, [r1], #-564	; 0xfffffdcc
    b0e4:	6f727020 	svcvs	0x00727020
    b0e8:	6d617267 	sfmvs	f7, 2, [r1, #-412]!	; 0xfffffe64
    b0ec:	65737520 	ldrbvs	r7, [r3, #-1312]!	; 0xfffffae0
    b0f0:	73612064 	cmnvc	r1, #100	; 0x64
    b0f4:	6e756620 	cdpvs	6, 7, cr6, cr5, cr0, {1}
    b0f8:	6f697463 	svcvs	0x00697463
    b0fc:	72702f6e 	rsbsvc	r2, r0, #440	; 0x1b8
    b100:	6465636f 	strbtvs	r6, [r5], #-879	; 0xfffffc91
    b104:	20657275 	rsbcs	r7, r5, r5, ror r2
    b108:	7262696c 	rsbvc	r6, r2, #108, 18	; 0x1b0000
    b10c:	00797261 	rsbseq	r7, r9, r1, ror #4

Disassembly of section .debug_info:

00000000 <.debug_info>:
   0:	00000023 	andeq	r0, r0, r3, lsr #32
   4:	00000002 	andeq	r0, r0, r2
   8:	01040000 	mrseq	r0, (UNDEF: 4)
   c:	00000000 	andeq	r0, r0, r0
  10:	00000036 	andeq	r0, r0, r6, lsr r0
  14:	00000072 	andeq	r0, r0, r2, ror r0
  18:	00008001 	andeq	r8, r0, r1
  1c:	b1100000 	tstlt	r0, r0
  20:	00000000 	andeq	r0, r0, r0
  24:	Address 0x0000000000000024 is out of bounds.


Disassembly of section .debug_abbrev:

00000000 <.debug_abbrev>:
   0:	1b001101 	blne	440c <.debug_abbrev+0x440c>
   4:	250e030e 	strcs	r0, [lr, #-782]	; 0xfffffcf2
   8:	1105130e 	tstne	r5, lr, lsl #6
   c:	10011201 	andne	r1, r1, r1, lsl #4
  10:	00000006 	andeq	r0, r0, r6

Disassembly of section .debug_line:

00000000 <.debug_line>:
       0:	0000271c 	andeq	r2, r0, ip, lsl r7
       4:	007e0002 	rsbseq	r0, lr, r2
       8:	01020000 	mrseq	r0, (UNDEF: 2)
       c:	000a0efb 	strdeq	r0, [sl], -fp
      10:	01010101 	tsteq	r1, r1, lsl #2
      14:	01000000 	mrseq	r0, (UNDEF: 0)
      18:	73614200 	cmnvc	r1, #0, 4
      1c:	00006369 	andeq	r6, r0, r9, ror #6
      20:	654c0000 	strbvs	r0, [ip, #-0]
      24:	61636978 	smcvs	13976	; 0x3698
      28:	0000006c 	andeq	r0, r0, ip, rrx
      2c:	6d6f4300 	stclvs	3, cr4, [pc, #-0]	; 34 <.debug_line+0x34>
      30:	646e616d 	strbtvs	r6, [lr], #-365	; 0xfffffe93
      34:	00000000 	andeq	r0, r0, r0
      38:	746d7453 	strbtvc	r7, [sp], #-1107	; 0xfffffbad
      3c:	00000000 	andeq	r0, r0, r0
      40:	746d7453 	strbtvc	r7, [sp], #-1107	; 0xfffffbad
      44:	00000032 	andeq	r0, r0, r2, lsr r0
      48:	72724100 	rsbsvc	r4, r2, #0, 2
      4c:	00007961 	andeq	r7, r0, r1, ror #18
      50:	73410000 	movtvc	r0, #4096	; 0x1000
      54:	626d6573 	rsbvs	r6, sp, #482344960	; 0x1cc00000
      58:	0072656c 	rsbseq	r6, r2, ip, ror #10
      5c:	45000000 	strmi	r0, [r0, #-0]
      60:	00727078 	rsbseq	r7, r2, r8, ror r0
      64:	46000000 	strmi	r0, [r0], -r0
      68:	6f746361 	svcvs	0x00746361
      6c:	00000072 	andeq	r0, r0, r2, ror r0
      70:	6e754600 	cdpvs	6, 7, cr4, cr5, cr0, {0}
      74:	00007463 	andeq	r7, r0, r3, ror #8
      78:	70460000 	subvc	r0, r6, r0
      7c:	00000000 	andeq	r0, r0, r0
      80:	00327046 	eorseq	r7, r2, r6, asr #32
      84:	00000000 	andeq	r0, r0, r0
      88:	00020500 	andeq	r0, r2, r0, lsl #10
      8c:	03000000 	movweq	r0, #0
      90:	030100ea 	movweq	r0, #4330	; 0x10ea
      94:	0102022e 	tsteq	r2, lr, lsr #4
      98:	2c2c2c2c 	stccs	12, cr2, [ip], #-176	; 0xffffff50
      9c:	2c2c2c2c 	stccs	12, cr2, [ip], #-176	; 0xffffff50
      a0:	2c2c2c49 	stccs	12, cr2, [ip], #-292	; 0xfffffedc
      a4:	2c2c2c2c 	stccs	12, cr2, [ip], #-176	; 0xffffff50
      a8:	2c2c2c2c 	stccs	12, cr2, [ip], #-176	; 0xffffff50
      ac:	2c2c2c2c 	stccs	12, cr2, [ip], #-176	; 0xffffff50
      b0:	2c2c2c2c 	stccs	12, cr2, [ip], #-176	; 0xffffff50
      b4:	2c2c2c2c 	stccs	12, cr2, [ip], #-176	; 0xffffff50
      b8:	2c2c2c2c 	stccs	12, cr2, [ip], #-176	; 0xffffff50
      bc:	032c2c2c 			; <UNDEFINED> instruction: 0x032c2c2c
      c0:	01a90816 			; <UNDEFINED> instruction: 0x01a90816
      c4:	2c2c2c2c 	stccs	12, cr2, [ip], #-176	; 0xffffff50
      c8:	2c2c2c2c 	stccs	12, cr2, [ip], #-176	; 0xffffff50
      cc:	2c2c2c2c 	stccs	12, cr2, [ip], #-176	; 0xffffff50
      d0:	2c2d2c2d 	stccs	12, cr2, [sp], #-180	; 0xffffff4c
      d4:	2c2c2c2c 	stccs	12, cr2, [ip], #-176	; 0xffffff50
      d8:	2c2c2c2c 	stccs	12, cr2, [ip], #-176	; 0xffffff50
      dc:	2c2c2c2c 	stccs	12, cr2, [ip], #-176	; 0xffffff50
      e0:	2c2c2c2c 	stccs	12, cr2, [ip], #-176	; 0xffffff50
      e4:	2c2c2c2c 	stccs	12, cr2, [ip], #-176	; 0xffffff50
      e8:	2c2c2c2c 	stccs	12, cr2, [ip], #-176	; 0xffffff50
      ec:	2c2c2c2c 	stccs	12, cr2, [ip], #-176	; 0xffffff50
      f0:	2c2c2c2c 	stccs	12, cr2, [ip], #-176	; 0xffffff50
      f4:	2c2c2c2c 	stccs	12, cr2, [ip], #-176	; 0xffffff50
      f8:	2c2c2c2c 	stccs	12, cr2, [ip], #-176	; 0xffffff50
      fc:	2c2c2c2c 	stccs	12, cr2, [ip], #-176	; 0xffffff50
     100:	2c2c2c2c 	stccs	12, cr2, [ip], #-176	; 0xffffff50
     104:	d52c2c2c 	strle	r2, [ip, #-3116]!	; 0xfffff3d4
     108:	2c2c2c2c 	stccs	12, cr2, [ip], #-176	; 0xffffff50
     10c:	2c2c2c2c 	stccs	12, cr2, [ip], #-176	; 0xffffff50
     110:	2c2c2c2c 	stccs	12, cr2, [ip], #-176	; 0xffffff50
     114:	2c2c2c2c 	stccs	12, cr2, [ip], #-176	; 0xffffff50
     118:	2c2c2c2c 	stccs	12, cr2, [ip], #-176	; 0xffffff50
     11c:	2c2c2c2c 	stccs	12, cr2, [ip], #-176	; 0xffffff50
     120:	2c2c2c2c 	stccs	12, cr2, [ip], #-176	; 0xffffff50
     124:	2c2c2c2c 	stccs	12, cr2, [ip], #-176	; 0xffffff50
     128:	2c2c2c2c 	stccs	12, cr2, [ip], #-176	; 0xffffff50
     12c:	2c2c2c2c 	stccs	12, cr2, [ip], #-176	; 0xffffff50
     130:	2c2c2c2c 	stccs	12, cr2, [ip], #-176	; 0xffffff50
     134:	2c2c2c2c 	stccs	12, cr2, [ip], #-176	; 0xffffff50
     138:	2c2c2c2c 	stccs	12, cr2, [ip], #-176	; 0xffffff50
     13c:	2c2c2c2c 	stccs	12, cr2, [ip], #-176	; 0xffffff50
     140:	0802032c 	stmdaeq	r2, {r2, r3, r5, r8, r9}
     144:	b92c01fd 	stmdblt	ip!, {r0, r2, r3, r4, r5, r6, r7, r8}
     148:	7a020503 	bvc	8155c <.debug_line+0x8155c>
     14c:	2c2c2c01 	stccs	12, cr2, [ip], #-4
     150:	2c2c2c2c 	stccs	12, cr2, [ip], #-176	; 0xffffff50
     154:	2c2c2c2c 	stccs	12, cr2, [ip], #-176	; 0xffffff50
     158:	2c2c2c2c 	stccs	12, cr2, [ip], #-176	; 0xffffff50
     15c:	2c2c2c2c 	stccs	12, cr2, [ip], #-176	; 0xffffff50
     160:	2c2c2c2c 	stccs	12, cr2, [ip], #-176	; 0xffffff50
     164:	2c2c2c2c 	stccs	12, cr2, [ip], #-176	; 0xffffff50
     168:	2c2c2c2c 	stccs	12, cr2, [ip], #-176	; 0xffffff50
     16c:	2c2c2c2c 	stccs	12, cr2, [ip], #-176	; 0xffffff50
     170:	2c2c2c2c 	stccs	12, cr2, [ip], #-176	; 0xffffff50
     174:	2c2c2c2c 	stccs	12, cr2, [ip], #-176	; 0xffffff50
     178:	2c2c2c2c 	stccs	12, cr2, [ip], #-176	; 0xffffff50
     17c:	2c2c2c2c 	stccs	12, cr2, [ip], #-176	; 0xffffff50
     180:	2c2c2c2c 	stccs	12, cr2, [ip], #-176	; 0xffffff50
     184:	2c2c2c2c 	stccs	12, cr2, [ip], #-176	; 0xffffff50
     188:	2c2c2c2c 	stccs	12, cr2, [ip], #-176	; 0xffffff50
     18c:	2c2c2c2c 	stccs	12, cr2, [ip], #-176	; 0xffffff50
     190:	2c2c2c2c 	stccs	12, cr2, [ip], #-176	; 0xffffff50
     194:	2c2c2c2c 	stccs	12, cr2, [ip], #-176	; 0xffffff50
     198:	2c2c2c2c 	stccs	12, cr2, [ip], #-176	; 0xffffff50
     19c:	2c2c2c2c 	stccs	12, cr2, [ip], #-176	; 0xffffff50
     1a0:	2c2c2c2c 	stccs	12, cr2, [ip], #-176	; 0xffffff50
     1a4:	d62c2c2c 	strtle	r2, [ip], -ip, lsr #24
     1a8:	03032c2c 	movweq	r2, #15404	; 0x3c2c
     1ac:	2c011d08 	stccs	13, cr1, [r1], {8}
     1b0:	2cd62c2c 	ldclcs	12, cr2, [r6], {44}	; 0x2c
     1b4:	2c2e2c2c 	stccs	12, cr2, [lr], #-176	; 0xffffff50
     1b8:	2c2c2c2c 	stccs	12, cr2, [ip], #-176	; 0xffffff50
     1bc:	2c2c2c2c 	stccs	12, cr2, [ip], #-176	; 0xffffff50
     1c0:	2c2e2c2c 	stccs	12, cr2, [lr], #-176	; 0xffffff50
     1c4:	2c2c2c2c 	stccs	12, cr2, [ip], #-176	; 0xffffff50
     1c8:	2c2c2c2c 	stccs	12, cr2, [ip], #-176	; 0xffffff50
     1cc:	2c2c2c2c 	stccs	12, cr2, [ip], #-176	; 0xffffff50
     1d0:	2c2c2c2c 	stccs	12, cr2, [ip], #-176	; 0xffffff50
     1d4:	2c2c2c2c 	stccs	12, cr2, [ip], #-176	; 0xffffff50
     1d8:	2c2c2c2c 	stccs	12, cr2, [ip], #-176	; 0xffffff50
     1dc:	2c2c2c2c 	stccs	12, cr2, [ip], #-176	; 0xffffff50
     1e0:	2c2c2c2c 	stccs	12, cr2, [ip], #-176	; 0xffffff50
     1e4:	2c2c2c2c 	stccs	12, cr2, [ip], #-176	; 0xffffff50
     1e8:	2c2c2c2c 	stccs	12, cr2, [ip], #-176	; 0xffffff50
     1ec:	2c2c2c2c 	stccs	12, cr2, [ip], #-176	; 0xffffff50
     1f0:	2c2c2c2c 	stccs	12, cr2, [ip], #-176	; 0xffffff50
     1f4:	2c2c2c2c 	stccs	12, cr2, [ip], #-176	; 0xffffff50
     1f8:	2c2c2c2c 	stccs	12, cr2, [ip], #-176	; 0xffffff50
     1fc:	2c2c2c2c 	stccs	12, cr2, [ip], #-176	; 0xffffff50
     200:	2c2c2c2c 	stccs	12, cr2, [ip], #-176	; 0xffffff50
     204:	2c2c2c2c 	stccs	12, cr2, [ip], #-176	; 0xffffff50
     208:	2c2c2c2c 	stccs	12, cr2, [ip], #-176	; 0xffffff50
     20c:	2c2c2c2c 	stccs	12, cr2, [ip], #-176	; 0xffffff50
     210:	0810032c 	ldmdaeq	r0, {r2, r3, r5, r8, r9}
     214:	2c2c01c5 	stfcss	f0, [ip], #-788	; 0xfffffcec
     218:	2c2c2c2c 	stccs	12, cr2, [ip], #-176	; 0xffffff50
     21c:	2c2c2c2c 	stccs	12, cr2, [ip], #-176	; 0xffffff50
     220:	2c2c2c2c 	stccs	12, cr2, [ip], #-176	; 0xffffff50
     224:	2c2c2c2c 	stccs	12, cr2, [ip], #-176	; 0xffffff50
     228:	2c2c2c2c 	stccs	12, cr2, [ip], #-176	; 0xffffff50
     22c:	2c2c2c2c 	stccs	12, cr2, [ip], #-176	; 0xffffff50
     230:	2c2c2c2c 	stccs	12, cr2, [ip], #-176	; 0xffffff50
     234:	86032c2d 	strhi	r2, [r3], -sp, lsr #24
     238:	04820202 	streq	r0, [r2], #514	; 0x202
     23c:	2c2c2c01 	stccs	12, cr2, [ip], #-4
     240:	fd081803 	stc2	8, cr1, [r8, #-12]
     244:	2c2c2c01 	stccs	12, cr2, [ip], #-4
     248:	2c2c2c2c 	stccs	12, cr2, [ip], #-176	; 0xffffff50
     24c:	2c2c2c2c 	stccs	12, cr2, [ip], #-176	; 0xffffff50
     250:	2c2c2c2c 	stccs	12, cr2, [ip], #-176	; 0xffffff50
     254:	2c2c2c2c 	stccs	12, cr2, [ip], #-176	; 0xffffff50
     258:	2c2c2c2c 	stccs	12, cr2, [ip], #-176	; 0xffffff50
     25c:	2c2c2c2c 	stccs	12, cr2, [ip], #-176	; 0xffffff50
     260:	2c2c2c2c 	stccs	12, cr2, [ip], #-176	; 0xffffff50
     264:	2c2c2c2c 	stccs	12, cr2, [ip], #-176	; 0xffffff50
     268:	2c2c2c2c 	stccs	12, cr2, [ip], #-176	; 0xffffff50
     26c:	2c2c2c2c 	stccs	12, cr2, [ip], #-176	; 0xffffff50
     270:	2c2c2c2c 	stccs	12, cr2, [ip], #-176	; 0xffffff50
     274:	2c2c2c2c 	stccs	12, cr2, [ip], #-176	; 0xffffff50
     278:	2c2c2c2c 	stccs	12, cr2, [ip], #-176	; 0xffffff50
     27c:	2c2c2c2c 	stccs	12, cr2, [ip], #-176	; 0xffffff50
     280:	2c2c2c2c 	stccs	12, cr2, [ip], #-176	; 0xffffff50
     284:	2c2c2c2c 	stccs	12, cr2, [ip], #-176	; 0xffffff50
     288:	2c2c2c2c 	stccs	12, cr2, [ip], #-176	; 0xffffff50
     28c:	2c2c2c2c 	stccs	12, cr2, [ip], #-176	; 0xffffff50
     290:	2c2c2c2c 	stccs	12, cr2, [ip], #-176	; 0xffffff50
     294:	2c2c2c2c 	stccs	12, cr2, [ip], #-176	; 0xffffff50
     298:	2c2c2c2c 	stccs	12, cr2, [ip], #-176	; 0xffffff50
     29c:	2c2c2c2c 	stccs	12, cr2, [ip], #-176	; 0xffffff50
     2a0:	2c2c2c2c 	stccs	12, cr2, [ip], #-176	; 0xffffff50
     2a4:	c5080603 	strgt	r0, [r8, #-1539]	; 0xfffff9fd
     2a8:	2c2c2c01 	stccs	12, cr2, [ip], #-4
     2ac:	2c2c2c2c 	stccs	12, cr2, [ip], #-176	; 0xffffff50
     2b0:	2c2c2c2c 	stccs	12, cr2, [ip], #-176	; 0xffffff50
     2b4:	2c2c2c2c 	stccs	12, cr2, [ip], #-176	; 0xffffff50
     2b8:	2d2c2c2c 	stccs	12, cr2, [ip, #-176]!	; 0xffffff50
     2bc:	2c2c2c2c 	stccs	12, cr2, [ip], #-176	; 0xffffff50
     2c0:	2c2c2c2c 	stccs	12, cr2, [ip], #-176	; 0xffffff50
     2c4:	2c2c2c2c 	stccs	12, cr2, [ip], #-176	; 0xffffff50
     2c8:	2c2c2c2c 	stccs	12, cr2, [ip], #-176	; 0xffffff50
     2cc:	2c2c2c2c 	stccs	12, cr2, [ip], #-176	; 0xffffff50
     2d0:	2c2c2c2c 	stccs	12, cr2, [ip], #-176	; 0xffffff50
     2d4:	2c2c2c2c 	stccs	12, cr2, [ip], #-176	; 0xffffff50
     2d8:	2c2c2c2c 	stccs	12, cr2, [ip], #-176	; 0xffffff50
     2dc:	2c2c2c2c 	stccs	12, cr2, [ip], #-176	; 0xffffff50
     2e0:	2c2c2c2c 	stccs	12, cr2, [ip], #-176	; 0xffffff50
     2e4:	2c2c2c2c 	stccs	12, cr2, [ip], #-176	; 0xffffff50
     2e8:	2c2c2c2c 	stccs	12, cr2, [ip], #-176	; 0xffffff50
     2ec:	2c2c2c2c 	stccs	12, cr2, [ip], #-176	; 0xffffff50
     2f0:	2c2c2e2c 	stccs	14, cr2, [ip], #-176	; 0xffffff50
     2f4:	020d032c 	andeq	r0, sp, #44, 6	; 0xb0000000
     2f8:	2c2c0102 	stfcss	f0, [ip], #-8
     2fc:	2c2c2c2c 	stccs	12, cr2, [ip], #-176	; 0xffffff50
     300:	2c2c2c2c 	stccs	12, cr2, [ip], #-176	; 0xffffff50
     304:	2c2c2c2c 	stccs	12, cr2, [ip], #-176	; 0xffffff50
     308:	2c2c2c2c 	stccs	12, cr2, [ip], #-176	; 0xffffff50
     30c:	2c2c2c2c 	stccs	12, cr2, [ip], #-176	; 0xffffff50
     310:	2c2c2c2c 	stccs	12, cr2, [ip], #-176	; 0xffffff50
     314:	02042c2c 	andeq	r2, r4, #44, 24	; 0x2c00
     318:	0277aa03 	rsbseq	sl, r7, #12288	; 0x3000
     31c:	2c2c0102 	stfcss	f0, [ip], #-8
     320:	2c2c2c2c 	stccs	12, cr2, [ip], #-176	; 0xffffff50
     324:	2c2c2c2c 	stccs	12, cr2, [ip], #-176	; 0xffffff50
     328:	2c2c2c2c 	stccs	12, cr2, [ip], #-176	; 0xffffff50
     32c:	2c2c2c2c 	stccs	12, cr2, [ip], #-176	; 0xffffff50
     330:	2c2c2c2c 	stccs	12, cr2, [ip], #-176	; 0xffffff50
     334:	2c2c2c2c 	stccs	12, cr2, [ip], #-176	; 0xffffff50
     338:	2c2c2c2c 	stccs	12, cr2, [ip], #-176	; 0xffffff50
     33c:	2c2c2c2c 	stccs	12, cr2, [ip], #-176	; 0xffffff50
     340:	2c2c2c2c 	stccs	12, cr2, [ip], #-176	; 0xffffff50
     344:	2c2c2c2c 	stccs	12, cr2, [ip], #-176	; 0xffffff50
     348:	2c2c2c2c 	stccs	12, cr2, [ip], #-176	; 0xffffff50
     34c:	2c2c2c2c 	stccs	12, cr2, [ip], #-176	; 0xffffff50
     350:	2d2c2c2c 	stccs	12, cr2, [ip, #-176]!	; 0xffffff50
     354:	2c2c2c2c 	stccs	12, cr2, [ip], #-176	; 0xffffff50
     358:	2c2c2c2e 	stccs	12, cr2, [ip], #-184	; 0xffffff48
     35c:	2c2c2c2c 	stccs	12, cr2, [ip], #-176	; 0xffffff50
     360:	2c2c2c2c 	stccs	12, cr2, [ip], #-176	; 0xffffff50
     364:	2d2c2c2c 	stccs	12, cr2, [ip, #-176]!	; 0xffffff50
     368:	2c2c2c2c 	stccs	12, cr2, [ip], #-176	; 0xffffff50
     36c:	2c2c2c2c 	stccs	12, cr2, [ip], #-176	; 0xffffff50
     370:	2c2c2c2c 	stccs	12, cr2, [ip], #-176	; 0xffffff50
     374:	2c2c2d2c 	stccs	13, cr2, [ip], #-176	; 0xffffff50
     378:	2c2c2d2c 	stccs	13, cr2, [ip], #-176	; 0xffffff50
     37c:	2c2c2c2c 	stccs	12, cr2, [ip], #-176	; 0xffffff50
     380:	2c2c2c2c 	stccs	12, cr2, [ip], #-176	; 0xffffff50
     384:	2c2c2c2c 	stccs	12, cr2, [ip], #-176	; 0xffffff50
     388:	2c2c2c2c 	stccs	12, cr2, [ip], #-176	; 0xffffff50
     38c:	2c2c2c2c 	stccs	12, cr2, [ip], #-176	; 0xffffff50
     390:	2c2c2c2c 	stccs	12, cr2, [ip], #-176	; 0xffffff50
     394:	2c2c2c2c 	stccs	12, cr2, [ip], #-176	; 0xffffff50
     398:	2c2c2c2c 	stccs	12, cr2, [ip], #-176	; 0xffffff50
     39c:	2c2c2c2c 	stccs	12, cr2, [ip], #-176	; 0xffffff50
     3a0:	2c2c2c2c 	stccs	12, cr2, [ip], #-176	; 0xffffff50
     3a4:	2c2c2c2c 	stccs	12, cr2, [ip], #-176	; 0xffffff50
     3a8:	2c2c2c2c 	stccs	12, cr2, [ip], #-176	; 0xffffff50
     3ac:	2c2c2c2c 	stccs	12, cr2, [ip], #-176	; 0xffffff50
     3b0:	2c2c2c2c 	stccs	12, cr2, [ip], #-176	; 0xffffff50
     3b4:	2c2c2c2c 	stccs	12, cr2, [ip], #-176	; 0xffffff50
     3b8:	2c2c2c2c 	stccs	12, cr2, [ip], #-176	; 0xffffff50
     3bc:	2c2c2c2c 	stccs	12, cr2, [ip], #-176	; 0xffffff50
     3c0:	2d2c2c2c 	stccs	12, cr2, [ip, #-176]!	; 0xffffff50
     3c4:	2c2c2d2c 	stccs	13, cr2, [ip], #-176	; 0xffffff50
     3c8:	2c2c2c2c 	stccs	12, cr2, [ip], #-176	; 0xffffff50
     3cc:	042c2c2d 	strteq	r2, [ip], #-3117	; 0xfffff3d3
     3d0:	02480301 	subeq	r0, r8, #67108864	; 0x4000000
     3d4:	02040102 	andeq	r0, r4, #-2147483648	; 0x80000000
     3d8:	02023a03 	andeq	r3, r2, #12288	; 0x3000
     3dc:	2c2c2c01 	stccs	12, cr2, [ip], #-4
     3e0:	2c2c2c2c 	stccs	12, cr2, [ip], #-176	; 0xffffff50
     3e4:	2c2c2c2c 	stccs	12, cr2, [ip], #-176	; 0xffffff50
     3e8:	2c2c2c2c 	stccs	12, cr2, [ip], #-176	; 0xffffff50
     3ec:	2c2c2c2d 	stccs	12, cr2, [ip], #-180	; 0xffffff4c
     3f0:	2c2c2c2c 	stccs	12, cr2, [ip], #-176	; 0xffffff50
     3f4:	2c2c2c2c 	stccs	12, cr2, [ip], #-176	; 0xffffff50
     3f8:	2c2c2c2c 	stccs	12, cr2, [ip], #-176	; 0xffffff50
     3fc:	2c2c2c2c 	stccs	12, cr2, [ip], #-176	; 0xffffff50
     400:	2c2c2c2c 	stccs	12, cr2, [ip], #-176	; 0xffffff50
     404:	2c2c2c2c 	stccs	12, cr2, [ip], #-176	; 0xffffff50
     408:	2c2c2c2c 	stccs	12, cr2, [ip], #-176	; 0xffffff50
     40c:	2c2c2c2c 	stccs	12, cr2, [ip], #-176	; 0xffffff50
     410:	2c2c2c2c 	stccs	12, cr2, [ip], #-176	; 0xffffff50
     414:	2c2c2c2c 	stccs	12, cr2, [ip], #-176	; 0xffffff50
     418:	2c2c2c2c 	stccs	12, cr2, [ip], #-176	; 0xffffff50
     41c:	2c2c2c2c 	stccs	12, cr2, [ip], #-176	; 0xffffff50
     420:	2c2c2c2c 	stccs	12, cr2, [ip], #-176	; 0xffffff50
     424:	2c2c2c2c 	stccs	12, cr2, [ip], #-176	; 0xffffff50
     428:	2c2c2c2c 	stccs	12, cr2, [ip], #-176	; 0xffffff50
     42c:	2c2c2c2c 	stccs	12, cr2, [ip], #-176	; 0xffffff50
     430:	2c2c2c2c 	stccs	12, cr2, [ip], #-176	; 0xffffff50
     434:	18032c2c 	stmdane	r3, {r2, r3, r5, sl, fp, sp}
     438:	2c013002 	stccs	0, cr3, [r1], {2}
     43c:	2c2c2c2e 	stccs	12, cr2, [ip], #-184	; 0xffffff48
     440:	2c2c2c2c 	stccs	12, cr2, [ip], #-176	; 0xffffff50
     444:	2c2c2c2c 	stccs	12, cr2, [ip], #-176	; 0xffffff50
     448:	2c2c2c2c 	stccs	12, cr2, [ip], #-176	; 0xffffff50
     44c:	2c2c2c2c 	stccs	12, cr2, [ip], #-176	; 0xffffff50
     450:	2c2c2c2c 	stccs	12, cr2, [ip], #-176	; 0xffffff50
     454:	2c2c2c2c 	stccs	12, cr2, [ip], #-176	; 0xffffff50
     458:	2c2c2c2c 	stccs	12, cr2, [ip], #-176	; 0xffffff50
     45c:	0303042c 	movweq	r0, #13356	; 0x342c
     460:	82027dac 	andhi	r7, r2, #172, 26	; 0x2b00
     464:	2c2c0105 	stfcss	f0, [ip], #-20	; 0xffffffec
     468:	2c2c2c2c 	stccs	12, cr2, [ip], #-176	; 0xffffff50
     46c:	2c2c2c2c 	stccs	12, cr2, [ip], #-176	; 0xffffff50
     470:	2c2c2c2c 	stccs	12, cr2, [ip], #-176	; 0xffffff50
     474:	2c2c2c2c 	stccs	12, cr2, [ip], #-176	; 0xffffff50
     478:	2c2c2c2c 	stccs	12, cr2, [ip], #-176	; 0xffffff50
     47c:	2c2c2c2c 	stccs	12, cr2, [ip], #-176	; 0xffffff50
     480:	2c2c2c2c 	stccs	12, cr2, [ip], #-176	; 0xffffff50
     484:	2c2c2c2c 	stccs	12, cr2, [ip], #-176	; 0xffffff50
     488:	2c2c2c2c 	stccs	12, cr2, [ip], #-176	; 0xffffff50
     48c:	2c2c2c2c 	stccs	12, cr2, [ip], #-176	; 0xffffff50
     490:	2c2c2c2c 	stccs	12, cr2, [ip], #-176	; 0xffffff50
     494:	2c2c2c2c 	stccs	12, cr2, [ip], #-176	; 0xffffff50
     498:	2c2c2c2c 	stccs	12, cr2, [ip], #-176	; 0xffffff50
     49c:	2c2c2c2c 	stccs	12, cr2, [ip], #-176	; 0xffffff50
     4a0:	2c2c2c2c 	stccs	12, cr2, [ip], #-176	; 0xffffff50
     4a4:	2c2c2c2c 	stccs	12, cr2, [ip], #-176	; 0xffffff50
     4a8:	2c2c2c2c 	stccs	12, cr2, [ip], #-176	; 0xffffff50
     4ac:	2c2c2c2c 	stccs	12, cr2, [ip], #-176	; 0xffffff50
     4b0:	2c2c2c2c 	stccs	12, cr2, [ip], #-176	; 0xffffff50
     4b4:	02020f03 	andeq	r0, r2, #3, 30
     4b8:	8a032c01 	bhi	cb4c4 <.debug_line+0xcb4c4>
     4bc:	01600201 	cmneq	r0, r1, lsl #4
     4c0:	2c2c2c2c 	stccs	12, cr2, [ip], #-176	; 0xffffff50
     4c4:	2c2c2c2c 	stccs	12, cr2, [ip], #-176	; 0xffffff50
     4c8:	2c2c2c2c 	stccs	12, cr2, [ip], #-176	; 0xffffff50
     4cc:	2c2c2c2c 	stccs	12, cr2, [ip], #-176	; 0xffffff50
     4d0:	2c2c2c2c 	stccs	12, cr2, [ip], #-176	; 0xffffff50
     4d4:	2c9e2c2c 	ldccs	12, cr2, [lr], {44}	; 0x2c
     4d8:	2c2e2c2c 	stccs	12, cr2, [lr], #-176	; 0xffffff50
     4dc:	2c2c2c2c 	stccs	12, cr2, [ip], #-176	; 0xffffff50
     4e0:	2c2c2c2c 	stccs	12, cr2, [ip], #-176	; 0xffffff50
     4e4:	2c2c2c2c 	stccs	12, cr2, [ip], #-176	; 0xffffff50
     4e8:	2c2c2c2c 	stccs	12, cr2, [ip], #-176	; 0xffffff50
     4ec:	2c2c2c2c 	stccs	12, cr2, [ip], #-176	; 0xffffff50
     4f0:	bd2c2c2c 	stclt	12, cr2, [ip, #-176]!	; 0xffffff50
     4f4:	2c2c2c2d 	stccs	12, cr2, [ip], #-180	; 0xffffff4c
     4f8:	2c2c2c2c 	stccs	12, cr2, [ip], #-176	; 0xffffff50
     4fc:	2c2c2c2c 	stccs	12, cr2, [ip], #-176	; 0xffffff50
     500:	2c2c2c2c 	stccs	12, cr2, [ip], #-176	; 0xffffff50
     504:	2c2c2c2c 	stccs	12, cr2, [ip], #-176	; 0xffffff50
     508:	a9080203 	stmdbge	r8, {r0, r1, r9}
     50c:	2c2c2c01 	stccs	12, cr2, [ip], #-4
     510:	2c2c2c2c 	stccs	12, cr2, [ip], #-176	; 0xffffff50
     514:	2c2c2c2c 	stccs	12, cr2, [ip], #-176	; 0xffffff50
     518:	2c2c2c2c 	stccs	12, cr2, [ip], #-176	; 0xffffff50
     51c:	2c662c2c 	stclcs	12, cr2, [r6], #-176	; 0xffffff50
     520:	2c2c2c2c 	stccs	12, cr2, [ip], #-176	; 0xffffff50
     524:	2c2c2c2c 	stccs	12, cr2, [ip], #-176	; 0xffffff50
     528:	2c2c2c2c 	stccs	12, cr2, [ip], #-176	; 0xffffff50
     52c:	2c2c2c2c 	stccs	12, cr2, [ip], #-176	; 0xffffff50
     530:	2c2c2c2c 	stccs	12, cr2, [ip], #-176	; 0xffffff50
     534:	2c2c2c2c 	stccs	12, cr2, [ip], #-176	; 0xffffff50
     538:	2c2c2c2c 	stccs	12, cr2, [ip], #-176	; 0xffffff50
     53c:	2c2c2c2c 	stccs	12, cr2, [ip], #-176	; 0xffffff50
     540:	2c2c2c2c 	stccs	12, cr2, [ip], #-176	; 0xffffff50
     544:	2c2c2c2c 	stccs	12, cr2, [ip], #-176	; 0xffffff50
     548:	2c2c2c2c 	stccs	12, cr2, [ip], #-176	; 0xffffff50
     54c:	2c2c2c2c 	stccs	12, cr2, [ip], #-176	; 0xffffff50
     550:	2c2c2c2c 	stccs	12, cr2, [ip], #-176	; 0xffffff50
     554:	2c2c2c2c 	stccs	12, cr2, [ip], #-176	; 0xffffff50
     558:	2c2c2c2c 	stccs	12, cr2, [ip], #-176	; 0xffffff50
     55c:	2c2c2c2c 	stccs	12, cr2, [ip], #-176	; 0xffffff50
     560:	2c2c2c2c 	stccs	12, cr2, [ip], #-176	; 0xffffff50
     564:	2c2c2c2c 	stccs	12, cr2, [ip], #-176	; 0xffffff50
     568:	2c2c2c2c 	stccs	12, cr2, [ip], #-176	; 0xffffff50
     56c:	2c2c2c2c 	stccs	12, cr2, [ip], #-176	; 0xffffff50
     570:	492c2c2c 	stmdbmi	ip!, {r2, r3, r5, sl, fp, sp}
     574:	2c2c2c2c 	stccs	12, cr2, [ip], #-176	; 0xffffff50
     578:	2c2c2c2c 	stccs	12, cr2, [ip], #-176	; 0xffffff50
     57c:	2c2c2c2c 	stccs	12, cr2, [ip], #-176	; 0xffffff50
     580:	2c2c2c2c 	stccs	12, cr2, [ip], #-176	; 0xffffff50
     584:	2c2c2c2c 	stccs	12, cr2, [ip], #-176	; 0xffffff50
     588:	2c2c2c2c 	stccs	12, cr2, [ip], #-176	; 0xffffff50
     58c:	2c2c2c2c 	stccs	12, cr2, [ip], #-176	; 0xffffff50
     590:	2c2c2c2c 	stccs	12, cr2, [ip], #-176	; 0xffffff50
     594:	2c2c2c2c 	stccs	12, cr2, [ip], #-176	; 0xffffff50
     598:	2c2c2c2c 	stccs	12, cr2, [ip], #-176	; 0xffffff50
     59c:	2c2c2c2c 	stccs	12, cr2, [ip], #-176	; 0xffffff50
     5a0:	2c2c2c2c 	stccs	12, cr2, [ip], #-176	; 0xffffff50
     5a4:	2c2c2c2c 	stccs	12, cr2, [ip], #-176	; 0xffffff50
     5a8:	2c2c2c2c 	stccs	12, cr2, [ip], #-176	; 0xffffff50
     5ac:	2c2c2c2c 	stccs	12, cr2, [ip], #-176	; 0xffffff50
     5b0:	2c2c2c2c 	stccs	12, cr2, [ip], #-176	; 0xffffff50
     5b4:	2c2c2c2c 	stccs	12, cr2, [ip], #-176	; 0xffffff50
     5b8:	2c2c2c2c 	stccs	12, cr2, [ip], #-176	; 0xffffff50
     5bc:	2c2c2c2c 	stccs	12, cr2, [ip], #-176	; 0xffffff50
     5c0:	2c2c2c2c 	stccs	12, cr2, [ip], #-176	; 0xffffff50
     5c4:	2c2c2c2c 	stccs	12, cr2, [ip], #-176	; 0xffffff50
     5c8:	2c2c2c2c 	stccs	12, cr2, [ip], #-176	; 0xffffff50
     5cc:	2c2c2c2c 	stccs	12, cr2, [ip], #-176	; 0xffffff50
     5d0:	2c2c2c2c 	stccs	12, cr2, [ip], #-176	; 0xffffff50
     5d4:	2c2c2c2c 	stccs	12, cr2, [ip], #-176	; 0xffffff50
     5d8:	2c2c2c2c 	stccs	12, cr2, [ip], #-176	; 0xffffff50
     5dc:	2c2c2c2c 	stccs	12, cr2, [ip], #-176	; 0xffffff50
     5e0:	2c2c2c2c 	stccs	12, cr2, [ip], #-176	; 0xffffff50
     5e4:	2c2c2c2c 	stccs	12, cr2, [ip], #-176	; 0xffffff50
     5e8:	2c2c2c2c 	stccs	12, cr2, [ip], #-176	; 0xffffff50
     5ec:	2c2c2c2c 	stccs	12, cr2, [ip], #-176	; 0xffffff50
     5f0:	2c2c2c2c 	stccs	12, cr2, [ip], #-176	; 0xffffff50
     5f4:	032c2d2c 			; <UNDEFINED> instruction: 0x032c2d2c
     5f8:	018d0802 	orreq	r0, sp, r2, lsl #16
     5fc:	2c2c2c2c 	stccs	12, cr2, [ip], #-176	; 0xffffff50
     600:	2c2c2c2c 	stccs	12, cr2, [ip], #-176	; 0xffffff50
     604:	2c2c2c2c 	stccs	12, cr2, [ip], #-176	; 0xffffff50
     608:	2c2c2c2c 	stccs	12, cr2, [ip], #-176	; 0xffffff50
     60c:	2c2c2c65 	stccs	12, cr2, [ip], #-404	; 0xfffffe6c
     610:	2c2c2c2c 	stccs	12, cr2, [ip], #-176	; 0xffffff50
     614:	2c2c2c2c 	stccs	12, cr2, [ip], #-176	; 0xffffff50
     618:	2c2c2c2c 	stccs	12, cr2, [ip], #-176	; 0xffffff50
     61c:	2c2c2cb9 	stccs	12, cr2, [ip], #-740	; 0xfffffd1c
     620:	2c2c2c2c 	stccs	12, cr2, [ip], #-176	; 0xffffff50
     624:	2c2c2c2c 	stccs	12, cr2, [ip], #-176	; 0xffffff50
     628:	2c2c2c2c 	stccs	12, cr2, [ip], #-176	; 0xffffff50
     62c:	2c2c2c2c 	stccs	12, cr2, [ip], #-176	; 0xffffff50
     630:	2c2c2c2c 	stccs	12, cr2, [ip], #-176	; 0xffffff50
     634:	2c2c2c2c 	stccs	12, cr2, [ip], #-176	; 0xffffff50
     638:	2c2c2c2c 	stccs	12, cr2, [ip], #-176	; 0xffffff50
     63c:	2c2c2c2c 	stccs	12, cr2, [ip], #-176	; 0xffffff50
     640:	2c2c2c49 	stccs	12, cr2, [ip], #-292	; 0xfffffedc
     644:	2c2c2c2c 	stccs	12, cr2, [ip], #-176	; 0xffffff50
     648:	2c2c2c2c 	stccs	12, cr2, [ip], #-176	; 0xffffff50
     64c:	2c2c2c2c 	stccs	12, cr2, [ip], #-176	; 0xffffff50
     650:	2c2c2c2c 	stccs	12, cr2, [ip], #-176	; 0xffffff50
     654:	2c2c2c2c 	stccs	12, cr2, [ip], #-176	; 0xffffff50
     658:	2c2c9d2c 	stccs	13, cr9, [ip], #-176	; 0xffffff50
     65c:	2c2c2c65 	stccs	12, cr2, [ip], #-404	; 0xfffffe6c
     660:	2c2c652c 	cfstr32cs	mvfx6, [ip], #-176	; 0xffffff50
     664:	2c2c2c2c 	stccs	12, cr2, [ip], #-176	; 0xffffff50
     668:	2c2c2c2c 	stccs	12, cr2, [ip], #-176	; 0xffffff50
     66c:	2c2c2c2c 	stccs	12, cr2, [ip], #-176	; 0xffffff50
     670:	2c2c2c2c 	stccs	12, cr2, [ip], #-176	; 0xffffff50
     674:	9d2c2c2c 	stcls	12, cr2, [ip, #-176]!	; 0xffffff50
     678:	2c652c2c 	stclcs	12, cr2, [r5], #-176	; 0xffffff50
     67c:	2c2c2c2c 	stccs	12, cr2, [ip], #-176	; 0xffffff50
     680:	2c9d2c2c 	ldccs	12, cr2, [sp], {44}	; 0x2c
     684:	2c2c492c 			; <UNDEFINED> instruction: 0x2c2c492c
     688:	2c2c2c2c 	stccs	12, cr2, [ip], #-176	; 0xffffff50
     68c:	2c2c9e2c 	stccs	14, cr9, [ip], #-176	; 0xffffff50
     690:	2c2c2c2c 	stccs	12, cr2, [ip], #-176	; 0xffffff50
     694:	2cd62c2c 	ldclcs	12, cr2, [r6], {44}	; 0x2c
     698:	2c2c2c2c 	stccs	12, cr2, [ip], #-176	; 0xffffff50
     69c:	2c2c2c2d 	stccs	12, cr2, [ip], #-180	; 0xffffff4c
     6a0:	2c2c2c2c 	stccs	12, cr2, [ip], #-176	; 0xffffff50
     6a4:	2c2c2c2d 	stccs	12, cr2, [ip], #-180	; 0xffffff4c
     6a8:	2c2c2c2c 	stccs	12, cr2, [ip], #-176	; 0xffffff50
     6ac:	2c2c2c2c 	stccs	12, cr2, [ip], #-176	; 0xffffff50
     6b0:	2c2c2c2c 	stccs	12, cr2, [ip], #-176	; 0xffffff50
     6b4:	2c652c2c 	stclcs	12, cr2, [r5], #-176	; 0xffffff50
     6b8:	2c652c2c 	stclcs	12, cr2, [r5], #-176	; 0xffffff50
     6bc:	2c652c2c 	stclcs	12, cr2, [r5], #-176	; 0xffffff50
     6c0:	2c652c2c 	stclcs	12, cr2, [r5], #-176	; 0xffffff50
     6c4:	2c652c2c 	stclcs	12, cr2, [r5], #-176	; 0xffffff50
     6c8:	2c812c2c 	stccs	12, cr2, [r1], {44}	; 0x2c
     6cc:	2c652c2c 	stclcs	12, cr2, [r5], #-176	; 0xffffff50
     6d0:	2c2c2c2c 	stccs	12, cr2, [ip], #-176	; 0xffffff50
     6d4:	2c2c2c2c 	stccs	12, cr2, [ip], #-176	; 0xffffff50
     6d8:	2c2c2c2c 	stccs	12, cr2, [ip], #-176	; 0xffffff50
     6dc:	2c2c2c2c 	stccs	12, cr2, [ip], #-176	; 0xffffff50
     6e0:	2c2c2c2c 	stccs	12, cr2, [ip], #-176	; 0xffffff50
     6e4:	2c2c2c2c 	stccs	12, cr2, [ip], #-176	; 0xffffff50
     6e8:	2c2c2c2c 	stccs	12, cr2, [ip], #-176	; 0xffffff50
     6ec:	2c2c2c2c 	stccs	12, cr2, [ip], #-176	; 0xffffff50
     6f0:	2c2c2c2c 	stccs	12, cr2, [ip], #-176	; 0xffffff50
     6f4:	2c2c2c2c 	stccs	12, cr2, [ip], #-176	; 0xffffff50
     6f8:	2c2c2c2c 	stccs	12, cr2, [ip], #-176	; 0xffffff50
     6fc:	2c2c2c2c 	stccs	12, cr2, [ip], #-176	; 0xffffff50
     700:	2c2c2c2c 	stccs	12, cr2, [ip], #-176	; 0xffffff50
     704:	2c2c2c2c 	stccs	12, cr2, [ip], #-176	; 0xffffff50
     708:	2c2c2c2c 	stccs	12, cr2, [ip], #-176	; 0xffffff50
     70c:	2c2c2c2c 	stccs	12, cr2, [ip], #-176	; 0xffffff50
     710:	2c2c2c2c 	stccs	12, cr2, [ip], #-176	; 0xffffff50
     714:	2c2c2c2c 	stccs	12, cr2, [ip], #-176	; 0xffffff50
     718:	2c2c2c2c 	stccs	12, cr2, [ip], #-176	; 0xffffff50
     71c:	2c2c2c2c 	stccs	12, cr2, [ip], #-176	; 0xffffff50
     720:	2c2c2c2c 	stccs	12, cr2, [ip], #-176	; 0xffffff50
     724:	2c2c2c2c 	stccs	12, cr2, [ip], #-176	; 0xffffff50
     728:	2c2c2c2c 	stccs	12, cr2, [ip], #-176	; 0xffffff50
     72c:	2c2c2c2c 	stccs	12, cr2, [ip], #-176	; 0xffffff50
     730:	2c2c2c2c 	stccs	12, cr2, [ip], #-176	; 0xffffff50
     734:	2e2c2c2c 	cdpcs	12, 2, cr2, cr12, cr12, {1}
     738:	2c2c2c2c 	stccs	12, cr2, [ip], #-176	; 0xffffff50
     73c:	2c2c2c2c 	stccs	12, cr2, [ip], #-176	; 0xffffff50
     740:	2d2c2c2c 	stccs	12, cr2, [ip, #-176]!	; 0xffffff50
     744:	2c2c2c2c 	stccs	12, cr2, [ip], #-176	; 0xffffff50
     748:	2c9d2c2c 	ldccs	12, cr2, [sp], {44}	; 0x2c
     74c:	2c2c812c 	stfcsd	f0, [ip], #-176	; 0xffffff50
     750:	2c2c2c2c 	stccs	12, cr2, [ip], #-176	; 0xffffff50
     754:	2c2c2c2c 	stccs	12, cr2, [ip], #-176	; 0xffffff50
     758:	2c2c2c2c 	stccs	12, cr2, [ip], #-176	; 0xffffff50
     75c:	2c2c2c2c 	stccs	12, cr2, [ip], #-176	; 0xffffff50
     760:	2c2c2c2c 	stccs	12, cr2, [ip], #-176	; 0xffffff50
     764:	2c2c2c2c 	stccs	12, cr2, [ip], #-176	; 0xffffff50
     768:	2c2c2c2c 	stccs	12, cr2, [ip], #-176	; 0xffffff50
     76c:	2c2c2c2c 	stccs	12, cr2, [ip], #-176	; 0xffffff50
     770:	2c2c2c2c 	stccs	12, cr2, [ip], #-176	; 0xffffff50
     774:	2c2c2c2c 	stccs	12, cr2, [ip], #-176	; 0xffffff50
     778:	04042c2c 	streq	r2, [r4], #-3116	; 0xfffff3d4
     77c:	0278bb03 	rsbseq	fp, r8, #3072	; 0xc00
     780:	2c2c0102 	stfcss	f0, [ip], #-8
     784:	2c2c2c2c 	stccs	12, cr2, [ip], #-176	; 0xffffff50
     788:	2c2c2c2c 	stccs	12, cr2, [ip], #-176	; 0xffffff50
     78c:	2c2c2c2c 	stccs	12, cr2, [ip], #-176	; 0xffffff50
     790:	2c2c2c2c 	stccs	12, cr2, [ip], #-176	; 0xffffff50
     794:	2c2c2c2c 	stccs	12, cr2, [ip], #-176	; 0xffffff50
     798:	2c2c2c2c 	stccs	12, cr2, [ip], #-176	; 0xffffff50
     79c:	2c2c2c2c 	stccs	12, cr2, [ip], #-176	; 0xffffff50
     7a0:	2c2c2c2c 	stccs	12, cr2, [ip], #-176	; 0xffffff50
     7a4:	2c2c2c2c 	stccs	12, cr2, [ip], #-176	; 0xffffff50
     7a8:	2c2c2c2c 	stccs	12, cr2, [ip], #-176	; 0xffffff50
     7ac:	2c2c2c2c 	stccs	12, cr2, [ip], #-176	; 0xffffff50
     7b0:	2c2c2c2c 	stccs	12, cr2, [ip], #-176	; 0xffffff50
     7b4:	2c2c2c2c 	stccs	12, cr2, [ip], #-176	; 0xffffff50
     7b8:	2c2c2c2c 	stccs	12, cr2, [ip], #-176	; 0xffffff50
     7bc:	2c2c2c2c 	stccs	12, cr2, [ip], #-176	; 0xffffff50
     7c0:	2c2c2c2c 	stccs	12, cr2, [ip], #-176	; 0xffffff50
     7c4:	2c2c2c2c 	stccs	12, cr2, [ip], #-176	; 0xffffff50
     7c8:	2c2c2c2c 	stccs	12, cr2, [ip], #-176	; 0xffffff50
     7cc:	2c2c2c2c 	stccs	12, cr2, [ip], #-176	; 0xffffff50
     7d0:	2c2c2c2c 	stccs	12, cr2, [ip], #-176	; 0xffffff50
     7d4:	2c2c2c2c 	stccs	12, cr2, [ip], #-176	; 0xffffff50
     7d8:	2c2c2e2c 	stccs	14, cr2, [ip], #-176	; 0xffffff50
     7dc:	2c2c2c2c 	stccs	12, cr2, [ip], #-176	; 0xffffff50
     7e0:	2c2c2c2c 	stccs	12, cr2, [ip], #-176	; 0xffffff50
     7e4:	2c2c2c2c 	stccs	12, cr2, [ip], #-176	; 0xffffff50
     7e8:	2c2c2c2c 	stccs	12, cr2, [ip], #-176	; 0xffffff50
     7ec:	2c2c2c2c 	stccs	12, cr2, [ip], #-176	; 0xffffff50
     7f0:	2c2c2c2c 	stccs	12, cr2, [ip], #-176	; 0xffffff50
     7f4:	2c2c2c2c 	stccs	12, cr2, [ip], #-176	; 0xffffff50
     7f8:	2c2c2c2c 	stccs	12, cr2, [ip], #-176	; 0xffffff50
     7fc:	2c2c2c2c 	stccs	12, cr2, [ip], #-176	; 0xffffff50
     800:	2c2c2c2c 	stccs	12, cr2, [ip], #-176	; 0xffffff50
     804:	2c2c2c2c 	stccs	12, cr2, [ip], #-176	; 0xffffff50
     808:	2c2c2c2c 	stccs	12, cr2, [ip], #-176	; 0xffffff50
     80c:	2c2c2c2c 	stccs	12, cr2, [ip], #-176	; 0xffffff50
     810:	2c2c2c2c 	stccs	12, cr2, [ip], #-176	; 0xffffff50
     814:	2c2c2c2d 	stccs	12, cr2, [ip], #-180	; 0xffffff4c
     818:	2c2c2c2c 	stccs	12, cr2, [ip], #-176	; 0xffffff50
     81c:	2c2c2c2c 	stccs	12, cr2, [ip], #-176	; 0xffffff50
     820:	2c2c2c2c 	stccs	12, cr2, [ip], #-176	; 0xffffff50
     824:	2c2c2c2c 	stccs	12, cr2, [ip], #-176	; 0xffffff50
     828:	2c2c2c2c 	stccs	12, cr2, [ip], #-176	; 0xffffff50
     82c:	2c2c2c2c 	stccs	12, cr2, [ip], #-176	; 0xffffff50
     830:	2c2c2c2c 	stccs	12, cr2, [ip], #-176	; 0xffffff50
     834:	2c2c2c2c 	stccs	12, cr2, [ip], #-176	; 0xffffff50
     838:	2c2c2c2c 	stccs	12, cr2, [ip], #-176	; 0xffffff50
     83c:	2c2c2c2c 	stccs	12, cr2, [ip], #-176	; 0xffffff50
     840:	2c2c2c2c 	stccs	12, cr2, [ip], #-176	; 0xffffff50
     844:	2c2c2c2c 	stccs	12, cr2, [ip], #-176	; 0xffffff50
     848:	2c2c2c2c 	stccs	12, cr2, [ip], #-176	; 0xffffff50
     84c:	2c2c2c2c 	stccs	12, cr2, [ip], #-176	; 0xffffff50
     850:	2c2c2c2c 	stccs	12, cr2, [ip], #-176	; 0xffffff50
     854:	2c2c2c2c 	stccs	12, cr2, [ip], #-176	; 0xffffff50
     858:	2c2c2c2c 	stccs	12, cr2, [ip], #-176	; 0xffffff50
     85c:	2c2c2c2c 	stccs	12, cr2, [ip], #-176	; 0xffffff50
     860:	2c2c2c2c 	stccs	12, cr2, [ip], #-176	; 0xffffff50
     864:	2c2c2c2c 	stccs	12, cr2, [ip], #-176	; 0xffffff50
     868:	2c2c2c2c 	stccs	12, cr2, [ip], #-176	; 0xffffff50
     86c:	2c2c2c2c 	stccs	12, cr2, [ip], #-176	; 0xffffff50
     870:	2c2c2c2c 	stccs	12, cr2, [ip], #-176	; 0xffffff50
     874:	2c2c2c2c 	stccs	12, cr2, [ip], #-176	; 0xffffff50
     878:	2c2c2c2c 	stccs	12, cr2, [ip], #-176	; 0xffffff50
     87c:	2c2c2c2c 	stccs	12, cr2, [ip], #-176	; 0xffffff50
     880:	2c2c2c2c 	stccs	12, cr2, [ip], #-176	; 0xffffff50
     884:	2c2c2c2c 	stccs	12, cr2, [ip], #-176	; 0xffffff50
     888:	2c2c2c2c 	stccs	12, cr2, [ip], #-176	; 0xffffff50
     88c:	2c2c2c2c 	stccs	12, cr2, [ip], #-176	; 0xffffff50
     890:	2c2c2c2c 	stccs	12, cr2, [ip], #-176	; 0xffffff50
     894:	ee030104 	adfs	f0, f3, f4
     898:	0102027e 	tsteq	r2, lr, ror r2
     89c:	94030404 	strls	r0, [r3], #-1028	; 0xfffffbfc
     8a0:	01020201 	tsteq	r2, r1, lsl #4
     8a4:	2c2c2c2c 	stccs	12, cr2, [ip], #-176	; 0xffffff50
     8a8:	2c2c2c2c 	stccs	12, cr2, [ip], #-176	; 0xffffff50
     8ac:	2c2c2c2c 	stccs	12, cr2, [ip], #-176	; 0xffffff50
     8b0:	2c2c2c2c 	stccs	12, cr2, [ip], #-176	; 0xffffff50
     8b4:	2c2c2c2c 	stccs	12, cr2, [ip], #-176	; 0xffffff50
     8b8:	2c2c2c2c 	stccs	12, cr2, [ip], #-176	; 0xffffff50
     8bc:	2c2c2c2c 	stccs	12, cr2, [ip], #-176	; 0xffffff50
     8c0:	2c2c2c2c 	stccs	12, cr2, [ip], #-176	; 0xffffff50
     8c4:	2c2c2c2c 	stccs	12, cr2, [ip], #-176	; 0xffffff50
     8c8:	2c2c2c2c 	stccs	12, cr2, [ip], #-176	; 0xffffff50
     8cc:	2c2c2c2c 	stccs	12, cr2, [ip], #-176	; 0xffffff50
     8d0:	2c2c2c2c 	stccs	12, cr2, [ip], #-176	; 0xffffff50
     8d4:	2c2c2c2c 	stccs	12, cr2, [ip], #-176	; 0xffffff50
     8d8:	2c2c2c2c 	stccs	12, cr2, [ip], #-176	; 0xffffff50
     8dc:	2c2c2c2c 	stccs	12, cr2, [ip], #-176	; 0xffffff50
     8e0:	2c2c2c2c 	stccs	12, cr2, [ip], #-176	; 0xffffff50
     8e4:	2c2c2c2c 	stccs	12, cr2, [ip], #-176	; 0xffffff50
     8e8:	2c2c2c2c 	stccs	12, cr2, [ip], #-176	; 0xffffff50
     8ec:	2c2c2c2c 	stccs	12, cr2, [ip], #-176	; 0xffffff50
     8f0:	2c2c2c2c 	stccs	12, cr2, [ip], #-176	; 0xffffff50
     8f4:	2c2c2c2c 	stccs	12, cr2, [ip], #-176	; 0xffffff50
     8f8:	2c2c2c2c 	stccs	12, cr2, [ip], #-176	; 0xffffff50
     8fc:	2c2c2c2c 	stccs	12, cr2, [ip], #-176	; 0xffffff50
     900:	2c2c2c2d 	stccs	12, cr2, [ip], #-180	; 0xffffff4c
     904:	2c2c2c2c 	stccs	12, cr2, [ip], #-176	; 0xffffff50
     908:	2c2c2c2c 	stccs	12, cr2, [ip], #-176	; 0xffffff50
     90c:	2c2c2c2c 	stccs	12, cr2, [ip], #-176	; 0xffffff50
     910:	2c2c2c2c 	stccs	12, cr2, [ip], #-176	; 0xffffff50
     914:	2c2c2c2c 	stccs	12, cr2, [ip], #-176	; 0xffffff50
     918:	2c2c2c2c 	stccs	12, cr2, [ip], #-176	; 0xffffff50
     91c:	2c2c2c2c 	stccs	12, cr2, [ip], #-176	; 0xffffff50
     920:	2c2c2c2c 	stccs	12, cr2, [ip], #-176	; 0xffffff50
     924:	2c2c2c2c 	stccs	12, cr2, [ip], #-176	; 0xffffff50
     928:	2c2c2c2c 	stccs	12, cr2, [ip], #-176	; 0xffffff50
     92c:	2c2c2d2c 	stccs	13, cr2, [ip], #-176	; 0xffffff50
     930:	2c2c2c2c 	stccs	12, cr2, [ip], #-176	; 0xffffff50
     934:	2c2c2c2c 	stccs	12, cr2, [ip], #-176	; 0xffffff50
     938:	2c2c2c2c 	stccs	12, cr2, [ip], #-176	; 0xffffff50
     93c:	2c2c2c2c 	stccs	12, cr2, [ip], #-176	; 0xffffff50
     940:	2c2c2c2c 	stccs	12, cr2, [ip], #-176	; 0xffffff50
     944:	2c2e2c2c 	stccs	12, cr2, [lr], #-176	; 0xffffff50
     948:	2c2c2c2c 	stccs	12, cr2, [ip], #-176	; 0xffffff50
     94c:	2c2c2c2c 	stccs	12, cr2, [ip], #-176	; 0xffffff50
     950:	2c2c2c2c 	stccs	12, cr2, [ip], #-176	; 0xffffff50
     954:	2c2c2c2c 	stccs	12, cr2, [ip], #-176	; 0xffffff50
     958:	2c2c2c2c 	stccs	12, cr2, [ip], #-176	; 0xffffff50
     95c:	2c2c2c2c 	stccs	12, cr2, [ip], #-176	; 0xffffff50
     960:	2c2c2c2c 	stccs	12, cr2, [ip], #-176	; 0xffffff50
     964:	2c2c2c2c 	stccs	12, cr2, [ip], #-176	; 0xffffff50
     968:	2c2c2c2c 	stccs	12, cr2, [ip], #-176	; 0xffffff50
     96c:	2c2c2c2c 	stccs	12, cr2, [ip], #-176	; 0xffffff50
     970:	2c2c2c2c 	stccs	12, cr2, [ip], #-176	; 0xffffff50
     974:	2c2c2c2c 	stccs	12, cr2, [ip], #-176	; 0xffffff50
     978:	2c2c2c2c 	stccs	12, cr2, [ip], #-176	; 0xffffff50
     97c:	2c2c2c2c 	stccs	12, cr2, [ip], #-176	; 0xffffff50
     980:	2c2c2c2c 	stccs	12, cr2, [ip], #-176	; 0xffffff50
     984:	2c2c2c2c 	stccs	12, cr2, [ip], #-176	; 0xffffff50
     988:	2c2c2c2c 	stccs	12, cr2, [ip], #-176	; 0xffffff50
     98c:	2c2c2c2c 	stccs	12, cr2, [ip], #-176	; 0xffffff50
     990:	2c2c2c2c 	stccs	12, cr2, [ip], #-176	; 0xffffff50
     994:	2c2c2c2c 	stccs	12, cr2, [ip], #-176	; 0xffffff50
     998:	2c2c2c2c 	stccs	12, cr2, [ip], #-176	; 0xffffff50
     99c:	2c2c2c2c 	stccs	12, cr2, [ip], #-176	; 0xffffff50
     9a0:	2c2c2c2c 	stccs	12, cr2, [ip], #-176	; 0xffffff50
     9a4:	2c2c2c2c 	stccs	12, cr2, [ip], #-176	; 0xffffff50
     9a8:	2c2c2c2c 	stccs	12, cr2, [ip], #-176	; 0xffffff50
     9ac:	2c2c2c2c 	stccs	12, cr2, [ip], #-176	; 0xffffff50
     9b0:	2c2c2c2c 	stccs	12, cr2, [ip], #-176	; 0xffffff50
     9b4:	2c2c2c2c 	stccs	12, cr2, [ip], #-176	; 0xffffff50
     9b8:	2c2c2c2c 	stccs	12, cr2, [ip], #-176	; 0xffffff50
     9bc:	2c2c2c2c 	stccs	12, cr2, [ip], #-176	; 0xffffff50
     9c0:	2c2c2c2c 	stccs	12, cr2, [ip], #-176	; 0xffffff50
     9c4:	2c2c2c2c 	stccs	12, cr2, [ip], #-176	; 0xffffff50
     9c8:	2c2c2c2c 	stccs	12, cr2, [ip], #-176	; 0xffffff50
     9cc:	2c2c2c2c 	stccs	12, cr2, [ip], #-176	; 0xffffff50
     9d0:	2c2c2c2c 	stccs	12, cr2, [ip], #-176	; 0xffffff50
     9d4:	2c2c2c2c 	stccs	12, cr2, [ip], #-176	; 0xffffff50
     9d8:	2c2c2c2c 	stccs	12, cr2, [ip], #-176	; 0xffffff50
     9dc:	2c2c2c2c 	stccs	12, cr2, [ip], #-176	; 0xffffff50
     9e0:	2c2c2c2c 	stccs	12, cr2, [ip], #-176	; 0xffffff50
     9e4:	2c2c2c2c 	stccs	12, cr2, [ip], #-176	; 0xffffff50
     9e8:	2c2c2c2c 	stccs	12, cr2, [ip], #-176	; 0xffffff50
     9ec:	2c2c2c2c 	stccs	12, cr2, [ip], #-176	; 0xffffff50
     9f0:	2c2c2c2c 	stccs	12, cr2, [ip], #-176	; 0xffffff50
     9f4:	2c2c2c2c 	stccs	12, cr2, [ip], #-176	; 0xffffff50
     9f8:	2c2c2c2c 	stccs	12, cr2, [ip], #-176	; 0xffffff50
     9fc:	2c2c2c2c 	stccs	12, cr2, [ip], #-176	; 0xffffff50
     a00:	2c2c2c2c 	stccs	12, cr2, [ip], #-176	; 0xffffff50
     a04:	01042c2c 	tsteq	r4, ip, lsr #24
     a08:	027c8603 	rsbseq	r8, ip, #3145728	; 0x300000
     a0c:	04040102 	streq	r0, [r4], #-258	; 0xfffffefe
     a10:	0203fc03 	andeq	pc, r3, #768	; 0x300
     a14:	2c2c0102 	stfcss	f0, [ip], #-8
     a18:	2c2c2c2c 	stccs	12, cr2, [ip], #-176	; 0xffffff50
     a1c:	2c2c2c2c 	stccs	12, cr2, [ip], #-176	; 0xffffff50
     a20:	2c2c2c2c 	stccs	12, cr2, [ip], #-176	; 0xffffff50
     a24:	2c2c2c2c 	stccs	12, cr2, [ip], #-176	; 0xffffff50
     a28:	2c2c2c2c 	stccs	12, cr2, [ip], #-176	; 0xffffff50
     a2c:	2c2c2c2c 	stccs	12, cr2, [ip], #-176	; 0xffffff50
     a30:	2c2c2c2c 	stccs	12, cr2, [ip], #-176	; 0xffffff50
     a34:	2c2c2c2c 	stccs	12, cr2, [ip], #-176	; 0xffffff50
     a38:	2c2c2c2c 	stccs	12, cr2, [ip], #-176	; 0xffffff50
     a3c:	2c2c2c2c 	stccs	12, cr2, [ip], #-176	; 0xffffff50
     a40:	2c2c2c2c 	stccs	12, cr2, [ip], #-176	; 0xffffff50
     a44:	042c2c2c 	strteq	r2, [ip], #-3116	; 0xfffff3d4
     a48:	7bd30301 	blvc	ff4c1654 <.debug_line+0xff4c1654>
     a4c:	04010202 	streq	r0, [r1], #-514	; 0xfffffdfe
     a50:	04af0304 	strteq	r0, [pc], #772	; a58 <.debug_line+0xa58>
     a54:	2c010202 	sfmcs	f0, 4, [r1], {2}
     a58:	01042c2c 	tsteq	r4, ip, lsr #24
     a5c:	027bce03 	rsbseq	ip, fp, #3, 28	; 0x30
     a60:	04040102 	streq	r0, [r4], #-258	; 0xfffffefe
     a64:	0204b403 	andeq	fp, r4, #50331648	; 0x3000000
     a68:	2c2c0102 	stfcss	f0, [ip], #-8
     a6c:	2c2c2c2c 	stccs	12, cr2, [ip], #-176	; 0xffffff50
     a70:	2c2c2c2c 	stccs	12, cr2, [ip], #-176	; 0xffffff50
     a74:	2c2c2c2c 	stccs	12, cr2, [ip], #-176	; 0xffffff50
     a78:	2c2c2c2c 	stccs	12, cr2, [ip], #-176	; 0xffffff50
     a7c:	2c2c2c2c 	stccs	12, cr2, [ip], #-176	; 0xffffff50
     a80:	2c2c2c2c 	stccs	12, cr2, [ip], #-176	; 0xffffff50
     a84:	2c2c2c2c 	stccs	12, cr2, [ip], #-176	; 0xffffff50
     a88:	2c2c2c2c 	stccs	12, cr2, [ip], #-176	; 0xffffff50
     a8c:	2c2c2c2c 	stccs	12, cr2, [ip], #-176	; 0xffffff50
     a90:	2c2c2c2c 	stccs	12, cr2, [ip], #-176	; 0xffffff50
     a94:	2c2c2c2c 	stccs	12, cr2, [ip], #-176	; 0xffffff50
     a98:	2c2c2c2c 	stccs	12, cr2, [ip], #-176	; 0xffffff50
     a9c:	2c2c2c2c 	stccs	12, cr2, [ip], #-176	; 0xffffff50
     aa0:	2c2c2c2c 	stccs	12, cr2, [ip], #-176	; 0xffffff50
     aa4:	2c2c2c2c 	stccs	12, cr2, [ip], #-176	; 0xffffff50
     aa8:	2c2c2c2c 	stccs	12, cr2, [ip], #-176	; 0xffffff50
     aac:	2c2c2c2c 	stccs	12, cr2, [ip], #-176	; 0xffffff50
     ab0:	2c2c2c2c 	stccs	12, cr2, [ip], #-176	; 0xffffff50
     ab4:	2c2c2c2c 	stccs	12, cr2, [ip], #-176	; 0xffffff50
     ab8:	2c2c2c2c 	stccs	12, cr2, [ip], #-176	; 0xffffff50
     abc:	2c2c2c2c 	stccs	12, cr2, [ip], #-176	; 0xffffff50
     ac0:	2c2c2c2c 	stccs	12, cr2, [ip], #-176	; 0xffffff50
     ac4:	2c2c2c2c 	stccs	12, cr2, [ip], #-176	; 0xffffff50
     ac8:	2c2c2c2c 	stccs	12, cr2, [ip], #-176	; 0xffffff50
     acc:	2c2c2c2c 	stccs	12, cr2, [ip], #-176	; 0xffffff50
     ad0:	2c2c2c2c 	stccs	12, cr2, [ip], #-176	; 0xffffff50
     ad4:	2c2c2c2c 	stccs	12, cr2, [ip], #-176	; 0xffffff50
     ad8:	2c2c2c2c 	stccs	12, cr2, [ip], #-176	; 0xffffff50
     adc:	2c2c2c2c 	stccs	12, cr2, [ip], #-176	; 0xffffff50
     ae0:	2c2c2c2c 	stccs	12, cr2, [ip], #-176	; 0xffffff50
     ae4:	2c2c2c2c 	stccs	12, cr2, [ip], #-176	; 0xffffff50
     ae8:	2c2c2c2c 	stccs	12, cr2, [ip], #-176	; 0xffffff50
     aec:	2c2c2c2c 	stccs	12, cr2, [ip], #-176	; 0xffffff50
     af0:	2c2c2c2c 	stccs	12, cr2, [ip], #-176	; 0xffffff50
     af4:	2c2c2c2c 	stccs	12, cr2, [ip], #-176	; 0xffffff50
     af8:	2c2c2c2c 	stccs	12, cr2, [ip], #-176	; 0xffffff50
     afc:	2c2c2c2c 	stccs	12, cr2, [ip], #-176	; 0xffffff50
     b00:	2c2c2c2c 	stccs	12, cr2, [ip], #-176	; 0xffffff50
     b04:	2c2c2c2c 	stccs	12, cr2, [ip], #-176	; 0xffffff50
     b08:	2c2c2c2c 	stccs	12, cr2, [ip], #-176	; 0xffffff50
     b0c:	2c2c2c2c 	stccs	12, cr2, [ip], #-176	; 0xffffff50
     b10:	2c2c2c2c 	stccs	12, cr2, [ip], #-176	; 0xffffff50
     b14:	2c2c2c2c 	stccs	12, cr2, [ip], #-176	; 0xffffff50
     b18:	2c2c2c2c 	stccs	12, cr2, [ip], #-176	; 0xffffff50
     b1c:	2c2c2c2c 	stccs	12, cr2, [ip], #-176	; 0xffffff50
     b20:	2c2c2c2c 	stccs	12, cr2, [ip], #-176	; 0xffffff50
     b24:	2c2c2c2c 	stccs	12, cr2, [ip], #-176	; 0xffffff50
     b28:	2c2c2c2c 	stccs	12, cr2, [ip], #-176	; 0xffffff50
     b2c:	2c2c2c2c 	stccs	12, cr2, [ip], #-176	; 0xffffff50
     b30:	2c2c2c2c 	stccs	12, cr2, [ip], #-176	; 0xffffff50
     b34:	2c2c2c2c 	stccs	12, cr2, [ip], #-176	; 0xffffff50
     b38:	2c2c2c2c 	stccs	12, cr2, [ip], #-176	; 0xffffff50
     b3c:	2c2c2c2c 	stccs	12, cr2, [ip], #-176	; 0xffffff50
     b40:	2c2c2c2c 	stccs	12, cr2, [ip], #-176	; 0xffffff50
     b44:	2c2c2c2c 	stccs	12, cr2, [ip], #-176	; 0xffffff50
     b48:	2c2c2c2c 	stccs	12, cr2, [ip], #-176	; 0xffffff50
     b4c:	2c2c2c2c 	stccs	12, cr2, [ip], #-176	; 0xffffff50
     b50:	2c2c2c2c 	stccs	12, cr2, [ip], #-176	; 0xffffff50
     b54:	2c2c2c2c 	stccs	12, cr2, [ip], #-176	; 0xffffff50
     b58:	2c2c2c2c 	stccs	12, cr2, [ip], #-176	; 0xffffff50
     b5c:	2c2c2c2c 	stccs	12, cr2, [ip], #-176	; 0xffffff50
     b60:	2c2c2c2c 	stccs	12, cr2, [ip], #-176	; 0xffffff50
     b64:	2c2c2c2c 	stccs	12, cr2, [ip], #-176	; 0xffffff50
     b68:	2c2c2c2c 	stccs	12, cr2, [ip], #-176	; 0xffffff50
     b6c:	2c2c2c2c 	stccs	12, cr2, [ip], #-176	; 0xffffff50
     b70:	2c2c2c2c 	stccs	12, cr2, [ip], #-176	; 0xffffff50
     b74:	2c2c2c2c 	stccs	12, cr2, [ip], #-176	; 0xffffff50
     b78:	2c2c2c2c 	stccs	12, cr2, [ip], #-176	; 0xffffff50
     b7c:	2c2c2c2c 	stccs	12, cr2, [ip], #-176	; 0xffffff50
     b80:	2c2c2c2c 	stccs	12, cr2, [ip], #-176	; 0xffffff50
     b84:	2c2c2c2c 	stccs	12, cr2, [ip], #-176	; 0xffffff50
     b88:	2c2c2c2c 	stccs	12, cr2, [ip], #-176	; 0xffffff50
     b8c:	2c2c2c2c 	stccs	12, cr2, [ip], #-176	; 0xffffff50
     b90:	2c2c2c2c 	stccs	12, cr2, [ip], #-176	; 0xffffff50
     b94:	2c2c2c2c 	stccs	12, cr2, [ip], #-176	; 0xffffff50
     b98:	2c2c2c2c 	stccs	12, cr2, [ip], #-176	; 0xffffff50
     b9c:	2c2c2c2c 	stccs	12, cr2, [ip], #-176	; 0xffffff50
     ba0:	2c2c2c2c 	stccs	12, cr2, [ip], #-176	; 0xffffff50
     ba4:	2c2d2f2c 	stccs	15, cr2, [sp], #-176	; 0xffffff50
     ba8:	2c2c2c2c 	stccs	12, cr2, [ip], #-176	; 0xffffff50
     bac:	2c2c2c2c 	stccs	12, cr2, [ip], #-176	; 0xffffff50
     bb0:	2c2c2c2c 	stccs	12, cr2, [ip], #-176	; 0xffffff50
     bb4:	2c2c2c2c 	stccs	12, cr2, [ip], #-176	; 0xffffff50
     bb8:	2c2c2c2c 	stccs	12, cr2, [ip], #-176	; 0xffffff50
     bbc:	302c2c2c 	eorcc	r2, ip, ip, lsr #24
     bc0:	2c2c2c2c 	stccs	12, cr2, [ip], #-176	; 0xffffff50
     bc4:	2c2c2c2c 	stccs	12, cr2, [ip], #-176	; 0xffffff50
     bc8:	2c2c2c2c 	stccs	12, cr2, [ip], #-176	; 0xffffff50
     bcc:	2c2c2c2c 	stccs	12, cr2, [ip], #-176	; 0xffffff50
     bd0:	2c2c2c2c 	stccs	12, cr2, [ip], #-176	; 0xffffff50
     bd4:	2c2c2c2c 	stccs	12, cr2, [ip], #-176	; 0xffffff50
     bd8:	2c2c2c2c 	stccs	12, cr2, [ip], #-176	; 0xffffff50
     bdc:	2c2c2c2c 	stccs	12, cr2, [ip], #-176	; 0xffffff50
     be0:	2c2c2c2c 	stccs	12, cr2, [ip], #-176	; 0xffffff50
     be4:	2c2c2c2c 	stccs	12, cr2, [ip], #-176	; 0xffffff50
     be8:	2c2c2c2c 	stccs	12, cr2, [ip], #-176	; 0xffffff50
     bec:	2c2c2c2c 	stccs	12, cr2, [ip], #-176	; 0xffffff50
     bf0:	2c2c2c2c 	stccs	12, cr2, [ip], #-176	; 0xffffff50
     bf4:	2c2c2c2c 	stccs	12, cr2, [ip], #-176	; 0xffffff50
     bf8:	2c2c2c2c 	stccs	12, cr2, [ip], #-176	; 0xffffff50
     bfc:	2c2c2c2c 	stccs	12, cr2, [ip], #-176	; 0xffffff50
     c00:	2c2c2c2c 	stccs	12, cr2, [ip], #-176	; 0xffffff50
     c04:	2c2c2c2c 	stccs	12, cr2, [ip], #-176	; 0xffffff50
     c08:	2c2c2c2c 	stccs	12, cr2, [ip], #-176	; 0xffffff50
     c0c:	2c2c2c2c 	stccs	12, cr2, [ip], #-176	; 0xffffff50
     c10:	2c2c2c2c 	stccs	12, cr2, [ip], #-176	; 0xffffff50
     c14:	2c2c2c2c 	stccs	12, cr2, [ip], #-176	; 0xffffff50
     c18:	2c2c2c2c 	stccs	12, cr2, [ip], #-176	; 0xffffff50
     c1c:	2c2c2c2c 	stccs	12, cr2, [ip], #-176	; 0xffffff50
     c20:	2c2c2c2c 	stccs	12, cr2, [ip], #-176	; 0xffffff50
     c24:	2c2c2c2c 	stccs	12, cr2, [ip], #-176	; 0xffffff50
     c28:	2c2c2c2c 	stccs	12, cr2, [ip], #-176	; 0xffffff50
     c2c:	2c2c2c2c 	stccs	12, cr2, [ip], #-176	; 0xffffff50
     c30:	2c2c2c2c 	stccs	12, cr2, [ip], #-176	; 0xffffff50
     c34:	2c2c2c2c 	stccs	12, cr2, [ip], #-176	; 0xffffff50
     c38:	2c2c2c2c 	stccs	12, cr2, [ip], #-176	; 0xffffff50
     c3c:	2c2c2c2c 	stccs	12, cr2, [ip], #-176	; 0xffffff50
     c40:	2c2c2c2c 	stccs	12, cr2, [ip], #-176	; 0xffffff50
     c44:	2c2c2c2c 	stccs	12, cr2, [ip], #-176	; 0xffffff50
     c48:	2c2c2c2c 	stccs	12, cr2, [ip], #-176	; 0xffffff50
     c4c:	2c2c2c2c 	stccs	12, cr2, [ip], #-176	; 0xffffff50
     c50:	2c2c2c2c 	stccs	12, cr2, [ip], #-176	; 0xffffff50
     c54:	0301042c 	movweq	r0, #5164	; 0x142c
     c58:	020277d9 	andeq	r7, r2, #56885248	; 0x3640000
     c5c:	03040401 	movweq	r0, #17409	; 0x4401
     c60:	020208a9 	andeq	r0, r2, #11075584	; 0xa90000
     c64:	2c2c2c01 	stccs	12, cr2, [ip], #-4
     c68:	2c2c2c2c 	stccs	12, cr2, [ip], #-176	; 0xffffff50
     c6c:	2c2c2c2c 	stccs	12, cr2, [ip], #-176	; 0xffffff50
     c70:	2c2c2c2c 	stccs	12, cr2, [ip], #-176	; 0xffffff50
     c74:	2c2c2c2c 	stccs	12, cr2, [ip], #-176	; 0xffffff50
     c78:	2c2c2c2c 	stccs	12, cr2, [ip], #-176	; 0xffffff50
     c7c:	2c2c2c2c 	stccs	12, cr2, [ip], #-176	; 0xffffff50
     c80:	2c2c2c2c 	stccs	12, cr2, [ip], #-176	; 0xffffff50
     c84:	2c2c2c2c 	stccs	12, cr2, [ip], #-176	; 0xffffff50
     c88:	2c2c2c2c 	stccs	12, cr2, [ip], #-176	; 0xffffff50
     c8c:	2c2c2c2c 	stccs	12, cr2, [ip], #-176	; 0xffffff50
     c90:	ac030104 	stfges	f0, [r3], {4}
     c94:	01020277 	tsteq	r2, r7, ror r2
     c98:	d6030404 	strle	r0, [r3], -r4, lsl #8
     c9c:	01020208 	tsteq	r2, r8, lsl #4
     ca0:	0305042c 	movweq	r0, #21548	; 0x542c
     ca4:	020276de 	andeq	r7, r2, #232783872	; 0xde00000
     ca8:	2c2c2c01 	stccs	12, cr2, [ip], #-4
     cac:	2c2c2c2c 	stccs	12, cr2, [ip], #-176	; 0xffffff50
     cb0:	2c2c2c2c 	stccs	12, cr2, [ip], #-176	; 0xffffff50
     cb4:	2c2c2c2c 	stccs	12, cr2, [ip], #-176	; 0xffffff50
     cb8:	2c2c2c2c 	stccs	12, cr2, [ip], #-176	; 0xffffff50
     cbc:	2c2c2c2c 	stccs	12, cr2, [ip], #-176	; 0xffffff50
     cc0:	0802032c 	stmdaeq	r2, {r2, r3, r5, r8, r9}
     cc4:	2c2c0155 	stfcss	f0, [ip], #-340	; 0xfffffeac
     cc8:	2c2c2c2c 	stccs	12, cr2, [ip], #-176	; 0xffffff50
     ccc:	2c2c2c2c 	stccs	12, cr2, [ip], #-176	; 0xffffff50
     cd0:	2c2c2c2c 	stccs	12, cr2, [ip], #-176	; 0xffffff50
     cd4:	2c2c2c2c 	stccs	12, cr2, [ip], #-176	; 0xffffff50
     cd8:	2c2c2c2c 	stccs	12, cr2, [ip], #-176	; 0xffffff50
     cdc:	2c2c2c2c 	stccs	12, cr2, [ip], #-176	; 0xffffff50
     ce0:	2c2c2c2c 	stccs	12, cr2, [ip], #-176	; 0xffffff50
     ce4:	2c2c2c2c 	stccs	12, cr2, [ip], #-176	; 0xffffff50
     ce8:	2c2c2c2c 	stccs	12, cr2, [ip], #-176	; 0xffffff50
     cec:	032c2c2c 			; <UNDEFINED> instruction: 0x032c2c2c
     cf0:	01550802 	cmpeq	r5, r2, lsl #16
     cf4:	2c2c2c2c 	stccs	12, cr2, [ip], #-176	; 0xffffff50
     cf8:	2c2c2c2c 	stccs	12, cr2, [ip], #-176	; 0xffffff50
     cfc:	2c2c2c2c 	stccs	12, cr2, [ip], #-176	; 0xffffff50
     d00:	2c2c2c2c 	stccs	12, cr2, [ip], #-176	; 0xffffff50
     d04:	55080203 	strpl	r0, [r8, #-515]	; 0xfffffdfd
     d08:	2c2c2c01 	stccs	12, cr2, [ip], #-4
     d0c:	2c2c2c2c 	stccs	12, cr2, [ip], #-176	; 0xffffff50
     d10:	2c2c2c2c 	stccs	12, cr2, [ip], #-176	; 0xffffff50
     d14:	2c2c2c2c 	stccs	12, cr2, [ip], #-176	; 0xffffff50
     d18:	2c2c2c2c 	stccs	12, cr2, [ip], #-176	; 0xffffff50
     d1c:	2c2c2c2c 	stccs	12, cr2, [ip], #-176	; 0xffffff50
     d20:	2c2c2c2c 	stccs	12, cr2, [ip], #-176	; 0xffffff50
     d24:	2c2c2c2c 	stccs	12, cr2, [ip], #-176	; 0xffffff50
     d28:	2c2c2c2c 	stccs	12, cr2, [ip], #-176	; 0xffffff50
     d2c:	2c2c2c2c 	stccs	12, cr2, [ip], #-176	; 0xffffff50
     d30:	2c2c2c2c 	stccs	12, cr2, [ip], #-176	; 0xffffff50
     d34:	54030104 	strpl	r0, [r3], #-260	; 0xfffffefc
     d38:	2c010202 	sfmcs	f0, 4, [r1], {2}
     d3c:	2c2c2c2c 	stccs	12, cr2, [ip], #-176	; 0xffffff50
     d40:	0305042c 	movweq	r0, #21548	; 0x542c
     d44:	01020229 	tsteq	r2, r9, lsr #4
     d48:	2c2c2c2c 	stccs	12, cr2, [ip], #-176	; 0xffffff50
     d4c:	2c2c2c2c 	stccs	12, cr2, [ip], #-176	; 0xffffff50
     d50:	2c2c2c2c 	stccs	12, cr2, [ip], #-176	; 0xffffff50
     d54:	2c2c2c2c 	stccs	12, cr2, [ip], #-176	; 0xffffff50
     d58:	2c2c2c2c 	stccs	12, cr2, [ip], #-176	; 0xffffff50
     d5c:	2c2c2c2c 	stccs	12, cr2, [ip], #-176	; 0xffffff50
     d60:	2c2c2c2c 	stccs	12, cr2, [ip], #-176	; 0xffffff50
     d64:	2c2c2c2c 	stccs	12, cr2, [ip], #-176	; 0xffffff50
     d68:	2c2c2c2c 	stccs	12, cr2, [ip], #-176	; 0xffffff50
     d6c:	2c2c2c2c 	stccs	12, cr2, [ip], #-176	; 0xffffff50
     d70:	2c2c2c2c 	stccs	12, cr2, [ip], #-176	; 0xffffff50
     d74:	2c2c2c2c 	stccs	12, cr2, [ip], #-176	; 0xffffff50
     d78:	2c2c2d2c 	stccs	13, cr2, [ip], #-176	; 0xffffff50
     d7c:	2c2c2c2c 	stccs	12, cr2, [ip], #-176	; 0xffffff50
     d80:	2c2c2c2c 	stccs	12, cr2, [ip], #-176	; 0xffffff50
     d84:	2c2c2c2c 	stccs	12, cr2, [ip], #-176	; 0xffffff50
     d88:	2c2c2c2c 	stccs	12, cr2, [ip], #-176	; 0xffffff50
     d8c:	2c2c2c2c 	stccs	12, cr2, [ip], #-176	; 0xffffff50
     d90:	2c2c2c2c 	stccs	12, cr2, [ip], #-176	; 0xffffff50
     d94:	2c2c2c2c 	stccs	12, cr2, [ip], #-176	; 0xffffff50
     d98:	2c2c2c2c 	stccs	12, cr2, [ip], #-176	; 0xffffff50
     d9c:	2c2c2c2c 	stccs	12, cr2, [ip], #-176	; 0xffffff50
     da0:	2c2c2c2c 	stccs	12, cr2, [ip], #-176	; 0xffffff50
     da4:	2c2c2c2c 	stccs	12, cr2, [ip], #-176	; 0xffffff50
     da8:	2c2c2c2c 	stccs	12, cr2, [ip], #-176	; 0xffffff50
     dac:	2c2c2c2c 	stccs	12, cr2, [ip], #-176	; 0xffffff50
     db0:	2c2c2c2c 	stccs	12, cr2, [ip], #-176	; 0xffffff50
     db4:	2c2c2c2c 	stccs	12, cr2, [ip], #-176	; 0xffffff50
     db8:	2c2c2c2c 	stccs	12, cr2, [ip], #-176	; 0xffffff50
     dbc:	2c2c2c2c 	stccs	12, cr2, [ip], #-176	; 0xffffff50
     dc0:	2c2c2c2c 	stccs	12, cr2, [ip], #-176	; 0xffffff50
     dc4:	2c2c2c2c 	stccs	12, cr2, [ip], #-176	; 0xffffff50
     dc8:	2c2c2c2c 	stccs	12, cr2, [ip], #-176	; 0xffffff50
     dcc:	2c2c2c2c 	stccs	12, cr2, [ip], #-176	; 0xffffff50
     dd0:	2c2c2c2c 	stccs	12, cr2, [ip], #-176	; 0xffffff50
     dd4:	2c2c2c2c 	stccs	12, cr2, [ip], #-176	; 0xffffff50
     dd8:	2c2c2c2c 	stccs	12, cr2, [ip], #-176	; 0xffffff50
     ddc:	2c2c2c2c 	stccs	12, cr2, [ip], #-176	; 0xffffff50
     de0:	2c2c2c2c 	stccs	12, cr2, [ip], #-176	; 0xffffff50
     de4:	2c2c2c2c 	stccs	12, cr2, [ip], #-176	; 0xffffff50
     de8:	2c2c2c2c 	stccs	12, cr2, [ip], #-176	; 0xffffff50
     dec:	2c2c2c2c 	stccs	12, cr2, [ip], #-176	; 0xffffff50
     df0:	2c2c2c2c 	stccs	12, cr2, [ip], #-176	; 0xffffff50
     df4:	2c2c2c2c 	stccs	12, cr2, [ip], #-176	; 0xffffff50
     df8:	2c2c2c2c 	stccs	12, cr2, [ip], #-176	; 0xffffff50
     dfc:	2c2c2c2c 	stccs	12, cr2, [ip], #-176	; 0xffffff50
     e00:	2c2c2c2c 	stccs	12, cr2, [ip], #-176	; 0xffffff50
     e04:	2c2c2c2c 	stccs	12, cr2, [ip], #-176	; 0xffffff50
     e08:	2c2c2c2c 	stccs	12, cr2, [ip], #-176	; 0xffffff50
     e0c:	2c2c2c2c 	stccs	12, cr2, [ip], #-176	; 0xffffff50
     e10:	2c2c2c2c 	stccs	12, cr2, [ip], #-176	; 0xffffff50
     e14:	2c2c2c2c 	stccs	12, cr2, [ip], #-176	; 0xffffff50
     e18:	2c2c2c2c 	stccs	12, cr2, [ip], #-176	; 0xffffff50
     e1c:	2c2c2c2c 	stccs	12, cr2, [ip], #-176	; 0xffffff50
     e20:	2c2c2c2c 	stccs	12, cr2, [ip], #-176	; 0xffffff50
     e24:	2c2c2c2c 	stccs	12, cr2, [ip], #-176	; 0xffffff50
     e28:	2c2c2c2c 	stccs	12, cr2, [ip], #-176	; 0xffffff50
     e2c:	2c2c2c2c 	stccs	12, cr2, [ip], #-176	; 0xffffff50
     e30:	2c2c2c2c 	stccs	12, cr2, [ip], #-176	; 0xffffff50
     e34:	2c2c2c2c 	stccs	12, cr2, [ip], #-176	; 0xffffff50
     e38:	2c2c2c2c 	stccs	12, cr2, [ip], #-176	; 0xffffff50
     e3c:	2c2c2c2c 	stccs	12, cr2, [ip], #-176	; 0xffffff50
     e40:	2c2c2c2c 	stccs	12, cr2, [ip], #-176	; 0xffffff50
     e44:	2c2c2c2c 	stccs	12, cr2, [ip], #-176	; 0xffffff50
     e48:	2c2c2c2c 	stccs	12, cr2, [ip], #-176	; 0xffffff50
     e4c:	2c2c2c2c 	stccs	12, cr2, [ip], #-176	; 0xffffff50
     e50:	2c2c2c2c 	stccs	12, cr2, [ip], #-176	; 0xffffff50
     e54:	2c2c2c2c 	stccs	12, cr2, [ip], #-176	; 0xffffff50
     e58:	2c2c2c2c 	stccs	12, cr2, [ip], #-176	; 0xffffff50
     e5c:	2c2c2c2c 	stccs	12, cr2, [ip], #-176	; 0xffffff50
     e60:	2c2c2c2c 	stccs	12, cr2, [ip], #-176	; 0xffffff50
     e64:	2c2c2c2c 	stccs	12, cr2, [ip], #-176	; 0xffffff50
     e68:	2c2c2c2c 	stccs	12, cr2, [ip], #-176	; 0xffffff50
     e6c:	2c2c2c2d 	stccs	12, cr2, [ip], #-180	; 0xffffff4c
     e70:	2c2c2c2c 	stccs	12, cr2, [ip], #-176	; 0xffffff50
     e74:	2c2c2c2c 	stccs	12, cr2, [ip], #-176	; 0xffffff50
     e78:	2c2c2c2c 	stccs	12, cr2, [ip], #-176	; 0xffffff50
     e7c:	2c2c2c2c 	stccs	12, cr2, [ip], #-176	; 0xffffff50
     e80:	2c2c2c2c 	stccs	12, cr2, [ip], #-176	; 0xffffff50
     e84:	2c2c2c2c 	stccs	12, cr2, [ip], #-176	; 0xffffff50
     e88:	2c2c2c2c 	stccs	12, cr2, [ip], #-176	; 0xffffff50
     e8c:	2c2c2c2c 	stccs	12, cr2, [ip], #-176	; 0xffffff50
     e90:	2c2c2c2c 	stccs	12, cr2, [ip], #-176	; 0xffffff50
     e94:	2c2c2c2c 	stccs	12, cr2, [ip], #-176	; 0xffffff50
     e98:	2c2c2c2c 	stccs	12, cr2, [ip], #-176	; 0xffffff50
     e9c:	2c2c2c2c 	stccs	12, cr2, [ip], #-176	; 0xffffff50
     ea0:	2c2c2c2c 	stccs	12, cr2, [ip], #-176	; 0xffffff50
     ea4:	2c2c2c2c 	stccs	12, cr2, [ip], #-176	; 0xffffff50
     ea8:	2c2c2c2c 	stccs	12, cr2, [ip], #-176	; 0xffffff50
     eac:	2c2c2c2c 	stccs	12, cr2, [ip], #-176	; 0xffffff50
     eb0:	2c2c2c2c 	stccs	12, cr2, [ip], #-176	; 0xffffff50
     eb4:	2c2c2c2c 	stccs	12, cr2, [ip], #-176	; 0xffffff50
     eb8:	2c2c2c2c 	stccs	12, cr2, [ip], #-176	; 0xffffff50
     ebc:	2c2c2c2c 	stccs	12, cr2, [ip], #-176	; 0xffffff50
     ec0:	2c2c2c2c 	stccs	12, cr2, [ip], #-176	; 0xffffff50
     ec4:	2c2c2c2c 	stccs	12, cr2, [ip], #-176	; 0xffffff50
     ec8:	2c2c2c2c 	stccs	12, cr2, [ip], #-176	; 0xffffff50
     ecc:	2c2c2c2c 	stccs	12, cr2, [ip], #-176	; 0xffffff50
     ed0:	2c2c2c2c 	stccs	12, cr2, [ip], #-176	; 0xffffff50
     ed4:	2c2c2c2c 	stccs	12, cr2, [ip], #-176	; 0xffffff50
     ed8:	2c2c2c2c 	stccs	12, cr2, [ip], #-176	; 0xffffff50
     edc:	2c2c2c2c 	stccs	12, cr2, [ip], #-176	; 0xffffff50
     ee0:	2c2c2c2c 	stccs	12, cr2, [ip], #-176	; 0xffffff50
     ee4:	2c2c2c2c 	stccs	12, cr2, [ip], #-176	; 0xffffff50
     ee8:	2c2c2c2c 	stccs	12, cr2, [ip], #-176	; 0xffffff50
     eec:	2c2c2c2c 	stccs	12, cr2, [ip], #-176	; 0xffffff50
     ef0:	2c2c2c2c 	stccs	12, cr2, [ip], #-176	; 0xffffff50
     ef4:	2c2c2c2c 	stccs	12, cr2, [ip], #-176	; 0xffffff50
     ef8:	2c2c2c2c 	stccs	12, cr2, [ip], #-176	; 0xffffff50
     efc:	2c2c2c2c 	stccs	12, cr2, [ip], #-176	; 0xffffff50
     f00:	2c2c2c2c 	stccs	12, cr2, [ip], #-176	; 0xffffff50
     f04:	2c2c2c2c 	stccs	12, cr2, [ip], #-176	; 0xffffff50
     f08:	2c2c2c2c 	stccs	12, cr2, [ip], #-176	; 0xffffff50
     f0c:	2c2c2c2c 	stccs	12, cr2, [ip], #-176	; 0xffffff50
     f10:	2c2c2c2c 	stccs	12, cr2, [ip], #-176	; 0xffffff50
     f14:	2c2c2c2c 	stccs	12, cr2, [ip], #-176	; 0xffffff50
     f18:	2c2c2c2c 	stccs	12, cr2, [ip], #-176	; 0xffffff50
     f1c:	2c2c2c2c 	stccs	12, cr2, [ip], #-176	; 0xffffff50
     f20:	2c2c2c2c 	stccs	12, cr2, [ip], #-176	; 0xffffff50
     f24:	2c2c2c2c 	stccs	12, cr2, [ip], #-176	; 0xffffff50
     f28:	2c2c2c2c 	stccs	12, cr2, [ip], #-176	; 0xffffff50
     f2c:	2c2d2c2c 	stccs	12, cr2, [sp], #-176	; 0xffffff50
     f30:	2c2c2c2c 	stccs	12, cr2, [ip], #-176	; 0xffffff50
     f34:	2c2c2c2c 	stccs	12, cr2, [ip], #-176	; 0xffffff50
     f38:	2c2c2c2c 	stccs	12, cr2, [ip], #-176	; 0xffffff50
     f3c:	2c2c2c2c 	stccs	12, cr2, [ip], #-176	; 0xffffff50
     f40:	2c2c2c2c 	stccs	12, cr2, [ip], #-176	; 0xffffff50
     f44:	2c2c2c2c 	stccs	12, cr2, [ip], #-176	; 0xffffff50
     f48:	2c2c2c2d 	stccs	12, cr2, [ip], #-180	; 0xffffff4c
     f4c:	2c2c2c2c 	stccs	12, cr2, [ip], #-176	; 0xffffff50
     f50:	2c2c2c2c 	stccs	12, cr2, [ip], #-176	; 0xffffff50
     f54:	2c2c2c2c 	stccs	12, cr2, [ip], #-176	; 0xffffff50
     f58:	2c2c2c2c 	stccs	12, cr2, [ip], #-176	; 0xffffff50
     f5c:	2c2c2c2c 	stccs	12, cr2, [ip], #-176	; 0xffffff50
     f60:	2c2c2c2c 	stccs	12, cr2, [ip], #-176	; 0xffffff50
     f64:	2c2c2c2c 	stccs	12, cr2, [ip], #-176	; 0xffffff50
     f68:	2c2c2c2c 	stccs	12, cr2, [ip], #-176	; 0xffffff50
     f6c:	2c2c2c2c 	stccs	12, cr2, [ip], #-176	; 0xffffff50
     f70:	2d2c2c2c 	stccs	12, cr2, [ip, #-176]!	; 0xffffff50
     f74:	2c2c2c2c 	stccs	12, cr2, [ip], #-176	; 0xffffff50
     f78:	2c2c2c2c 	stccs	12, cr2, [ip], #-176	; 0xffffff50
     f7c:	2c2c2c2c 	stccs	12, cr2, [ip], #-176	; 0xffffff50
     f80:	2c2c2c2c 	stccs	12, cr2, [ip], #-176	; 0xffffff50
     f84:	2c2c2c2c 	stccs	12, cr2, [ip], #-176	; 0xffffff50
     f88:	2c2c2c2c 	stccs	12, cr2, [ip], #-176	; 0xffffff50
     f8c:	2c2c2c2c 	stccs	12, cr2, [ip], #-176	; 0xffffff50
     f90:	2c2c2c2c 	stccs	12, cr2, [ip], #-176	; 0xffffff50
     f94:	2c2c2c2c 	stccs	12, cr2, [ip], #-176	; 0xffffff50
     f98:	2c2c2c2c 	stccs	12, cr2, [ip], #-176	; 0xffffff50
     f9c:	2c2c2c2c 	stccs	12, cr2, [ip], #-176	; 0xffffff50
     fa0:	2c2c2c2c 	stccs	12, cr2, [ip], #-176	; 0xffffff50
     fa4:	2c2c2c2c 	stccs	12, cr2, [ip], #-176	; 0xffffff50
     fa8:	2c2c2c2c 	stccs	12, cr2, [ip], #-176	; 0xffffff50
     fac:	2c2c2c2c 	stccs	12, cr2, [ip], #-176	; 0xffffff50
     fb0:	2c2c2c2c 	stccs	12, cr2, [ip], #-176	; 0xffffff50
     fb4:	2c2c2c2c 	stccs	12, cr2, [ip], #-176	; 0xffffff50
     fb8:	2c2c2c2c 	stccs	12, cr2, [ip], #-176	; 0xffffff50
     fbc:	2c2c2c2c 	stccs	12, cr2, [ip], #-176	; 0xffffff50
     fc0:	2c2c2c2c 	stccs	12, cr2, [ip], #-176	; 0xffffff50
     fc4:	2c2c2c2c 	stccs	12, cr2, [ip], #-176	; 0xffffff50
     fc8:	2c2c2c2c 	stccs	12, cr2, [ip], #-176	; 0xffffff50
     fcc:	2c2c2c2c 	stccs	12, cr2, [ip], #-176	; 0xffffff50
     fd0:	2c2c2c2c 	stccs	12, cr2, [ip], #-176	; 0xffffff50
     fd4:	2c2c2c2c 	stccs	12, cr2, [ip], #-176	; 0xffffff50
     fd8:	2c2c2c2c 	stccs	12, cr2, [ip], #-176	; 0xffffff50
     fdc:	2c2c2c2c 	stccs	12, cr2, [ip], #-176	; 0xffffff50
     fe0:	2c2c2c2c 	stccs	12, cr2, [ip], #-176	; 0xffffff50
     fe4:	2c2c2c2c 	stccs	12, cr2, [ip], #-176	; 0xffffff50
     fe8:	2c2c2c2c 	stccs	12, cr2, [ip], #-176	; 0xffffff50
     fec:	2c2c2c2c 	stccs	12, cr2, [ip], #-176	; 0xffffff50
     ff0:	2c2c2c2c 	stccs	12, cr2, [ip], #-176	; 0xffffff50
     ff4:	2c2c2c2c 	stccs	12, cr2, [ip], #-176	; 0xffffff50
     ff8:	2c2c2c2c 	stccs	12, cr2, [ip], #-176	; 0xffffff50
     ffc:	2c2c2c2c 	stccs	12, cr2, [ip], #-176	; 0xffffff50
    1000:	2c2c2c2c 	stccs	12, cr2, [ip], #-176	; 0xffffff50
    1004:	2c2c2c2c 	stccs	12, cr2, [ip], #-176	; 0xffffff50
    1008:	2c2c2c2c 	stccs	12, cr2, [ip], #-176	; 0xffffff50
    100c:	2c2c2c2c 	stccs	12, cr2, [ip], #-176	; 0xffffff50
    1010:	2c2c2c2c 	stccs	12, cr2, [ip], #-176	; 0xffffff50
    1014:	2c2c2c2c 	stccs	12, cr2, [ip], #-176	; 0xffffff50
    1018:	2c2c2c2c 	stccs	12, cr2, [ip], #-176	; 0xffffff50
    101c:	2d2c2c2c 	stccs	12, cr2, [ip, #-176]!	; 0xffffff50
    1020:	2c2c2c2c 	stccs	12, cr2, [ip], #-176	; 0xffffff50
    1024:	2c2c2c2c 	stccs	12, cr2, [ip], #-176	; 0xffffff50
    1028:	2c2c2c2c 	stccs	12, cr2, [ip], #-176	; 0xffffff50
    102c:	2c2c2c2c 	stccs	12, cr2, [ip], #-176	; 0xffffff50
    1030:	2c2c2c2c 	stccs	12, cr2, [ip], #-176	; 0xffffff50
    1034:	2c2c2c2c 	stccs	12, cr2, [ip], #-176	; 0xffffff50
    1038:	2c2c2c2c 	stccs	12, cr2, [ip], #-176	; 0xffffff50
    103c:	2c2c2c2c 	stccs	12, cr2, [ip], #-176	; 0xffffff50
    1040:	55080303 	strpl	r0, [r8, #-771]	; 0xfffffcfd
    1044:	2c2c2c01 	stccs	12, cr2, [ip], #-4
    1048:	2c2c2c2c 	stccs	12, cr2, [ip], #-176	; 0xffffff50
    104c:	2c2c2c2c 	stccs	12, cr2, [ip], #-176	; 0xffffff50
    1050:	2c2c2d2c 	stccs	13, cr2, [ip], #-176	; 0xffffff50
    1054:	2c2c2c2c 	stccs	12, cr2, [ip], #-176	; 0xffffff50
    1058:	2c2c2c2c 	stccs	12, cr2, [ip], #-176	; 0xffffff50
    105c:	2c2c2c2c 	stccs	12, cr2, [ip], #-176	; 0xffffff50
    1060:	2c2c2c2c 	stccs	12, cr2, [ip], #-176	; 0xffffff50
    1064:	2c2c2c2c 	stccs	12, cr2, [ip], #-176	; 0xffffff50
    1068:	2c2c2c2c 	stccs	12, cr2, [ip], #-176	; 0xffffff50
    106c:	2c2c2c2c 	stccs	12, cr2, [ip], #-176	; 0xffffff50
    1070:	2c2c2c2c 	stccs	12, cr2, [ip], #-176	; 0xffffff50
    1074:	2c2c2c2c 	stccs	12, cr2, [ip], #-176	; 0xffffff50
    1078:	2c2c2c2c 	stccs	12, cr2, [ip], #-176	; 0xffffff50
    107c:	2c2c2c2c 	stccs	12, cr2, [ip], #-176	; 0xffffff50
    1080:	2c2c2c2c 	stccs	12, cr2, [ip], #-176	; 0xffffff50
    1084:	2c2c2c2c 	stccs	12, cr2, [ip], #-176	; 0xffffff50
    1088:	2c2c2c2c 	stccs	12, cr2, [ip], #-176	; 0xffffff50
    108c:	2c2c2c2c 	stccs	12, cr2, [ip], #-176	; 0xffffff50
    1090:	2c2c2c2c 	stccs	12, cr2, [ip], #-176	; 0xffffff50
    1094:	2c2c2c2c 	stccs	12, cr2, [ip], #-176	; 0xffffff50
    1098:	2c2c2c2c 	stccs	12, cr2, [ip], #-176	; 0xffffff50
    109c:	2c2c2c2c 	stccs	12, cr2, [ip], #-176	; 0xffffff50
    10a0:	2c2c2c2c 	stccs	12, cr2, [ip], #-176	; 0xffffff50
    10a4:	2c2c2c2c 	stccs	12, cr2, [ip], #-176	; 0xffffff50
    10a8:	2c2c2c2c 	stccs	12, cr2, [ip], #-176	; 0xffffff50
    10ac:	2c2c2c2c 	stccs	12, cr2, [ip], #-176	; 0xffffff50
    10b0:	2c2c2c2c 	stccs	12, cr2, [ip], #-176	; 0xffffff50
    10b4:	2c2c2c2c 	stccs	12, cr2, [ip], #-176	; 0xffffff50
    10b8:	2c2c2c2c 	stccs	12, cr2, [ip], #-176	; 0xffffff50
    10bc:	2c2c2c2c 	stccs	12, cr2, [ip], #-176	; 0xffffff50
    10c0:	2c2c2c2c 	stccs	12, cr2, [ip], #-176	; 0xffffff50
    10c4:	2c2c2c2c 	stccs	12, cr2, [ip], #-176	; 0xffffff50
    10c8:	2c2c2c2c 	stccs	12, cr2, [ip], #-176	; 0xffffff50
    10cc:	2c2c2c2c 	stccs	12, cr2, [ip], #-176	; 0xffffff50
    10d0:	2d2c2c2c 	stccs	12, cr2, [ip, #-176]!	; 0xffffff50
    10d4:	2c2c2c2c 	stccs	12, cr2, [ip], #-176	; 0xffffff50
    10d8:	2c2c2c2c 	stccs	12, cr2, [ip], #-176	; 0xffffff50
    10dc:	2c2c2c2c 	stccs	12, cr2, [ip], #-176	; 0xffffff50
    10e0:	032c2c2c 			; <UNDEFINED> instruction: 0x032c2c2c
    10e4:	01020209 	tsteq	r2, r9, lsl #4
    10e8:	2c2c2c2c 	stccs	12, cr2, [ip], #-176	; 0xffffff50
    10ec:	080e0349 	stmdaeq	lr, {r0, r3, r6, r8, r9}
    10f0:	2c2c0171 	stfcss	f0, [ip], #-452	; 0xfffffe3c
    10f4:	2c2c2c2c 	stccs	12, cr2, [ip], #-176	; 0xffffff50
    10f8:	2c2c4a2c 			; <UNDEFINED> instruction: 0x2c2c4a2c
    10fc:	2c2c2c2c 	stccs	12, cr2, [ip], #-176	; 0xffffff50
    1100:	2c2c2c2c 	stccs	12, cr2, [ip], #-176	; 0xffffff50
    1104:	2c2c2c2c 	stccs	12, cr2, [ip], #-176	; 0xffffff50
    1108:	2c2c2c2c 	stccs	12, cr2, [ip], #-176	; 0xffffff50
    110c:	2c2c2c2c 	stccs	12, cr2, [ip], #-176	; 0xffffff50
    1110:	2c2c2c2c 	stccs	12, cr2, [ip], #-176	; 0xffffff50
    1114:	2c2c2c2c 	stccs	12, cr2, [ip], #-176	; 0xffffff50
    1118:	2c2c2c2c 	stccs	12, cr2, [ip], #-176	; 0xffffff50
    111c:	2c2c2c2c 	stccs	12, cr2, [ip], #-176	; 0xffffff50
    1120:	2c2c2c2c 	stccs	12, cr2, [ip], #-176	; 0xffffff50
    1124:	2c2c2c2c 	stccs	12, cr2, [ip], #-176	; 0xffffff50
    1128:	2c2c2c2c 	stccs	12, cr2, [ip], #-176	; 0xffffff50
    112c:	2c2c2c2c 	stccs	12, cr2, [ip], #-176	; 0xffffff50
    1130:	2c2c2c2c 	stccs	12, cr2, [ip], #-176	; 0xffffff50
    1134:	2c2c2c2c 	stccs	12, cr2, [ip], #-176	; 0xffffff50
    1138:	2c2c2c2c 	stccs	12, cr2, [ip], #-176	; 0xffffff50
    113c:	2c2c2c2c 	stccs	12, cr2, [ip], #-176	; 0xffffff50
    1140:	2c2c2c2c 	stccs	12, cr2, [ip], #-176	; 0xffffff50
    1144:	2c2c2c2c 	stccs	12, cr2, [ip], #-176	; 0xffffff50
    1148:	2c2c2c2c 	stccs	12, cr2, [ip], #-176	; 0xffffff50
    114c:	2c2c2c2c 	stccs	12, cr2, [ip], #-176	; 0xffffff50
    1150:	2c2c2c2c 	stccs	12, cr2, [ip], #-176	; 0xffffff50
    1154:	2c2c2c2c 	stccs	12, cr2, [ip], #-176	; 0xffffff50
    1158:	2c2c2c2c 	stccs	12, cr2, [ip], #-176	; 0xffffff50
    115c:	2c2c2c2c 	stccs	12, cr2, [ip], #-176	; 0xffffff50
    1160:	2c2c2c2c 	stccs	12, cr2, [ip], #-176	; 0xffffff50
    1164:	2c2c2c2c 	stccs	12, cr2, [ip], #-176	; 0xffffff50
    1168:	2c2c2c2c 	stccs	12, cr2, [ip], #-176	; 0xffffff50
    116c:	2c2c2c2c 	stccs	12, cr2, [ip], #-176	; 0xffffff50
    1170:	2c2c2c2c 	stccs	12, cr2, [ip], #-176	; 0xffffff50
    1174:	2c2c2c2c 	stccs	12, cr2, [ip], #-176	; 0xffffff50
    1178:	2c2c2f2c 	stccs	15, cr2, [ip], #-176	; 0xffffff50
    117c:	2c2c2c2c 	stccs	12, cr2, [ip], #-176	; 0xffffff50
    1180:	55080303 	strpl	r0, [r8, #-771]	; 0xfffffcfd
    1184:	2c2c2c01 	stccs	12, cr2, [ip], #-4
    1188:	2c2c2c2c 	stccs	12, cr2, [ip], #-176	; 0xffffff50
    118c:	2c2c2c2c 	stccs	12, cr2, [ip], #-176	; 0xffffff50
    1190:	2c2c2c2c 	stccs	12, cr2, [ip], #-176	; 0xffffff50
    1194:	2c2c2c2c 	stccs	12, cr2, [ip], #-176	; 0xffffff50
    1198:	2c2c2d2c 	stccs	13, cr2, [ip], #-176	; 0xffffff50
    119c:	2c2c2c2c 	stccs	12, cr2, [ip], #-176	; 0xffffff50
    11a0:	2c2c2c2c 	stccs	12, cr2, [ip], #-176	; 0xffffff50
    11a4:	2c2c2c2c 	stccs	12, cr2, [ip], #-176	; 0xffffff50
    11a8:	2c2c2c2c 	stccs	12, cr2, [ip], #-176	; 0xffffff50
    11ac:	2c2c2c2c 	stccs	12, cr2, [ip], #-176	; 0xffffff50
    11b0:	2c2c2c2c 	stccs	12, cr2, [ip], #-176	; 0xffffff50
    11b4:	2c2c2c2c 	stccs	12, cr2, [ip], #-176	; 0xffffff50
    11b8:	2c2c2c2c 	stccs	12, cr2, [ip], #-176	; 0xffffff50
    11bc:	2c2c2c2c 	stccs	12, cr2, [ip], #-176	; 0xffffff50
    11c0:	2c2c2c2c 	stccs	12, cr2, [ip], #-176	; 0xffffff50
    11c4:	01042c2c 	tsteq	r4, ip, lsr #24
    11c8:	0276bb03 	rsbseq	fp, r6, #3072	; 0xc00
    11cc:	2c2c0102 	stfcss	f0, [ip], #-8
    11d0:	2c2c2c2c 	stccs	12, cr2, [ip], #-176	; 0xffffff50
    11d4:	c6030504 	strgt	r0, [r3], -r4, lsl #10
    11d8:	01020209 	tsteq	r2, r9, lsl #4
    11dc:	2c2c2c2c 	stccs	12, cr2, [ip], #-176	; 0xffffff50
    11e0:	2c2c2c2c 	stccs	12, cr2, [ip], #-176	; 0xffffff50
    11e4:	2c2c2c2c 	stccs	12, cr2, [ip], #-176	; 0xffffff50
    11e8:	2d302c2c 	ldccs	12, cr2, [r0, #-176]!	; 0xffffff50
    11ec:	2d2c2c2c 	stccs	12, cr2, [ip, #-176]!	; 0xffffff50
    11f0:	2c2c2c2c 	stccs	12, cr2, [ip], #-176	; 0xffffff50
    11f4:	2c2c2c2c 	stccs	12, cr2, [ip], #-176	; 0xffffff50
    11f8:	2c2c2c2c 	stccs	12, cr2, [ip], #-176	; 0xffffff50
    11fc:	2c2c2c2c 	stccs	12, cr2, [ip], #-176	; 0xffffff50
    1200:	2c2c2c2c 	stccs	12, cr2, [ip], #-176	; 0xffffff50
    1204:	2c2c2c2c 	stccs	12, cr2, [ip], #-176	; 0xffffff50
    1208:	2c2c2c2c 	stccs	12, cr2, [ip], #-176	; 0xffffff50
    120c:	2c2c2c2c 	stccs	12, cr2, [ip], #-176	; 0xffffff50
    1210:	2c2c2c2c 	stccs	12, cr2, [ip], #-176	; 0xffffff50
    1214:	2c2c2c2c 	stccs	12, cr2, [ip], #-176	; 0xffffff50
    1218:	2c2c2c2c 	stccs	12, cr2, [ip], #-176	; 0xffffff50
    121c:	2c2c2c2c 	stccs	12, cr2, [ip], #-176	; 0xffffff50
    1220:	0306042c 	movweq	r0, #25644	; 0x642c
    1224:	020274da 	andeq	r7, r2, #-637534208	; 0xda000000
    1228:	2c2c2c01 	stccs	12, cr2, [ip], #-4
    122c:	2c2c2c2c 	stccs	12, cr2, [ip], #-176	; 0xffffff50
    1230:	2c2c2c2c 	stccs	12, cr2, [ip], #-176	; 0xffffff50
    1234:	2c2c2c2c 	stccs	12, cr2, [ip], #-176	; 0xffffff50
    1238:	2c2c2c2c 	stccs	12, cr2, [ip], #-176	; 0xffffff50
    123c:	2c2c2c2c 	stccs	12, cr2, [ip], #-176	; 0xffffff50
    1240:	2c2c2c2c 	stccs	12, cr2, [ip], #-176	; 0xffffff50
    1244:	2c2c2c2c 	stccs	12, cr2, [ip], #-176	; 0xffffff50
    1248:	2c2c2c2c 	stccs	12, cr2, [ip], #-176	; 0xffffff50
    124c:	2c2c2c2c 	stccs	12, cr2, [ip], #-176	; 0xffffff50
    1250:	2c2c2c2c 	stccs	12, cr2, [ip], #-176	; 0xffffff50
    1254:	01042c2c 	tsteq	r4, ip, lsr #24
    1258:	0200e203 	andeq	lr, r0, #805306368	; 0x30000000
    125c:	2c2c0102 	stfcss	f0, [ip], #-8
    1260:	2c2c2c2c 	stccs	12, cr2, [ip], #-176	; 0xffffff50
    1264:	9a030604 	bls	c2a7c <.debug_line+0xc2a7c>
    1268:	0102027f 	tsteq	r2, pc, ror r2
    126c:	2c2c2c2c 	stccs	12, cr2, [ip], #-176	; 0xffffff50
    1270:	2c2c2c2c 	stccs	12, cr2, [ip], #-176	; 0xffffff50
    1274:	2c2c2c2c 	stccs	12, cr2, [ip], #-176	; 0xffffff50
    1278:	2c2c2c2c 	stccs	12, cr2, [ip], #-176	; 0xffffff50
    127c:	2c2c2c2c 	stccs	12, cr2, [ip], #-176	; 0xffffff50
    1280:	2c2c2c2c 	stccs	12, cr2, [ip], #-176	; 0xffffff50
    1284:	2c2c2c2c 	stccs	12, cr2, [ip], #-176	; 0xffffff50
    1288:	2c2c2c2c 	stccs	12, cr2, [ip], #-176	; 0xffffff50
    128c:	2c2c2c2c 	stccs	12, cr2, [ip], #-176	; 0xffffff50
    1290:	2c2c2c2c 	stccs	12, cr2, [ip], #-176	; 0xffffff50
    1294:	2c2c2c2c 	stccs	12, cr2, [ip], #-176	; 0xffffff50
    1298:	2c2c2c2c 	stccs	12, cr2, [ip], #-176	; 0xffffff50
    129c:	2c2c2c2c 	stccs	12, cr2, [ip], #-176	; 0xffffff50
    12a0:	2c2c2c2c 	stccs	12, cr2, [ip], #-176	; 0xffffff50
    12a4:	2c2c2c2c 	stccs	12, cr2, [ip], #-176	; 0xffffff50
    12a8:	2c2c2c2c 	stccs	12, cr2, [ip], #-176	; 0xffffff50
    12ac:	2c2c2c2c 	stccs	12, cr2, [ip], #-176	; 0xffffff50
    12b0:	2c2c2c2c 	stccs	12, cr2, [ip], #-176	; 0xffffff50
    12b4:	2c2c2c2c 	stccs	12, cr2, [ip], #-176	; 0xffffff50
    12b8:	2c2c2c2c 	stccs	12, cr2, [ip], #-176	; 0xffffff50
    12bc:	2c2c2c2c 	stccs	12, cr2, [ip], #-176	; 0xffffff50
    12c0:	0301042c 	movweq	r0, #5164	; 0x142c
    12c4:	0102020b 	tsteq	r2, fp, lsl #4
    12c8:	2c2c2c2c 	stccs	12, cr2, [ip], #-176	; 0xffffff50
    12cc:	06042c2c 	streq	r2, [r4], -ip, lsr #24
    12d0:	02027103 	andeq	r7, r2, #-1073741824	; 0xc0000000
    12d4:	2c2c2c01 	stccs	12, cr2, [ip], #-4
    12d8:	2c2c2c2c 	stccs	12, cr2, [ip], #-176	; 0xffffff50
    12dc:	2c2c2c2c 	stccs	12, cr2, [ip], #-176	; 0xffffff50
    12e0:	2c2c2c2c 	stccs	12, cr2, [ip], #-176	; 0xffffff50
    12e4:	2c2c2c2c 	stccs	12, cr2, [ip], #-176	; 0xffffff50
    12e8:	2c2c2c2c 	stccs	12, cr2, [ip], #-176	; 0xffffff50
    12ec:	2c2c2c2c 	stccs	12, cr2, [ip], #-176	; 0xffffff50
    12f0:	2c2c2c2c 	stccs	12, cr2, [ip], #-176	; 0xffffff50
    12f4:	2c2c2c2c 	stccs	12, cr2, [ip], #-176	; 0xffffff50
    12f8:	2c2c2c2c 	stccs	12, cr2, [ip], #-176	; 0xffffff50
    12fc:	2c2c2c2c 	stccs	12, cr2, [ip], #-176	; 0xffffff50
    1300:	2c2c2c2c 	stccs	12, cr2, [ip], #-176	; 0xffffff50
    1304:	2c302d2c 	ldccs	13, cr2, [r0], #-176	; 0xffffff50
    1308:	2c2c2c2c 	stccs	12, cr2, [ip], #-176	; 0xffffff50
    130c:	2c2c2c2c 	stccs	12, cr2, [ip], #-176	; 0xffffff50
    1310:	2c2c2c2c 	stccs	12, cr2, [ip], #-176	; 0xffffff50
    1314:	2c2c2c2c 	stccs	12, cr2, [ip], #-176	; 0xffffff50
    1318:	2c2c2c2c 	stccs	12, cr2, [ip], #-176	; 0xffffff50
    131c:	2c2c2c2c 	stccs	12, cr2, [ip], #-176	; 0xffffff50
    1320:	2c2c2c2c 	stccs	12, cr2, [ip], #-176	; 0xffffff50
    1324:	2c2c2c2c 	stccs	12, cr2, [ip], #-176	; 0xffffff50
    1328:	2c2c2c2c 	stccs	12, cr2, [ip], #-176	; 0xffffff50
    132c:	2c2c2c2c 	stccs	12, cr2, [ip], #-176	; 0xffffff50
    1330:	2c2c2c2c 	stccs	12, cr2, [ip], #-176	; 0xffffff50
    1334:	2c2c2c2c 	stccs	12, cr2, [ip], #-176	; 0xffffff50
    1338:	2c2c2c2c 	stccs	12, cr2, [ip], #-176	; 0xffffff50
    133c:	2e2c2c2c 	cdpcs	12, 2, cr2, cr12, cr12, {1}
    1340:	2c2c2c2c 	stccs	12, cr2, [ip], #-176	; 0xffffff50
    1344:	2c2c2c2c 	stccs	12, cr2, [ip], #-176	; 0xffffff50
    1348:	2c2c2c2c 	stccs	12, cr2, [ip], #-176	; 0xffffff50
    134c:	2c2c2c2c 	stccs	12, cr2, [ip], #-176	; 0xffffff50
    1350:	2c2c2c2c 	stccs	12, cr2, [ip], #-176	; 0xffffff50
    1354:	2c2c2c2c 	stccs	12, cr2, [ip], #-176	; 0xffffff50
    1358:	2c2c2c2c 	stccs	12, cr2, [ip], #-176	; 0xffffff50
    135c:	2c2c2c2c 	stccs	12, cr2, [ip], #-176	; 0xffffff50
    1360:	2c2c2c2c 	stccs	12, cr2, [ip], #-176	; 0xffffff50
    1364:	2c2c2c2c 	stccs	12, cr2, [ip], #-176	; 0xffffff50
    1368:	2c2c2c2c 	stccs	12, cr2, [ip], #-176	; 0xffffff50
    136c:	2c2c2c2c 	stccs	12, cr2, [ip], #-176	; 0xffffff50
    1370:	2c2c2c2c 	stccs	12, cr2, [ip], #-176	; 0xffffff50
    1374:	2c2c2c2c 	stccs	12, cr2, [ip], #-176	; 0xffffff50
    1378:	2c2c2c2c 	stccs	12, cr2, [ip], #-176	; 0xffffff50
    137c:	2c2c2c2c 	stccs	12, cr2, [ip], #-176	; 0xffffff50
    1380:	2c2c2c2c 	stccs	12, cr2, [ip], #-176	; 0xffffff50
    1384:	2c2c2c2c 	stccs	12, cr2, [ip], #-176	; 0xffffff50
    1388:	2c2c2c2c 	stccs	12, cr2, [ip], #-176	; 0xffffff50
    138c:	2c2c2c2c 	stccs	12, cr2, [ip], #-176	; 0xffffff50
    1390:	2c2c2c2c 	stccs	12, cr2, [ip], #-176	; 0xffffff50
    1394:	2c2c2c2c 	stccs	12, cr2, [ip], #-176	; 0xffffff50
    1398:	2c2c2c2c 	stccs	12, cr2, [ip], #-176	; 0xffffff50
    139c:	2c2c2c2c 	stccs	12, cr2, [ip], #-176	; 0xffffff50
    13a0:	2c2c2c2c 	stccs	12, cr2, [ip], #-176	; 0xffffff50
    13a4:	2c2c2c2c 	stccs	12, cr2, [ip], #-176	; 0xffffff50
    13a8:	2c2c2c2c 	stccs	12, cr2, [ip], #-176	; 0xffffff50
    13ac:	2c2c2c2c 	stccs	12, cr2, [ip], #-176	; 0xffffff50
    13b0:	2c2c2c2c 	stccs	12, cr2, [ip], #-176	; 0xffffff50
    13b4:	2c2c2c2c 	stccs	12, cr2, [ip], #-176	; 0xffffff50
    13b8:	2c2c2c2c 	stccs	12, cr2, [ip], #-176	; 0xffffff50
    13bc:	2c2c2c2c 	stccs	12, cr2, [ip], #-176	; 0xffffff50
    13c0:	2c2c2c2c 	stccs	12, cr2, [ip], #-176	; 0xffffff50
    13c4:	2c2c2c2c 	stccs	12, cr2, [ip], #-176	; 0xffffff50
    13c8:	2c2c2c2c 	stccs	12, cr2, [ip], #-176	; 0xffffff50
    13cc:	2c2c2c2c 	stccs	12, cr2, [ip], #-176	; 0xffffff50
    13d0:	2c2c2c2c 	stccs	12, cr2, [ip], #-176	; 0xffffff50
    13d4:	2c2c2c2c 	stccs	12, cr2, [ip], #-176	; 0xffffff50
    13d8:	2c2c2c2c 	stccs	12, cr2, [ip], #-176	; 0xffffff50
    13dc:	2c2c2c2c 	stccs	12, cr2, [ip], #-176	; 0xffffff50
    13e0:	2c2c2c2c 	stccs	12, cr2, [ip], #-176	; 0xffffff50
    13e4:	2c2c2c2c 	stccs	12, cr2, [ip], #-176	; 0xffffff50
    13e8:	2c2c2c2c 	stccs	12, cr2, [ip], #-176	; 0xffffff50
    13ec:	2c2c2c2c 	stccs	12, cr2, [ip], #-176	; 0xffffff50
    13f0:	2c2c2c2c 	stccs	12, cr2, [ip], #-176	; 0xffffff50
    13f4:	2c2c2c2c 	stccs	12, cr2, [ip], #-176	; 0xffffff50
    13f8:	2c2c2c2c 	stccs	12, cr2, [ip], #-176	; 0xffffff50
    13fc:	2c2c2c2c 	stccs	12, cr2, [ip], #-176	; 0xffffff50
    1400:	2c2c2e2c 	stccs	14, cr2, [ip], #-176	; 0xffffff50
    1404:	2c2c2c2c 	stccs	12, cr2, [ip], #-176	; 0xffffff50
    1408:	2c2c2c2c 	stccs	12, cr2, [ip], #-176	; 0xffffff50
    140c:	2c2c2c2c 	stccs	12, cr2, [ip], #-176	; 0xffffff50
    1410:	2c2c2c2c 	stccs	12, cr2, [ip], #-176	; 0xffffff50
    1414:	2c2c2c2c 	stccs	12, cr2, [ip], #-176	; 0xffffff50
    1418:	2c2c2c2c 	stccs	12, cr2, [ip], #-176	; 0xffffff50
    141c:	2c2c2c2c 	stccs	12, cr2, [ip], #-176	; 0xffffff50
    1420:	2c2c2c2c 	stccs	12, cr2, [ip], #-176	; 0xffffff50
    1424:	2c2c2c2c 	stccs	12, cr2, [ip], #-176	; 0xffffff50
    1428:	2c2c2c2c 	stccs	12, cr2, [ip], #-176	; 0xffffff50
    142c:	2c2c2c2c 	stccs	12, cr2, [ip], #-176	; 0xffffff50
    1430:	2c2c2c2c 	stccs	12, cr2, [ip], #-176	; 0xffffff50
    1434:	2c2c2c2c 	stccs	12, cr2, [ip], #-176	; 0xffffff50
    1438:	2c2c2c2c 	stccs	12, cr2, [ip], #-176	; 0xffffff50
    143c:	0301042c 	movweq	r0, #5164	; 0x142c
    1440:	02027d98 	andeq	r7, r2, #152, 26	; 0x2600
    1444:	2c2c2c01 	stccs	12, cr2, [ip], #-4
    1448:	042c2c2c 	strteq	r2, [ip], #-3116	; 0xfffff3d4
    144c:	02e40306 	rsceq	r0, r4, #402653184	; 0x18000000
    1450:	2c010202 	sfmcs	f0, 4, [r1], {2}
    1454:	2c2c2c2c 	stccs	12, cr2, [ip], #-176	; 0xffffff50
    1458:	2c2c2c2c 	stccs	12, cr2, [ip], #-176	; 0xffffff50
    145c:	2c2c2c2c 	stccs	12, cr2, [ip], #-176	; 0xffffff50
    1460:	2c2c2c2c 	stccs	12, cr2, [ip], #-176	; 0xffffff50
    1464:	2c2c2c2c 	stccs	12, cr2, [ip], #-176	; 0xffffff50
    1468:	2c2c2c2c 	stccs	12, cr2, [ip], #-176	; 0xffffff50
    146c:	2c2c2c2c 	stccs	12, cr2, [ip], #-176	; 0xffffff50
    1470:	2c2c2c2c 	stccs	12, cr2, [ip], #-176	; 0xffffff50
    1474:	2c2c2c2c 	stccs	12, cr2, [ip], #-176	; 0xffffff50
    1478:	2c2c2c2c 	stccs	12, cr2, [ip], #-176	; 0xffffff50
    147c:	2c2c2c2c 	stccs	12, cr2, [ip], #-176	; 0xffffff50
    1480:	2c2c2c2c 	stccs	12, cr2, [ip], #-176	; 0xffffff50
    1484:	2c2c302d 	stccs	0, cr3, [ip], #-180	; 0xffffff4c
    1488:	2c2c2c2c 	stccs	12, cr2, [ip], #-176	; 0xffffff50
    148c:	2c2c2c2c 	stccs	12, cr2, [ip], #-176	; 0xffffff50
    1490:	2c2c2c2c 	stccs	12, cr2, [ip], #-176	; 0xffffff50
    1494:	2c2c2c2c 	stccs	12, cr2, [ip], #-176	; 0xffffff50
    1498:	2c2c2c2c 	stccs	12, cr2, [ip], #-176	; 0xffffff50
    149c:	2c2c2c2c 	stccs	12, cr2, [ip], #-176	; 0xffffff50
    14a0:	2c2c2c2c 	stccs	12, cr2, [ip], #-176	; 0xffffff50
    14a4:	2c2c2c2c 	stccs	12, cr2, [ip], #-176	; 0xffffff50
    14a8:	2c2c2c2c 	stccs	12, cr2, [ip], #-176	; 0xffffff50
    14ac:	2c2c2c2c 	stccs	12, cr2, [ip], #-176	; 0xffffff50
    14b0:	2c2c2c2c 	stccs	12, cr2, [ip], #-176	; 0xffffff50
    14b4:	2c2c2c2c 	stccs	12, cr2, [ip], #-176	; 0xffffff50
    14b8:	2c2c2c2c 	stccs	12, cr2, [ip], #-176	; 0xffffff50
    14bc:	2c2d2c2c 	stccs	12, cr2, [sp], #-176	; 0xffffff50
    14c0:	2c2c2c2c 	stccs	12, cr2, [ip], #-176	; 0xffffff50
    14c4:	2c2c2c2c 	stccs	12, cr2, [ip], #-176	; 0xffffff50
    14c8:	2c2c2c2c 	stccs	12, cr2, [ip], #-176	; 0xffffff50
    14cc:	2c2c2c2c 	stccs	12, cr2, [ip], #-176	; 0xffffff50
    14d0:	2c2c2c2c 	stccs	12, cr2, [ip], #-176	; 0xffffff50
    14d4:	2c2c2c2c 	stccs	12, cr2, [ip], #-176	; 0xffffff50
    14d8:	2c2c2c2c 	stccs	12, cr2, [ip], #-176	; 0xffffff50
    14dc:	2c2c2c2c 	stccs	12, cr2, [ip], #-176	; 0xffffff50
    14e0:	2c2c2c2c 	stccs	12, cr2, [ip], #-176	; 0xffffff50
    14e4:	ff030104 			; <UNDEFINED> instruction: 0xff030104
    14e8:	0102027b 	tsteq	r2, fp, ror r2
    14ec:	2c2c2c2c 	stccs	12, cr2, [ip], #-176	; 0xffffff50
    14f0:	06042c2c 	streq	r2, [r4], -ip, lsr #24
    14f4:	0203fd03 	andeq	pc, r3, #3, 26	; 0xc0
    14f8:	2c2c0102 	stfcss	f0, [ip], #-8
    14fc:	2c2c2c2c 	stccs	12, cr2, [ip], #-176	; 0xffffff50
    1500:	2c2c2c2c 	stccs	12, cr2, [ip], #-176	; 0xffffff50
    1504:	2c2c2c2c 	stccs	12, cr2, [ip], #-176	; 0xffffff50
    1508:	2c2c2c2d 	stccs	12, cr2, [ip], #-180	; 0xffffff4c
    150c:	2c2c2c2c 	stccs	12, cr2, [ip], #-176	; 0xffffff50
    1510:	2c2c2c2c 	stccs	12, cr2, [ip], #-176	; 0xffffff50
    1514:	2c2c2c2c 	stccs	12, cr2, [ip], #-176	; 0xffffff50
    1518:	2c2c2c2c 	stccs	12, cr2, [ip], #-176	; 0xffffff50
    151c:	2c2c2e2c 	stccs	14, cr2, [ip], #-176	; 0xffffff50
    1520:	2e2c2c2c 	cdpcs	12, 2, cr2, cr12, cr12, {1}
    1524:	2c2c2c2c 	stccs	12, cr2, [ip], #-176	; 0xffffff50
    1528:	2c2c2c2c 	stccs	12, cr2, [ip], #-176	; 0xffffff50
    152c:	2c2c2c2c 	stccs	12, cr2, [ip], #-176	; 0xffffff50
    1530:	2c2c2c2c 	stccs	12, cr2, [ip], #-176	; 0xffffff50
    1534:	2d2c2c2c 	stccs	12, cr2, [ip, #-176]!	; 0xffffff50
    1538:	2c2c2c2c 	stccs	12, cr2, [ip], #-176	; 0xffffff50
    153c:	2c2c2c2c 	stccs	12, cr2, [ip], #-176	; 0xffffff50
    1540:	2c2c2c2c 	stccs	12, cr2, [ip], #-176	; 0xffffff50
    1544:	2c2c2c2c 	stccs	12, cr2, [ip], #-176	; 0xffffff50
    1548:	2c2c2c2c 	stccs	12, cr2, [ip], #-176	; 0xffffff50
    154c:	2f2c2c2c 	svccs	0x002c2c2c
    1550:	2c2d2c30 	stccs	12, cr2, [sp], #-192	; 0xffffff40
    1554:	2c2c2c2d 	stccs	12, cr2, [ip], #-180	; 0xffffff4c
    1558:	2c2c2c2d 	stccs	12, cr2, [ip], #-180	; 0xffffff4c
    155c:	2c2c2c2c 	stccs	12, cr2, [ip], #-176	; 0xffffff50
    1560:	2c2c2c2c 	stccs	12, cr2, [ip], #-176	; 0xffffff50
    1564:	2c2c2c2c 	stccs	12, cr2, [ip], #-176	; 0xffffff50
    1568:	2c2d332c 	stccs	3, cr3, [sp], #-176	; 0xffffff50
    156c:	2c2c2d2c 	stccs	13, cr2, [ip], #-176	; 0xffffff50
    1570:	2c2c2d2c 	stccs	13, cr2, [ip], #-176	; 0xffffff50
    1574:	2c2c2c2c 	stccs	12, cr2, [ip], #-176	; 0xffffff50
    1578:	2c2c2c2c 	stccs	12, cr2, [ip], #-176	; 0xffffff50
    157c:	2c2c2c2c 	stccs	12, cr2, [ip], #-176	; 0xffffff50
    1580:	2c2c2c2c 	stccs	12, cr2, [ip], #-176	; 0xffffff50
    1584:	2c2c2c2c 	stccs	12, cr2, [ip], #-176	; 0xffffff50
    1588:	2c2c2c2c 	stccs	12, cr2, [ip], #-176	; 0xffffff50
    158c:	2c2c2c2c 	stccs	12, cr2, [ip], #-176	; 0xffffff50
    1590:	2c2c2c2c 	stccs	12, cr2, [ip], #-176	; 0xffffff50
    1594:	2c2c2c2c 	stccs	12, cr2, [ip], #-176	; 0xffffff50
    1598:	2c2c2c2c 	stccs	12, cr2, [ip], #-176	; 0xffffff50
    159c:	2c2c2c2c 	stccs	12, cr2, [ip], #-176	; 0xffffff50
    15a0:	2c2c2c2c 	stccs	12, cr2, [ip], #-176	; 0xffffff50
    15a4:	aa030704 	bge	c31bc <.debug_line+0xc31bc>
    15a8:	01020279 	tsteq	r2, r9, ror r2
    15ac:	2c2c2c2c 	stccs	12, cr2, [ip], #-176	; 0xffffff50
    15b0:	2c2c2c2c 	stccs	12, cr2, [ip], #-176	; 0xffffff50
    15b4:	2c2c2c2c 	stccs	12, cr2, [ip], #-176	; 0xffffff50
    15b8:	2c2c2c2c 	stccs	12, cr2, [ip], #-176	; 0xffffff50
    15bc:	2c2c2c2c 	stccs	12, cr2, [ip], #-176	; 0xffffff50
    15c0:	2c2c2c2c 	stccs	12, cr2, [ip], #-176	; 0xffffff50
    15c4:	2c2c2c2c 	stccs	12, cr2, [ip], #-176	; 0xffffff50
    15c8:	2c2c2c2c 	stccs	12, cr2, [ip], #-176	; 0xffffff50
    15cc:	2c2c2c2c 	stccs	12, cr2, [ip], #-176	; 0xffffff50
    15d0:	2c2c2c2c 	stccs	12, cr2, [ip], #-176	; 0xffffff50
    15d4:	2c2c2c2c 	stccs	12, cr2, [ip], #-176	; 0xffffff50
    15d8:	2c2c2c2c 	stccs	12, cr2, [ip], #-176	; 0xffffff50
    15dc:	2c2c2c2c 	stccs	12, cr2, [ip], #-176	; 0xffffff50
    15e0:	2c2c2c2c 	stccs	12, cr2, [ip], #-176	; 0xffffff50
    15e4:	2c2c2c2c 	stccs	12, cr2, [ip], #-176	; 0xffffff50
    15e8:	2c2c2c2c 	stccs	12, cr2, [ip], #-176	; 0xffffff50
    15ec:	20032c2c 	andcs	r2, r3, ip, lsr #24
    15f0:	2c014002 	stccs	0, cr4, [r1], {2}
    15f4:	2c2c2c2c 	stccs	12, cr2, [ip], #-176	; 0xffffff50
    15f8:	2c2c2c2c 	stccs	12, cr2, [ip], #-176	; 0xffffff50
    15fc:	0b032c2c 	bleq	cc6b4 <.debug_line+0xcc6b4>
    1600:	2c013908 			; <UNDEFINED> instruction: 0x2c013908
    1604:	2c2c2c2c 	stccs	12, cr2, [ip], #-176	; 0xffffff50
    1608:	2c2c2c2c 	stccs	12, cr2, [ip], #-176	; 0xffffff50
    160c:	2c2c2c2c 	stccs	12, cr2, [ip], #-176	; 0xffffff50
    1610:	2c2c2c2c 	stccs	12, cr2, [ip], #-176	; 0xffffff50
    1614:	2c2c2c2c 	stccs	12, cr2, [ip], #-176	; 0xffffff50
    1618:	2c2c2c2c 	stccs	12, cr2, [ip], #-176	; 0xffffff50
    161c:	2c2c2c2c 	stccs	12, cr2, [ip], #-176	; 0xffffff50
    1620:	2c2c2c2c 	stccs	12, cr2, [ip], #-176	; 0xffffff50
    1624:	2c2c2c2c 	stccs	12, cr2, [ip], #-176	; 0xffffff50
    1628:	2c2c2c2c 	stccs	12, cr2, [ip], #-176	; 0xffffff50
    162c:	2c2c2c2c 	stccs	12, cr2, [ip], #-176	; 0xffffff50
    1630:	2c2c2c2c 	stccs	12, cr2, [ip], #-176	; 0xffffff50
    1634:	2c2c2c2c 	stccs	12, cr2, [ip], #-176	; 0xffffff50
    1638:	2c2c2c2c 	stccs	12, cr2, [ip], #-176	; 0xffffff50
    163c:	39080a03 	stmdbcc	r8, {r0, r1, r9, fp}
    1640:	2c2c2c01 	stccs	12, cr2, [ip], #-4
    1644:	2c2c2c2c 	stccs	12, cr2, [ip], #-176	; 0xffffff50
    1648:	2c2c2c2c 	stccs	12, cr2, [ip], #-176	; 0xffffff50
    164c:	2c2c2c2c 	stccs	12, cr2, [ip], #-176	; 0xffffff50
    1650:	2c2c2c2c 	stccs	12, cr2, [ip], #-176	; 0xffffff50
    1654:	2c2c2c2c 	stccs	12, cr2, [ip], #-176	; 0xffffff50
    1658:	2c2c2c2c 	stccs	12, cr2, [ip], #-176	; 0xffffff50
    165c:	2c2c2c2c 	stccs	12, cr2, [ip], #-176	; 0xffffff50
    1660:	2c2c2c2c 	stccs	12, cr2, [ip], #-176	; 0xffffff50
    1664:	2c2c2c2c 	stccs	12, cr2, [ip], #-176	; 0xffffff50
    1668:	2c2c2c2c 	stccs	12, cr2, [ip], #-176	; 0xffffff50
    166c:	2c2c2c2c 	stccs	12, cr2, [ip], #-176	; 0xffffff50
    1670:	2c2c2c2c 	stccs	12, cr2, [ip], #-176	; 0xffffff50
    1674:	2c2c2c2c 	stccs	12, cr2, [ip], #-176	; 0xffffff50
    1678:	2c2c2c2c 	stccs	12, cr2, [ip], #-176	; 0xffffff50
    167c:	2c2c2c2c 	stccs	12, cr2, [ip], #-176	; 0xffffff50
    1680:	2c2c2c2c 	stccs	12, cr2, [ip], #-176	; 0xffffff50
    1684:	2c2c2c2c 	stccs	12, cr2, [ip], #-176	; 0xffffff50
    1688:	2c2c2c2c 	stccs	12, cr2, [ip], #-176	; 0xffffff50
    168c:	2c2c2c2c 	stccs	12, cr2, [ip], #-176	; 0xffffff50
    1690:	2c2c2c2c 	stccs	12, cr2, [ip], #-176	; 0xffffff50
    1694:	2c2c2c2c 	stccs	12, cr2, [ip], #-176	; 0xffffff50
    1698:	2c2c2c2c 	stccs	12, cr2, [ip], #-176	; 0xffffff50
    169c:	2c2c2c2c 	stccs	12, cr2, [ip], #-176	; 0xffffff50
    16a0:	2c2c2c2c 	stccs	12, cr2, [ip], #-176	; 0xffffff50
    16a4:	2c2c2c2c 	stccs	12, cr2, [ip], #-176	; 0xffffff50
    16a8:	2c2c2c2c 	stccs	12, cr2, [ip], #-176	; 0xffffff50
    16ac:	2c2c2c2c 	stccs	12, cr2, [ip], #-176	; 0xffffff50
    16b0:	2c2c2c2c 	stccs	12, cr2, [ip], #-176	; 0xffffff50
    16b4:	2c2c2c2c 	stccs	12, cr2, [ip], #-176	; 0xffffff50
    16b8:	2c2c2c2c 	stccs	12, cr2, [ip], #-176	; 0xffffff50
    16bc:	2c2c2c2c 	stccs	12, cr2, [ip], #-176	; 0xffffff50
    16c0:	2c2c2c2c 	stccs	12, cr2, [ip], #-176	; 0xffffff50
    16c4:	2c2c2c2c 	stccs	12, cr2, [ip], #-176	; 0xffffff50
    16c8:	2c2c2c2c 	stccs	12, cr2, [ip], #-176	; 0xffffff50
    16cc:	2c2c2c2c 	stccs	12, cr2, [ip], #-176	; 0xffffff50
    16d0:	2c2c2c2c 	stccs	12, cr2, [ip], #-176	; 0xffffff50
    16d4:	2c2c2c2c 	stccs	12, cr2, [ip], #-176	; 0xffffff50
    16d8:	2c2c2c2c 	stccs	12, cr2, [ip], #-176	; 0xffffff50
    16dc:	2c2c2c2c 	stccs	12, cr2, [ip], #-176	; 0xffffff50
    16e0:	2cf72c2c 	ldclcs	12, cr2, [r7], #176	; 0xb0
    16e4:	2c2c2c2c 	stccs	12, cr2, [ip], #-176	; 0xffffff50
    16e8:	2c2c2c2c 	stccs	12, cr2, [ip], #-176	; 0xffffff50
    16ec:	2c2c2c2c 	stccs	12, cr2, [ip], #-176	; 0xffffff50
    16f0:	2c2c2c2c 	stccs	12, cr2, [ip], #-176	; 0xffffff50
    16f4:	2c2c2c2c 	stccs	12, cr2, [ip], #-176	; 0xffffff50
    16f8:	2c2c2c2c 	stccs	12, cr2, [ip], #-176	; 0xffffff50
    16fc:	2c2c2c2c 	stccs	12, cr2, [ip], #-176	; 0xffffff50
    1700:	2c2c2c2c 	stccs	12, cr2, [ip], #-176	; 0xffffff50
    1704:	2c2c2c2c 	stccs	12, cr2, [ip], #-176	; 0xffffff50
    1708:	2c2c2c2c 	stccs	12, cr2, [ip], #-176	; 0xffffff50
    170c:	2c2c2c2c 	stccs	12, cr2, [ip], #-176	; 0xffffff50
    1710:	2c2c2c2c 	stccs	12, cr2, [ip], #-176	; 0xffffff50
    1714:	2c2c2c2c 	stccs	12, cr2, [ip], #-176	; 0xffffff50
    1718:	2c2c2c2c 	stccs	12, cr2, [ip], #-176	; 0xffffff50
    171c:	2c2c2c2c 	stccs	12, cr2, [ip], #-176	; 0xffffff50
    1720:	2c2c2c2c 	stccs	12, cr2, [ip], #-176	; 0xffffff50
    1724:	2c2c2c2c 	stccs	12, cr2, [ip], #-176	; 0xffffff50
    1728:	2c2c2c2c 	stccs	12, cr2, [ip], #-176	; 0xffffff50
    172c:	2c2c2c2c 	stccs	12, cr2, [ip], #-176	; 0xffffff50
    1730:	2c2c2c2c 	stccs	12, cr2, [ip], #-176	; 0xffffff50
    1734:	2c2c2c2c 	stccs	12, cr2, [ip], #-176	; 0xffffff50
    1738:	2c2c2c2c 	stccs	12, cr2, [ip], #-176	; 0xffffff50
    173c:	2c2c2c2c 	stccs	12, cr2, [ip], #-176	; 0xffffff50
    1740:	2c2c2c2c 	stccs	12, cr2, [ip], #-176	; 0xffffff50
    1744:	2c2c2c2c 	stccs	12, cr2, [ip], #-176	; 0xffffff50
    1748:	2c2c2c2c 	stccs	12, cr2, [ip], #-176	; 0xffffff50
    174c:	2c2c2c2c 	stccs	12, cr2, [ip], #-176	; 0xffffff50
    1750:	2c2c2c2c 	stccs	12, cr2, [ip], #-176	; 0xffffff50
    1754:	832c2c2c 			; <UNDEFINED> instruction: 0x832c2c2c
    1758:	2c2c2c2c 	stccs	12, cr2, [ip], #-176	; 0xffffff50
    175c:	2c2c2c2c 	stccs	12, cr2, [ip], #-176	; 0xffffff50
    1760:	2c2c2c2c 	stccs	12, cr2, [ip], #-176	; 0xffffff50
    1764:	2c2c2c2c 	stccs	12, cr2, [ip], #-176	; 0xffffff50
    1768:	2c2c2c2c 	stccs	12, cr2, [ip], #-176	; 0xffffff50
    176c:	2c2c2c2c 	stccs	12, cr2, [ip], #-176	; 0xffffff50
    1770:	2c2c822c 	sfmcs	f0, 1, [ip], #-176	; 0xffffff50
    1774:	2c2c2c2c 	stccs	12, cr2, [ip], #-176	; 0xffffff50
    1778:	2c2c2c2c 	stccs	12, cr2, [ip], #-176	; 0xffffff50
    177c:	2c2c2c2c 	stccs	12, cr2, [ip], #-176	; 0xffffff50
    1780:	2c2c2c2c 	stccs	12, cr2, [ip], #-176	; 0xffffff50
    1784:	2c2c2c2c 	stccs	12, cr2, [ip], #-176	; 0xffffff50
    1788:	2c2c2c2c 	stccs	12, cr2, [ip], #-176	; 0xffffff50
    178c:	2d2c2c2c 	stccs	12, cr2, [ip, #-176]!	; 0xffffff50
    1790:	2c2c2c2c 	stccs	12, cr2, [ip], #-176	; 0xffffff50
    1794:	2c2c2c2c 	stccs	12, cr2, [ip], #-176	; 0xffffff50
    1798:	2c2c2c2c 	stccs	12, cr2, [ip], #-176	; 0xffffff50
    179c:	2c2c2c2c 	stccs	12, cr2, [ip], #-176	; 0xffffff50
    17a0:	2c2c2c2c 	stccs	12, cr2, [ip], #-176	; 0xffffff50
    17a4:	2c2c2c2c 	stccs	12, cr2, [ip], #-176	; 0xffffff50
    17a8:	2c2c2c2c 	stccs	12, cr2, [ip], #-176	; 0xffffff50
    17ac:	2c2c2c2c 	stccs	12, cr2, [ip], #-176	; 0xffffff50
    17b0:	2c2c2c2c 	stccs	12, cr2, [ip], #-176	; 0xffffff50
    17b4:	2c2c2c2c 	stccs	12, cr2, [ip], #-176	; 0xffffff50
    17b8:	2c2c2c30 	stccs	12, cr2, [ip], #-192	; 0xffffff40
    17bc:	2c2c2c2c 	stccs	12, cr2, [ip], #-176	; 0xffffff50
    17c0:	2c2c2c2c 	stccs	12, cr2, [ip], #-176	; 0xffffff50
    17c4:	2c2c2c2c 	stccs	12, cr2, [ip], #-176	; 0xffffff50
    17c8:	2c2c2c2c 	stccs	12, cr2, [ip], #-176	; 0xffffff50
    17cc:	2c2c2c2c 	stccs	12, cr2, [ip], #-176	; 0xffffff50
    17d0:	2c2c2c2c 	stccs	12, cr2, [ip], #-176	; 0xffffff50
    17d4:	2c2c2c2c 	stccs	12, cr2, [ip], #-176	; 0xffffff50
    17d8:	2c2c2c2c 	stccs	12, cr2, [ip], #-176	; 0xffffff50
    17dc:	2c2c2c2c 	stccs	12, cr2, [ip], #-176	; 0xffffff50
    17e0:	2c2c2c2c 	stccs	12, cr2, [ip], #-176	; 0xffffff50
    17e4:	2c2c2c2c 	stccs	12, cr2, [ip], #-176	; 0xffffff50
    17e8:	2c2c2c2c 	stccs	12, cr2, [ip], #-176	; 0xffffff50
    17ec:	2c2c2c2c 	stccs	12, cr2, [ip], #-176	; 0xffffff50
    17f0:	2c2c2c2c 	stccs	12, cr2, [ip], #-176	; 0xffffff50
    17f4:	2e2c2c2c 	cdpcs	12, 2, cr2, cr12, cr12, {1}
    17f8:	2c2c2c2c 	stccs	12, cr2, [ip], #-176	; 0xffffff50
    17fc:	2c2c2c2c 	stccs	12, cr2, [ip], #-176	; 0xffffff50
    1800:	2c2c2c2c 	stccs	12, cr2, [ip], #-176	; 0xffffff50
    1804:	2c2c2c2c 	stccs	12, cr2, [ip], #-176	; 0xffffff50
    1808:	2c2c2c2c 	stccs	12, cr2, [ip], #-176	; 0xffffff50
    180c:	28021403 	stmdacs	r2, {r0, r1, sl, ip}
    1810:	2d2c2c01 	stccs	12, cr2, [ip, #-4]!
    1814:	2c2c2c2c 	stccs	12, cr2, [ip], #-176	; 0xffffff50
    1818:	2c2c2c2c 	stccs	12, cr2, [ip], #-176	; 0xffffff50
    181c:	2c2c2c2c 	stccs	12, cr2, [ip], #-176	; 0xffffff50
    1820:	2c2c2c2c 	stccs	12, cr2, [ip], #-176	; 0xffffff50
    1824:	2c2c2c2c 	stccs	12, cr2, [ip], #-176	; 0xffffff50
    1828:	2c2c2c2c 	stccs	12, cr2, [ip], #-176	; 0xffffff50
    182c:	2c2c2c2c 	stccs	12, cr2, [ip], #-176	; 0xffffff50
    1830:	2c2c2c2c 	stccs	12, cr2, [ip], #-176	; 0xffffff50
    1834:	2c2c2c2c 	stccs	12, cr2, [ip], #-176	; 0xffffff50
    1838:	2c2c2c2c 	stccs	12, cr2, [ip], #-176	; 0xffffff50
    183c:	a9030804 	stmdbge	r3, {r2, fp}
    1840:	0102027a 	tsteq	r2, sl, ror r2
    1844:	2c2c2c2c 	stccs	12, cr2, [ip], #-176	; 0xffffff50
    1848:	2c2c2c2c 	stccs	12, cr2, [ip], #-176	; 0xffffff50
    184c:	2c2c2c2c 	stccs	12, cr2, [ip], #-176	; 0xffffff50
    1850:	2c2c2c2c 	stccs	12, cr2, [ip], #-176	; 0xffffff50
    1854:	2c2c2c2c 	stccs	12, cr2, [ip], #-176	; 0xffffff50
    1858:	2c2c2c2c 	stccs	12, cr2, [ip], #-176	; 0xffffff50
    185c:	2c2c2c2c 	stccs	12, cr2, [ip], #-176	; 0xffffff50
    1860:	2c2c2c2c 	stccs	12, cr2, [ip], #-176	; 0xffffff50
    1864:	2c2c2c30 	stccs	12, cr2, [ip], #-192	; 0xffffff40
    1868:	2c2c2c2c 	stccs	12, cr2, [ip], #-176	; 0xffffff50
    186c:	2c2c2c2c 	stccs	12, cr2, [ip], #-176	; 0xffffff50
    1870:	2c2c2c2c 	stccs	12, cr2, [ip], #-176	; 0xffffff50
    1874:	2c2c2c2c 	stccs	12, cr2, [ip], #-176	; 0xffffff50
    1878:	2c2c2c2c 	stccs	12, cr2, [ip], #-176	; 0xffffff50
    187c:	2c2c2c2c 	stccs	12, cr2, [ip], #-176	; 0xffffff50
    1880:	2c2c2c2c 	stccs	12, cr2, [ip], #-176	; 0xffffff50
    1884:	2c2c2c2c 	stccs	12, cr2, [ip], #-176	; 0xffffff50
    1888:	2c2c2c2c 	stccs	12, cr2, [ip], #-176	; 0xffffff50
    188c:	2c2c2c2c 	stccs	12, cr2, [ip], #-176	; 0xffffff50
    1890:	2c2c2c2c 	stccs	12, cr2, [ip], #-176	; 0xffffff50
    1894:	032c2c2c 			; <UNDEFINED> instruction: 0x032c2c2c
    1898:	01820211 	orreq	r0, r2, r1, lsl r2
    189c:	2c2c2c01 	stccs	12, cr2, [ip], #-4
    18a0:	02020c03 	andeq	r0, r2, #768	; 0x300
    18a4:	2c2d2c01 	stccs	12, cr2, [sp], #-4
    18a8:	2c2c2c2c 	stccs	12, cr2, [ip], #-176	; 0xffffff50
    18ac:	2c2c2c2c 	stccs	12, cr2, [ip], #-176	; 0xffffff50
    18b0:	2c2c2c2c 	stccs	12, cr2, [ip], #-176	; 0xffffff50
    18b4:	2c2c2c2c 	stccs	12, cr2, [ip], #-176	; 0xffffff50
    18b8:	2c2c2c2c 	stccs	12, cr2, [ip], #-176	; 0xffffff50
    18bc:	2c2c2c2c 	stccs	12, cr2, [ip], #-176	; 0xffffff50
    18c0:	2c2c2c2c 	stccs	12, cr2, [ip], #-176	; 0xffffff50
    18c4:	2c2c2c2c 	stccs	12, cr2, [ip], #-176	; 0xffffff50
    18c8:	2c2c2c2c 	stccs	12, cr2, [ip], #-176	; 0xffffff50
    18cc:	2c2c2c2c 	stccs	12, cr2, [ip], #-176	; 0xffffff50
    18d0:	2c2c2c2c 	stccs	12, cr2, [ip], #-176	; 0xffffff50
    18d4:	2c2c2c2c 	stccs	12, cr2, [ip], #-176	; 0xffffff50
    18d8:	2c2c2c2c 	stccs	12, cr2, [ip], #-176	; 0xffffff50
    18dc:	2c2c2c2c 	stccs	12, cr2, [ip], #-176	; 0xffffff50
    18e0:	2c2c2c2c 	stccs	12, cr2, [ip], #-176	; 0xffffff50
    18e4:	2c2c2c2c 	stccs	12, cr2, [ip], #-176	; 0xffffff50
    18e8:	2c2c2c2c 	stccs	12, cr2, [ip], #-176	; 0xffffff50
    18ec:	2c2c2c2c 	stccs	12, cr2, [ip], #-176	; 0xffffff50
    18f0:	2c2c2c2c 	stccs	12, cr2, [ip], #-176	; 0xffffff50
    18f4:	2c2c2c2c 	stccs	12, cr2, [ip], #-176	; 0xffffff50
    18f8:	2c2c2c2c 	stccs	12, cr2, [ip], #-176	; 0xffffff50
    18fc:	2c2c2c2c 	stccs	12, cr2, [ip], #-176	; 0xffffff50
    1900:	2c2c2c2c 	stccs	12, cr2, [ip], #-176	; 0xffffff50
    1904:	2c2c2c2c 	stccs	12, cr2, [ip], #-176	; 0xffffff50
    1908:	2c2c2c2c 	stccs	12, cr2, [ip], #-176	; 0xffffff50
    190c:	2c2c2c2c 	stccs	12, cr2, [ip], #-176	; 0xffffff50
    1910:	2c2c2c2c 	stccs	12, cr2, [ip], #-176	; 0xffffff50
    1914:	2c2c2c2c 	stccs	12, cr2, [ip], #-176	; 0xffffff50
    1918:	2c2c2c2c 	stccs	12, cr2, [ip], #-176	; 0xffffff50
    191c:	2c2c2c2c 	stccs	12, cr2, [ip], #-176	; 0xffffff50
    1920:	2c2c2c2c 	stccs	12, cr2, [ip], #-176	; 0xffffff50
    1924:	2c2c2c2c 	stccs	12, cr2, [ip], #-176	; 0xffffff50
    1928:	2c2c2c2c 	stccs	12, cr2, [ip], #-176	; 0xffffff50
    192c:	2c2c2c2c 	stccs	12, cr2, [ip], #-176	; 0xffffff50
    1930:	2c2c2c2c 	stccs	12, cr2, [ip], #-176	; 0xffffff50
    1934:	2c2c2c2c 	stccs	12, cr2, [ip], #-176	; 0xffffff50
    1938:	2c2c2c2c 	stccs	12, cr2, [ip], #-176	; 0xffffff50
    193c:	2c2c2c2c 	stccs	12, cr2, [ip], #-176	; 0xffffff50
    1940:	2c2c2c2c 	stccs	12, cr2, [ip], #-176	; 0xffffff50
    1944:	2c2c2c2c 	stccs	12, cr2, [ip], #-176	; 0xffffff50
    1948:	2c2c2c2c 	stccs	12, cr2, [ip], #-176	; 0xffffff50
    194c:	2c2c2c2c 	stccs	12, cr2, [ip], #-176	; 0xffffff50
    1950:	2c2c2c2c 	stccs	12, cr2, [ip], #-176	; 0xffffff50
    1954:	2c2c2c2c 	stccs	12, cr2, [ip], #-176	; 0xffffff50
    1958:	2c2c2c2c 	stccs	12, cr2, [ip], #-176	; 0xffffff50
    195c:	2c2c2c2c 	stccs	12, cr2, [ip], #-176	; 0xffffff50
    1960:	2c2c332d 	stccs	3, cr3, [ip], #-180	; 0xffffff4c
    1964:	2c2c2c2c 	stccs	12, cr2, [ip], #-176	; 0xffffff50
    1968:	2c2c2c2c 	stccs	12, cr2, [ip], #-176	; 0xffffff50
    196c:	2c2c2c2c 	stccs	12, cr2, [ip], #-176	; 0xffffff50
    1970:	2c2c2c2c 	stccs	12, cr2, [ip], #-176	; 0xffffff50
    1974:	2c2c2c2c 	stccs	12, cr2, [ip], #-176	; 0xffffff50
    1978:	2c2c2c2c 	stccs	12, cr2, [ip], #-176	; 0xffffff50
    197c:	2c2c2c2c 	stccs	12, cr2, [ip], #-176	; 0xffffff50
    1980:	2d2c2c2c 	stccs	12, cr2, [ip, #-176]!	; 0xffffff50
    1984:	2c2c2c2c 	stccs	12, cr2, [ip], #-176	; 0xffffff50
    1988:	2c2c2c2c 	stccs	12, cr2, [ip], #-176	; 0xffffff50
    198c:	2c2c2c2c 	stccs	12, cr2, [ip], #-176	; 0xffffff50
    1990:	2c2c2c2c 	stccs	12, cr2, [ip], #-176	; 0xffffff50
    1994:	2c2c2c2c 	stccs	12, cr2, [ip], #-176	; 0xffffff50
    1998:	2c2c2c2c 	stccs	12, cr2, [ip], #-176	; 0xffffff50
    199c:	2c2c2c2c 	stccs	12, cr2, [ip], #-176	; 0xffffff50
    19a0:	2d2c2c2c 	stccs	12, cr2, [ip, #-176]!	; 0xffffff50
    19a4:	2c2c2c2c 	stccs	12, cr2, [ip], #-176	; 0xffffff50
    19a8:	2c2c2c2c 	stccs	12, cr2, [ip], #-176	; 0xffffff50
    19ac:	2c2e2c2c 	stccs	12, cr2, [lr], #-176	; 0xffffff50
    19b0:	2c2c2c2c 	stccs	12, cr2, [ip], #-176	; 0xffffff50
    19b4:	2c2c2c2c 	stccs	12, cr2, [ip], #-176	; 0xffffff50
    19b8:	2c2c2c2c 	stccs	12, cr2, [ip], #-176	; 0xffffff50
    19bc:	2c2c2c2c 	stccs	12, cr2, [ip], #-176	; 0xffffff50
    19c0:	2c2c2c2c 	stccs	12, cr2, [ip], #-176	; 0xffffff50
    19c4:	2c2c2c2c 	stccs	12, cr2, [ip], #-176	; 0xffffff50
    19c8:	2c2c2c2c 	stccs	12, cr2, [ip], #-176	; 0xffffff50
    19cc:	2c2c2c2c 	stccs	12, cr2, [ip], #-176	; 0xffffff50
    19d0:	2c2c2c2c 	stccs	12, cr2, [ip], #-176	; 0xffffff50
    19d4:	2c2c2c2c 	stccs	12, cr2, [ip], #-176	; 0xffffff50
    19d8:	2c2c2c2c 	stccs	12, cr2, [ip], #-176	; 0xffffff50
    19dc:	2c2c2c2c 	stccs	12, cr2, [ip], #-176	; 0xffffff50
    19e0:	2c2c2c2c 	stccs	12, cr2, [ip], #-176	; 0xffffff50
    19e4:	2c2c2c2c 	stccs	12, cr2, [ip], #-176	; 0xffffff50
    19e8:	2c2c2c2c 	stccs	12, cr2, [ip], #-176	; 0xffffff50
    19ec:	2c2c2c2c 	stccs	12, cr2, [ip], #-176	; 0xffffff50
    19f0:	2c2c2c2c 	stccs	12, cr2, [ip], #-176	; 0xffffff50
    19f4:	2c2c2c2c 	stccs	12, cr2, [ip], #-176	; 0xffffff50
    19f8:	2c2c2c2c 	stccs	12, cr2, [ip], #-176	; 0xffffff50
    19fc:	2c2c2c2c 	stccs	12, cr2, [ip], #-176	; 0xffffff50
    1a00:	312c2c2c 			; <UNDEFINED> instruction: 0x312c2c2c
    1a04:	2c2c2c2c 	stccs	12, cr2, [ip], #-176	; 0xffffff50
    1a08:	2c2c2c2c 	stccs	12, cr2, [ip], #-176	; 0xffffff50
    1a0c:	2c2c2c2c 	stccs	12, cr2, [ip], #-176	; 0xffffff50
    1a10:	2c2c2c2c 	stccs	12, cr2, [ip], #-176	; 0xffffff50
    1a14:	2c2c2c2c 	stccs	12, cr2, [ip], #-176	; 0xffffff50
    1a18:	2c2c2c2c 	stccs	12, cr2, [ip], #-176	; 0xffffff50
    1a1c:	2c2c2c2c 	stccs	12, cr2, [ip], #-176	; 0xffffff50
    1a20:	2c2c2c2c 	stccs	12, cr2, [ip], #-176	; 0xffffff50
    1a24:	2c2c2c2c 	stccs	12, cr2, [ip], #-176	; 0xffffff50
    1a28:	2c2c2c2c 	stccs	12, cr2, [ip], #-176	; 0xffffff50
    1a2c:	2c2c2c2c 	stccs	12, cr2, [ip], #-176	; 0xffffff50
    1a30:	2c2c2c2c 	stccs	12, cr2, [ip], #-176	; 0xffffff50
    1a34:	2c2c2c2c 	stccs	12, cr2, [ip], #-176	; 0xffffff50
    1a38:	2c2c2c2c 	stccs	12, cr2, [ip], #-176	; 0xffffff50
    1a3c:	2c2c2c2c 	stccs	12, cr2, [ip], #-176	; 0xffffff50
    1a40:	2c2c2c2c 	stccs	12, cr2, [ip], #-176	; 0xffffff50
    1a44:	2c2c2c2c 	stccs	12, cr2, [ip], #-176	; 0xffffff50
    1a48:	2c2c2c2c 	stccs	12, cr2, [ip], #-176	; 0xffffff50
    1a4c:	2c2c2c2c 	stccs	12, cr2, [ip], #-176	; 0xffffff50
    1a50:	2c2c2c2c 	stccs	12, cr2, [ip], #-176	; 0xffffff50
    1a54:	2c2c2c2c 	stccs	12, cr2, [ip], #-176	; 0xffffff50
    1a58:	2c2c2c2c 	stccs	12, cr2, [ip], #-176	; 0xffffff50
    1a5c:	2c2c2c2c 	stccs	12, cr2, [ip], #-176	; 0xffffff50
    1a60:	2c2c2c2c 	stccs	12, cr2, [ip], #-176	; 0xffffff50
    1a64:	2c2c2c2c 	stccs	12, cr2, [ip], #-176	; 0xffffff50
    1a68:	2c2c2c2c 	stccs	12, cr2, [ip], #-176	; 0xffffff50
    1a6c:	2c2c2c2c 	stccs	12, cr2, [ip], #-176	; 0xffffff50
    1a70:	2c2c2c2c 	stccs	12, cr2, [ip], #-176	; 0xffffff50
    1a74:	2c2c2c2c 	stccs	12, cr2, [ip], #-176	; 0xffffff50
    1a78:	2c2c2c2c 	stccs	12, cr2, [ip], #-176	; 0xffffff50
    1a7c:	2c2c2c2c 	stccs	12, cr2, [ip], #-176	; 0xffffff50
    1a80:	2c2c2c2c 	stccs	12, cr2, [ip], #-176	; 0xffffff50
    1a84:	2c2c2c2c 	stccs	12, cr2, [ip], #-176	; 0xffffff50
    1a88:	2c2c2c2c 	stccs	12, cr2, [ip], #-176	; 0xffffff50
    1a8c:	2c2c2c2c 	stccs	12, cr2, [ip], #-176	; 0xffffff50
    1a90:	2c2c2c2c 	stccs	12, cr2, [ip], #-176	; 0xffffff50
    1a94:	2c2c2c2c 	stccs	12, cr2, [ip], #-176	; 0xffffff50
    1a98:	2c2c2c2c 	stccs	12, cr2, [ip], #-176	; 0xffffff50
    1a9c:	2c2c2c2c 	stccs	12, cr2, [ip], #-176	; 0xffffff50
    1aa0:	2d2c2c2c 	stccs	12, cr2, [ip, #-176]!	; 0xffffff50
    1aa4:	2c2c2c2c 	stccs	12, cr2, [ip], #-176	; 0xffffff50
    1aa8:	2c2c2c2c 	stccs	12, cr2, [ip], #-176	; 0xffffff50
    1aac:	2c2c2c2c 	stccs	12, cr2, [ip], #-176	; 0xffffff50
    1ab0:	2c2c2c2c 	stccs	12, cr2, [ip], #-176	; 0xffffff50
    1ab4:	2c2c2c2c 	stccs	12, cr2, [ip], #-176	; 0xffffff50
    1ab8:	2c2c2c2c 	stccs	12, cr2, [ip], #-176	; 0xffffff50
    1abc:	2c2c2c2c 	stccs	12, cr2, [ip], #-176	; 0xffffff50
    1ac0:	2c2c2c2c 	stccs	12, cr2, [ip], #-176	; 0xffffff50
    1ac4:	2c2c2c2c 	stccs	12, cr2, [ip], #-176	; 0xffffff50
    1ac8:	2c2c2c2c 	stccs	12, cr2, [ip], #-176	; 0xffffff50
    1acc:	2c2c2c2c 	stccs	12, cr2, [ip], #-176	; 0xffffff50
    1ad0:	2c2c2c2c 	stccs	12, cr2, [ip], #-176	; 0xffffff50
    1ad4:	2c2c2c2c 	stccs	12, cr2, [ip], #-176	; 0xffffff50
    1ad8:	2c2c2c2c 	stccs	12, cr2, [ip], #-176	; 0xffffff50
    1adc:	0301042c 	movweq	r0, #5164	; 0x142c
    1ae0:	02027bc0 	andeq	r7, r2, #192, 22	; 0x30000
    1ae4:	03080401 	movweq	r0, #33793	; 0x8401
    1ae8:	020204c2 	andeq	r0, r2, #-1040187392	; 0xc2000000
    1aec:	2c2c2c01 	stccs	12, cr2, [ip], #-4
    1af0:	2c2c2c2c 	stccs	12, cr2, [ip], #-176	; 0xffffff50
    1af4:	2c2c2c2c 	stccs	12, cr2, [ip], #-176	; 0xffffff50
    1af8:	2c2c2c2c 	stccs	12, cr2, [ip], #-176	; 0xffffff50
    1afc:	2c2c2c2c 	stccs	12, cr2, [ip], #-176	; 0xffffff50
    1b00:	10032c2d 	andne	r2, r3, sp, lsr #24
    1b04:	2c010202 	sfmcs	f0, 4, [r1], {2}
    1b08:	2c2c2c2c 	stccs	12, cr2, [ip], #-176	; 0xffffff50
    1b0c:	2c2c2c2c 	stccs	12, cr2, [ip], #-176	; 0xffffff50
    1b10:	01042c2c 	tsteq	r4, ip, lsr #24
    1b14:	027b8d03 	rsbseq	r8, fp, #3, 26	; 0xc0
    1b18:	08040102 	stmdaeq	r4, {r1, r8}
    1b1c:	0204f503 	andeq	pc, r4, #12582912	; 0xc00000
    1b20:	2c2c0102 	stfcss	f0, [ip], #-8
    1b24:	2c2c2c2c 	stccs	12, cr2, [ip], #-176	; 0xffffff50
    1b28:	2c2c2c2c 	stccs	12, cr2, [ip], #-176	; 0xffffff50
    1b2c:	2c2c2c2c 	stccs	12, cr2, [ip], #-176	; 0xffffff50
    1b30:	2c2c2c2c 	stccs	12, cr2, [ip], #-176	; 0xffffff50
    1b34:	2c2c2c2c 	stccs	12, cr2, [ip], #-176	; 0xffffff50
    1b38:	01042c2c 	tsteq	r4, ip, lsr #24
    1b3c:	027af303 	rsbseq	pc, sl, #201326592	; 0xc000000
    1b40:	08040102 	stmdaeq	r4, {r1, r8}
    1b44:	02058f03 	andeq	r8, r5, #3, 30
    1b48:	2c2c0102 	stfcss	f0, [ip], #-8
    1b4c:	2c2c2c2c 	stccs	12, cr2, [ip], #-176	; 0xffffff50
    1b50:	2c2c2c2c 	stccs	12, cr2, [ip], #-176	; 0xffffff50
    1b54:	2c2c2c2c 	stccs	12, cr2, [ip], #-176	; 0xffffff50
    1b58:	2c2c2c2c 	stccs	12, cr2, [ip], #-176	; 0xffffff50
    1b5c:	2c2c2c2c 	stccs	12, cr2, [ip], #-176	; 0xffffff50
    1b60:	db030104 	blle	c1f78 <.debug_line+0xc1f78>
    1b64:	0102027a 	tsteq	r2, sl, ror r2
    1b68:	a7030804 	strge	r0, [r3, -r4, lsl #16]
    1b6c:	01020205 	tsteq	r2, r5, lsl #4
    1b70:	2c2c2c2c 	stccs	12, cr2, [ip], #-176	; 0xffffff50
    1b74:	2c2c2c2c 	stccs	12, cr2, [ip], #-176	; 0xffffff50
    1b78:	2c2c2c2c 	stccs	12, cr2, [ip], #-176	; 0xffffff50
    1b7c:	c9030904 	stmdbgt	r3, {r2, r8, fp}
    1b80:	01020279 	tsteq	r2, r9, ror r2
    1b84:	2c2c2c2c 	stccs	12, cr2, [ip], #-176	; 0xffffff50
    1b88:	2c2c2d2c 	stccs	13, cr2, [ip], #-176	; 0xffffff50
    1b8c:	2c2c2c2c 	stccs	12, cr2, [ip], #-176	; 0xffffff50
    1b90:	02028603 	andeq	r8, r2, #3145728	; 0x300000
    1b94:	2c010482 	cfstrscs	mvf0, [r1], {130}	; 0x82
    1b98:	2c4a2c2c 	mcrrcs	12, 2, r2, sl, cr12
    1b9c:	2c2c2c2c 	stccs	12, cr2, [ip], #-176	; 0xffffff50
    1ba0:	2c2c2c2c 	stccs	12, cr2, [ip], #-176	; 0xffffff50
    1ba4:	2c2c2c2c 	stccs	12, cr2, [ip], #-176	; 0xffffff50
    1ba8:	2c2c2c2c 	stccs	12, cr2, [ip], #-176	; 0xffffff50
    1bac:	2c2c2c2c 	stccs	12, cr2, [ip], #-176	; 0xffffff50
    1bb0:	2c2c2c2c 	stccs	12, cr2, [ip], #-176	; 0xffffff50
    1bb4:	2c2c2c2c 	stccs	12, cr2, [ip], #-176	; 0xffffff50
    1bb8:	2c2c2c2c 	stccs	12, cr2, [ip], #-176	; 0xffffff50
    1bbc:	2c2c2c2c 	stccs	12, cr2, [ip], #-176	; 0xffffff50
    1bc0:	2c2c2c2c 	stccs	12, cr2, [ip], #-176	; 0xffffff50
    1bc4:	2c2c2c2c 	stccs	12, cr2, [ip], #-176	; 0xffffff50
    1bc8:	2c2c2c2c 	stccs	12, cr2, [ip], #-176	; 0xffffff50
    1bcc:	2c2c2c2c 	stccs	12, cr2, [ip], #-176	; 0xffffff50
    1bd0:	2c2c2c2c 	stccs	12, cr2, [ip], #-176	; 0xffffff50
    1bd4:	2c2c2c2c 	stccs	12, cr2, [ip], #-176	; 0xffffff50
    1bd8:	2c2c2c2c 	stccs	12, cr2, [ip], #-176	; 0xffffff50
    1bdc:	2c2c2c2c 	stccs	12, cr2, [ip], #-176	; 0xffffff50
    1be0:	2c2c2c2c 	stccs	12, cr2, [ip], #-176	; 0xffffff50
    1be4:	2c2c2c2c 	stccs	12, cr2, [ip], #-176	; 0xffffff50
    1be8:	2c2c2c2c 	stccs	12, cr2, [ip], #-176	; 0xffffff50
    1bec:	2c2c2c2c 	stccs	12, cr2, [ip], #-176	; 0xffffff50
    1bf0:	2c2c2c2c 	stccs	12, cr2, [ip], #-176	; 0xffffff50
    1bf4:	2c2c2c2c 	stccs	12, cr2, [ip], #-176	; 0xffffff50
    1bf8:	2c2c2c2c 	stccs	12, cr2, [ip], #-176	; 0xffffff50
    1bfc:	2c2d2c2c 	stccs	12, cr2, [sp], #-176	; 0xffffff50
    1c00:	2c2c2c2c 	stccs	12, cr2, [ip], #-176	; 0xffffff50
    1c04:	2c302c2c 	ldccs	12, cr2, [r0], #-176	; 0xffffff50
    1c08:	2c2c2c2c 	stccs	12, cr2, [ip], #-176	; 0xffffff50
    1c0c:	2c2c2c2c 	stccs	12, cr2, [ip], #-176	; 0xffffff50
    1c10:	2c2c2c2c 	stccs	12, cr2, [ip], #-176	; 0xffffff50
    1c14:	2c2c2c2c 	stccs	12, cr2, [ip], #-176	; 0xffffff50
    1c18:	2c2c2c2c 	stccs	12, cr2, [ip], #-176	; 0xffffff50
    1c1c:	2c2c2c2c 	stccs	12, cr2, [ip], #-176	; 0xffffff50
    1c20:	2c2c2c2c 	stccs	12, cr2, [ip], #-176	; 0xffffff50
    1c24:	2c2c2c2c 	stccs	12, cr2, [ip], #-176	; 0xffffff50
    1c28:	042c2c2c 	strteq	r2, [ip], #-3116	; 0xfffff3d4
    1c2c:	7de10301 	stclvc	3, cr0, [r1, #4]!
    1c30:	2c010202 	sfmcs	f0, 4, [r1], {2}
    1c34:	2c2c2c2c 	stccs	12, cr2, [ip], #-176	; 0xffffff50
    1c38:	0309042c 	movweq	r0, #37932	; 0x942c
    1c3c:	0202029b 	andeq	r0, r2, #-1342177271	; 0xb0000009
    1c40:	2c2c2c01 	stccs	12, cr2, [ip], #-4
    1c44:	2c2c2c2c 	stccs	12, cr2, [ip], #-176	; 0xffffff50
    1c48:	2c2c2c2c 	stccs	12, cr2, [ip], #-176	; 0xffffff50
    1c4c:	2c2c2c2c 	stccs	12, cr2, [ip], #-176	; 0xffffff50
    1c50:	2c2c2c2c 	stccs	12, cr2, [ip], #-176	; 0xffffff50
    1c54:	2c2c2c2c 	stccs	12, cr2, [ip], #-176	; 0xffffff50
    1c58:	2c2c2c2c 	stccs	12, cr2, [ip], #-176	; 0xffffff50
    1c5c:	2c2c2c2c 	stccs	12, cr2, [ip], #-176	; 0xffffff50
    1c60:	2c2c2c2c 	stccs	12, cr2, [ip], #-176	; 0xffffff50
    1c64:	2c2c2c2c 	stccs	12, cr2, [ip], #-176	; 0xffffff50
    1c68:	2c2c2c2c 	stccs	12, cr2, [ip], #-176	; 0xffffff50
    1c6c:	2c2c2c2c 	stccs	12, cr2, [ip], #-176	; 0xffffff50
    1c70:	2c2c2c2c 	stccs	12, cr2, [ip], #-176	; 0xffffff50
    1c74:	2c2c2c2c 	stccs	12, cr2, [ip], #-176	; 0xffffff50
    1c78:	2c2c2c2c 	stccs	12, cr2, [ip], #-176	; 0xffffff50
    1c7c:	2c2c2c2c 	stccs	12, cr2, [ip], #-176	; 0xffffff50
    1c80:	2c2c2c2c 	stccs	12, cr2, [ip], #-176	; 0xffffff50
    1c84:	2c2c2c2c 	stccs	12, cr2, [ip], #-176	; 0xffffff50
    1c88:	2c2c2c2c 	stccs	12, cr2, [ip], #-176	; 0xffffff50
    1c8c:	2c2c2c2c 	stccs	12, cr2, [ip], #-176	; 0xffffff50
    1c90:	2c2c2c2c 	stccs	12, cr2, [ip], #-176	; 0xffffff50
    1c94:	2c2c2c2c 	stccs	12, cr2, [ip], #-176	; 0xffffff50
    1c98:	2c2c2c2c 	stccs	12, cr2, [ip], #-176	; 0xffffff50
    1c9c:	2c2c2c2c 	stccs	12, cr2, [ip], #-176	; 0xffffff50
    1ca0:	2c2c2c2c 	stccs	12, cr2, [ip], #-176	; 0xffffff50
    1ca4:	2c2c2c2c 	stccs	12, cr2, [ip], #-176	; 0xffffff50
    1ca8:	2c2c2c2c 	stccs	12, cr2, [ip], #-176	; 0xffffff50
    1cac:	2c2c2c2c 	stccs	12, cr2, [ip], #-176	; 0xffffff50
    1cb0:	2c2c2c2c 	stccs	12, cr2, [ip], #-176	; 0xffffff50
    1cb4:	2c2c2c2c 	stccs	12, cr2, [ip], #-176	; 0xffffff50
    1cb8:	2c2c2c2c 	stccs	12, cr2, [ip], #-176	; 0xffffff50
    1cbc:	2c2c2c2c 	stccs	12, cr2, [ip], #-176	; 0xffffff50
    1cc0:	2c2c2c2c 	stccs	12, cr2, [ip], #-176	; 0xffffff50
    1cc4:	2c2c2c2c 	stccs	12, cr2, [ip], #-176	; 0xffffff50
    1cc8:	2c2c2c2c 	stccs	12, cr2, [ip], #-176	; 0xffffff50
    1ccc:	2c2c2c2c 	stccs	12, cr2, [ip], #-176	; 0xffffff50
    1cd0:	2c2c2c2c 	stccs	12, cr2, [ip], #-176	; 0xffffff50
    1cd4:	2c2c2c2c 	stccs	12, cr2, [ip], #-176	; 0xffffff50
    1cd8:	2c2c2c2c 	stccs	12, cr2, [ip], #-176	; 0xffffff50
    1cdc:	2c2c2c2c 	stccs	12, cr2, [ip], #-176	; 0xffffff50
    1ce0:	2c2c2c2c 	stccs	12, cr2, [ip], #-176	; 0xffffff50
    1ce4:	2c2c2c2c 	stccs	12, cr2, [ip], #-176	; 0xffffff50
    1ce8:	2c2c2c2c 	stccs	12, cr2, [ip], #-176	; 0xffffff50
    1cec:	2c2c2c2c 	stccs	12, cr2, [ip], #-176	; 0xffffff50
    1cf0:	2c2c2c2c 	stccs	12, cr2, [ip], #-176	; 0xffffff50
    1cf4:	2c2c2c2c 	stccs	12, cr2, [ip], #-176	; 0xffffff50
    1cf8:	2c2c2c2c 	stccs	12, cr2, [ip], #-176	; 0xffffff50
    1cfc:	2c2d2c2c 	stccs	12, cr2, [sp], #-176	; 0xffffff50
    1d00:	2c2c2c2c 	stccs	12, cr2, [ip], #-176	; 0xffffff50
    1d04:	2c2c2c2c 	stccs	12, cr2, [ip], #-176	; 0xffffff50
    1d08:	2c2c2c2c 	stccs	12, cr2, [ip], #-176	; 0xffffff50
    1d0c:	2c2c2c2c 	stccs	12, cr2, [ip], #-176	; 0xffffff50
    1d10:	2c2c2c2c 	stccs	12, cr2, [ip], #-176	; 0xffffff50
    1d14:	2c2c2c2c 	stccs	12, cr2, [ip], #-176	; 0xffffff50
    1d18:	2c2c2c2c 	stccs	12, cr2, [ip], #-176	; 0xffffff50
    1d1c:	2c2c2c2c 	stccs	12, cr2, [ip], #-176	; 0xffffff50
    1d20:	2c2c2c2c 	stccs	12, cr2, [ip], #-176	; 0xffffff50
    1d24:	2c2c2c2c 	stccs	12, cr2, [ip], #-176	; 0xffffff50
    1d28:	2c2c2c2c 	stccs	12, cr2, [ip], #-176	; 0xffffff50
    1d2c:	2c2c2c2c 	stccs	12, cr2, [ip], #-176	; 0xffffff50
    1d30:	2c2c2c2c 	stccs	12, cr2, [ip], #-176	; 0xffffff50
    1d34:	2c2c2c2c 	stccs	12, cr2, [ip], #-176	; 0xffffff50
    1d38:	2c2c2c2c 	stccs	12, cr2, [ip], #-176	; 0xffffff50
    1d3c:	2c2c2c2c 	stccs	12, cr2, [ip], #-176	; 0xffffff50
    1d40:	2c2c2c2c 	stccs	12, cr2, [ip], #-176	; 0xffffff50
    1d44:	2c2c2c2c 	stccs	12, cr2, [ip], #-176	; 0xffffff50
    1d48:	2c2c2c2c 	stccs	12, cr2, [ip], #-176	; 0xffffff50
    1d4c:	2c2c2c2c 	stccs	12, cr2, [ip], #-176	; 0xffffff50
    1d50:	2c2cda2c 			; <UNDEFINED> instruction: 0x2c2cda2c
    1d54:	2c2c2c2c 	stccs	12, cr2, [ip], #-176	; 0xffffff50
    1d58:	2c2c2c2c 	stccs	12, cr2, [ip], #-176	; 0xffffff50
    1d5c:	2c2c2c2c 	stccs	12, cr2, [ip], #-176	; 0xffffff50
    1d60:	2c2c2c2c 	stccs	12, cr2, [ip], #-176	; 0xffffff50
    1d64:	2c2c2c2c 	stccs	12, cr2, [ip], #-176	; 0xffffff50
    1d68:	2c2c2c2c 	stccs	12, cr2, [ip], #-176	; 0xffffff50
    1d6c:	2c2c2c2c 	stccs	12, cr2, [ip], #-176	; 0xffffff50
    1d70:	2c2c2c2c 	stccs	12, cr2, [ip], #-176	; 0xffffff50
    1d74:	2c2c2c2c 	stccs	12, cr2, [ip], #-176	; 0xffffff50
    1d78:	2c2c2c2c 	stccs	12, cr2, [ip], #-176	; 0xffffff50
    1d7c:	2c2c2c2c 	stccs	12, cr2, [ip], #-176	; 0xffffff50
    1d80:	2c2c2c2c 	stccs	12, cr2, [ip], #-176	; 0xffffff50
    1d84:	2c2c2c2c 	stccs	12, cr2, [ip], #-176	; 0xffffff50
    1d88:	2c2c2c2c 	stccs	12, cr2, [ip], #-176	; 0xffffff50
    1d8c:	2c2c2c2c 	stccs	12, cr2, [ip], #-176	; 0xffffff50
    1d90:	042c2c2c 	strteq	r2, [ip], #-3116	; 0xfffff3d4
    1d94:	7afb0301 	bvc	ffec29a0 <.debug_line+0xffec29a0>
    1d98:	04010202 	streq	r0, [r1], #-514	; 0xfffffdfe
    1d9c:	05870309 	streq	r0, [r7, #777]	; 0x309
    1da0:	2c010202 	sfmcs	f0, 4, [r1], {2}
    1da4:	2c2c2c2c 	stccs	12, cr2, [ip], #-176	; 0xffffff50
    1da8:	2c2c2c2c 	stccs	12, cr2, [ip], #-176	; 0xffffff50
    1dac:	2c2c2c2c 	stccs	12, cr2, [ip], #-176	; 0xffffff50
    1db0:	2c2c2c2c 	stccs	12, cr2, [ip], #-176	; 0xffffff50
    1db4:	2f2c2c2c 	svccs	0x002c2c2c
    1db8:	2c2c2c2c 	stccs	12, cr2, [ip], #-176	; 0xffffff50
    1dbc:	2c2c2c2c 	stccs	12, cr2, [ip], #-176	; 0xffffff50
    1dc0:	2c2c2c2c 	stccs	12, cr2, [ip], #-176	; 0xffffff50
    1dc4:	2c2c2c2c 	stccs	12, cr2, [ip], #-176	; 0xffffff50
    1dc8:	2c2c2c2c 	stccs	12, cr2, [ip], #-176	; 0xffffff50
    1dcc:	2c2c2c2c 	stccs	12, cr2, [ip], #-176	; 0xffffff50
    1dd0:	2c312c2c 	ldccs	12, cr2, [r1], #-176	; 0xffffff50
    1dd4:	2c2c2c2c 	stccs	12, cr2, [ip], #-176	; 0xffffff50
    1dd8:	2c2c2c2c 	stccs	12, cr2, [ip], #-176	; 0xffffff50
    1ddc:	2c2c2c2c 	stccs	12, cr2, [ip], #-176	; 0xffffff50
    1de0:	2c2c2c2c 	stccs	12, cr2, [ip], #-176	; 0xffffff50
    1de4:	2c2c2c2c 	stccs	12, cr2, [ip], #-176	; 0xffffff50
    1de8:	2c2c2c2c 	stccs	12, cr2, [ip], #-176	; 0xffffff50
    1dec:	2c2c2c2c 	stccs	12, cr2, [ip], #-176	; 0xffffff50
    1df0:	2c2c2c2c 	stccs	12, cr2, [ip], #-176	; 0xffffff50
    1df4:	2c312c2c 	ldccs	12, cr2, [r1], #-176	; 0xffffff50
    1df8:	2c2c2c2c 	stccs	12, cr2, [ip], #-176	; 0xffffff50
    1dfc:	2c2c2c2c 	stccs	12, cr2, [ip], #-176	; 0xffffff50
    1e00:	2c2c2c2c 	stccs	12, cr2, [ip], #-176	; 0xffffff50
    1e04:	2c2c2c2c 	stccs	12, cr2, [ip], #-176	; 0xffffff50
    1e08:	2c2c2c2c 	stccs	12, cr2, [ip], #-176	; 0xffffff50
    1e0c:	2c2c2c2c 	stccs	12, cr2, [ip], #-176	; 0xffffff50
    1e10:	2c2c2c2c 	stccs	12, cr2, [ip], #-176	; 0xffffff50
    1e14:	2c2e2c2c 	stccs	12, cr2, [lr], #-176	; 0xffffff50
    1e18:	2c2c2c2c 	stccs	12, cr2, [ip], #-176	; 0xffffff50
    1e1c:	2c2c2c2c 	stccs	12, cr2, [ip], #-176	; 0xffffff50
    1e20:	2c2c2c2c 	stccs	12, cr2, [ip], #-176	; 0xffffff50
    1e24:	2c2c2c2c 	stccs	12, cr2, [ip], #-176	; 0xffffff50
    1e28:	2c2c2c2c 	stccs	12, cr2, [ip], #-176	; 0xffffff50
    1e2c:	2c2c2c2c 	stccs	12, cr2, [ip], #-176	; 0xffffff50
    1e30:	2c2c2c2c 	stccs	12, cr2, [ip], #-176	; 0xffffff50
    1e34:	2c2c2c2c 	stccs	12, cr2, [ip], #-176	; 0xffffff50
    1e38:	2c2c2c2c 	stccs	12, cr2, [ip], #-176	; 0xffffff50
    1e3c:	2c2c2c2c 	stccs	12, cr2, [ip], #-176	; 0xffffff50
    1e40:	2c2c2c2c 	stccs	12, cr2, [ip], #-176	; 0xffffff50
    1e44:	2c2c2c2c 	stccs	12, cr2, [ip], #-176	; 0xffffff50
    1e48:	09032c2c 	stmdbeq	r3, {r2, r3, r5, sl, fp, sp}
    1e4c:	2c011d08 	stccs	13, cr1, [r1], {8}
    1e50:	2c2c2c2c 	stccs	12, cr2, [ip], #-176	; 0xffffff50
    1e54:	2c2c2c2c 	stccs	12, cr2, [ip], #-176	; 0xffffff50
    1e58:	2c2c2c2c 	stccs	12, cr2, [ip], #-176	; 0xffffff50
    1e5c:	2c2c2c2c 	stccs	12, cr2, [ip], #-176	; 0xffffff50
    1e60:	2c2c2c2c 	stccs	12, cr2, [ip], #-176	; 0xffffff50
    1e64:	2c2c2c2c 	stccs	12, cr2, [ip], #-176	; 0xffffff50
    1e68:	2c2c2c2c 	stccs	12, cr2, [ip], #-176	; 0xffffff50
    1e6c:	2c2c2c2c 	stccs	12, cr2, [ip], #-176	; 0xffffff50
    1e70:	2c2c2c2c 	stccs	12, cr2, [ip], #-176	; 0xffffff50
    1e74:	2c2c2c2c 	stccs	12, cr2, [ip], #-176	; 0xffffff50
    1e78:	2c2c2c2c 	stccs	12, cr2, [ip], #-176	; 0xffffff50
    1e7c:	2c2c2c2c 	stccs	12, cr2, [ip], #-176	; 0xffffff50
    1e80:	2c2c2c2c 	stccs	12, cr2, [ip], #-176	; 0xffffff50
    1e84:	2c2c2c2c 	stccs	12, cr2, [ip], #-176	; 0xffffff50
    1e88:	2c2c2c2c 	stccs	12, cr2, [ip], #-176	; 0xffffff50
    1e8c:	2c2c2c2c 	stccs	12, cr2, [ip], #-176	; 0xffffff50
    1e90:	2c2c2c2c 	stccs	12, cr2, [ip], #-176	; 0xffffff50
    1e94:	2c2c2c2c 	stccs	12, cr2, [ip], #-176	; 0xffffff50
    1e98:	2c2c2c2c 	stccs	12, cr2, [ip], #-176	; 0xffffff50
    1e9c:	2c2c2c2c 	stccs	12, cr2, [ip], #-176	; 0xffffff50
    1ea0:	2c2c2c2c 	stccs	12, cr2, [ip], #-176	; 0xffffff50
    1ea4:	2c2c2c2c 	stccs	12, cr2, [ip], #-176	; 0xffffff50
    1ea8:	2c2c2c2c 	stccs	12, cr2, [ip], #-176	; 0xffffff50
    1eac:	2c2c2c2c 	stccs	12, cr2, [ip], #-176	; 0xffffff50
    1eb0:	2c2c2c2c 	stccs	12, cr2, [ip], #-176	; 0xffffff50
    1eb4:	2c2c2c2c 	stccs	12, cr2, [ip], #-176	; 0xffffff50
    1eb8:	2c2c2c2c 	stccs	12, cr2, [ip], #-176	; 0xffffff50
    1ebc:	2c2c2c2c 	stccs	12, cr2, [ip], #-176	; 0xffffff50
    1ec0:	2c2c2c2c 	stccs	12, cr2, [ip], #-176	; 0xffffff50
    1ec4:	2c2c2c2c 	stccs	12, cr2, [ip], #-176	; 0xffffff50
    1ec8:	2c2c2c2c 	stccs	12, cr2, [ip], #-176	; 0xffffff50
    1ecc:	2c2c2c2c 	stccs	12, cr2, [ip], #-176	; 0xffffff50
    1ed0:	2c2c2c2c 	stccs	12, cr2, [ip], #-176	; 0xffffff50
    1ed4:	2c2c2c2c 	stccs	12, cr2, [ip], #-176	; 0xffffff50
    1ed8:	2c2c2c2c 	stccs	12, cr2, [ip], #-176	; 0xffffff50
    1edc:	2c2c2c2c 	stccs	12, cr2, [ip], #-176	; 0xffffff50
    1ee0:	2c2c2c2c 	stccs	12, cr2, [ip], #-176	; 0xffffff50
    1ee4:	2c2c2c2c 	stccs	12, cr2, [ip], #-176	; 0xffffff50
    1ee8:	2c2c2c2c 	stccs	12, cr2, [ip], #-176	; 0xffffff50
    1eec:	2c2c2c2c 	stccs	12, cr2, [ip], #-176	; 0xffffff50
    1ef0:	2c2c2c2c 	stccs	12, cr2, [ip], #-176	; 0xffffff50
    1ef4:	2c2c2c2c 	stccs	12, cr2, [ip], #-176	; 0xffffff50
    1ef8:	2c2c2c2c 	stccs	12, cr2, [ip], #-176	; 0xffffff50
    1efc:	2c2c2c2c 	stccs	12, cr2, [ip], #-176	; 0xffffff50
    1f00:	2c2c2c2c 	stccs	12, cr2, [ip], #-176	; 0xffffff50
    1f04:	2c2c2c2c 	stccs	12, cr2, [ip], #-176	; 0xffffff50
    1f08:	2c2c2c2c 	stccs	12, cr2, [ip], #-176	; 0xffffff50
    1f0c:	2c2c2c2c 	stccs	12, cr2, [ip], #-176	; 0xffffff50
    1f10:	2c2c2c2c 	stccs	12, cr2, [ip], #-176	; 0xffffff50
    1f14:	2c2c2c2c 	stccs	12, cr2, [ip], #-176	; 0xffffff50
    1f18:	2c2c2c2c 	stccs	12, cr2, [ip], #-176	; 0xffffff50
    1f1c:	2c2c2c2c 	stccs	12, cr2, [ip], #-176	; 0xffffff50
    1f20:	2c2c2c2c 	stccs	12, cr2, [ip], #-176	; 0xffffff50
    1f24:	2c2c2c2c 	stccs	12, cr2, [ip], #-176	; 0xffffff50
    1f28:	2c2c2c2c 	stccs	12, cr2, [ip], #-176	; 0xffffff50
    1f2c:	2c2c2c2c 	stccs	12, cr2, [ip], #-176	; 0xffffff50
    1f30:	2c2c2c2c 	stccs	12, cr2, [ip], #-176	; 0xffffff50
    1f34:	2c2c2c2c 	stccs	12, cr2, [ip], #-176	; 0xffffff50
    1f38:	2c2c2c2c 	stccs	12, cr2, [ip], #-176	; 0xffffff50
    1f3c:	2c2c2c2c 	stccs	12, cr2, [ip], #-176	; 0xffffff50
    1f40:	030a042c 	movweq	r0, #42028	; 0xa42c
    1f44:	020276c4 	andeq	r7, r2, #196, 12	; 0xc400000
    1f48:	2c2c2c01 	stccs	12, cr2, [ip], #-4
    1f4c:	2c2c2c2c 	stccs	12, cr2, [ip], #-176	; 0xffffff50
    1f50:	2c2c2c2c 	stccs	12, cr2, [ip], #-176	; 0xffffff50
    1f54:	2c652c2c 	stclcs	12, cr2, [r5], #-176	; 0xffffff50
    1f58:	2c2c2c4a 	stccs	12, cr2, [ip], #-296	; 0xfffffed8
    1f5c:	2c2c2c2c 	stccs	12, cr2, [ip], #-176	; 0xffffff50
    1f60:	2c2c2c2c 	stccs	12, cr2, [ip], #-176	; 0xffffff50
    1f64:	2c2c2c2c 	stccs	12, cr2, [ip], #-176	; 0xffffff50
    1f68:	2c2c2c2d 	stccs	12, cr2, [ip], #-180	; 0xffffff4c
    1f6c:	2c2c2c2c 	stccs	12, cr2, [ip], #-176	; 0xffffff50
    1f70:	2c2c2c2c 	stccs	12, cr2, [ip], #-176	; 0xffffff50
    1f74:	2c2c2c2c 	stccs	12, cr2, [ip], #-176	; 0xffffff50
    1f78:	2c2c2c2c 	stccs	12, cr2, [ip], #-176	; 0xffffff50
    1f7c:	2c2c2c2c 	stccs	12, cr2, [ip], #-176	; 0xffffff50
    1f80:	2c2c2c2c 	stccs	12, cr2, [ip], #-176	; 0xffffff50
    1f84:	2d2c2c2c 	stccs	12, cr2, [ip, #-176]!	; 0xffffff50
    1f88:	2c2c2c2c 	stccs	12, cr2, [ip], #-176	; 0xffffff50
    1f8c:	2c2c2c2c 	stccs	12, cr2, [ip], #-176	; 0xffffff50
    1f90:	2c2c2c2c 	stccs	12, cr2, [ip], #-176	; 0xffffff50
    1f94:	2c2c2c2c 	stccs	12, cr2, [ip], #-176	; 0xffffff50
    1f98:	2c2c2c2c 	stccs	12, cr2, [ip], #-176	; 0xffffff50
    1f9c:	2c2c312c 	stfcss	f3, [ip], #-176	; 0xffffff50
    1fa0:	2c2c2c2c 	stccs	12, cr2, [ip], #-176	; 0xffffff50
    1fa4:	2c2c2c2c 	stccs	12, cr2, [ip], #-176	; 0xffffff50
    1fa8:	2c2c2c2c 	stccs	12, cr2, [ip], #-176	; 0xffffff50
    1fac:	2c2c2c2c 	stccs	12, cr2, [ip], #-176	; 0xffffff50
    1fb0:	2c2c2c2c 	stccs	12, cr2, [ip], #-176	; 0xffffff50
    1fb4:	2c2c2c2c 	stccs	12, cr2, [ip], #-176	; 0xffffff50
    1fb8:	2c2c2c2c 	stccs	12, cr2, [ip], #-176	; 0xffffff50
    1fbc:	2c2c2c2c 	stccs	12, cr2, [ip], #-176	; 0xffffff50
    1fc0:	2c2c2c2c 	stccs	12, cr2, [ip], #-176	; 0xffffff50
    1fc4:	2c2c2c2c 	stccs	12, cr2, [ip], #-176	; 0xffffff50
    1fc8:	2c2c2c2c 	stccs	12, cr2, [ip], #-176	; 0xffffff50
    1fcc:	2c2c2c2c 	stccs	12, cr2, [ip], #-176	; 0xffffff50
    1fd0:	2c2c2c2c 	stccs	12, cr2, [ip], #-176	; 0xffffff50
    1fd4:	2c2c2c2c 	stccs	12, cr2, [ip], #-176	; 0xffffff50
    1fd8:	2c2c2c2c 	stccs	12, cr2, [ip], #-176	; 0xffffff50
    1fdc:	2c2c2c2c 	stccs	12, cr2, [ip], #-176	; 0xffffff50
    1fe0:	2c2c2c2c 	stccs	12, cr2, [ip], #-176	; 0xffffff50
    1fe4:	2c2c2c2c 	stccs	12, cr2, [ip], #-176	; 0xffffff50
    1fe8:	2c2c2c2c 	stccs	12, cr2, [ip], #-176	; 0xffffff50
    1fec:	2c2c2c2c 	stccs	12, cr2, [ip], #-176	; 0xffffff50
    1ff0:	2c2c2c2c 	stccs	12, cr2, [ip], #-176	; 0xffffff50
    1ff4:	2c2c2c2c 	stccs	12, cr2, [ip], #-176	; 0xffffff50
    1ff8:	2c2c2c2c 	stccs	12, cr2, [ip], #-176	; 0xffffff50
    1ffc:	2c2c2c2c 	stccs	12, cr2, [ip], #-176	; 0xffffff50
    2000:	2c2c2c2c 	stccs	12, cr2, [ip], #-176	; 0xffffff50
    2004:	2c2c2c2c 	stccs	12, cr2, [ip], #-176	; 0xffffff50
    2008:	2c2c2c2c 	stccs	12, cr2, [ip], #-176	; 0xffffff50
    200c:	2c2c2c2c 	stccs	12, cr2, [ip], #-176	; 0xffffff50
    2010:	2c2c2c2c 	stccs	12, cr2, [ip], #-176	; 0xffffff50
    2014:	2d2c2c2c 	stccs	12, cr2, [ip, #-176]!	; 0xffffff50
    2018:	2c2c2c2c 	stccs	12, cr2, [ip], #-176	; 0xffffff50
    201c:	2c2c2c2c 	stccs	12, cr2, [ip], #-176	; 0xffffff50
    2020:	2c2c2c2c 	stccs	12, cr2, [ip], #-176	; 0xffffff50
    2024:	2c2c2c2d 	stccs	12, cr2, [ip], #-180	; 0xffffff4c
    2028:	2c2c2c2c 	stccs	12, cr2, [ip], #-176	; 0xffffff50
    202c:	2c2c2c2c 	stccs	12, cr2, [ip], #-176	; 0xffffff50
    2030:	2c2c2c2c 	stccs	12, cr2, [ip], #-176	; 0xffffff50
    2034:	2c2c2d2c 	stccs	13, cr2, [ip], #-176	; 0xffffff50
    2038:	2c2c2c2c 	stccs	12, cr2, [ip], #-176	; 0xffffff50
    203c:	2c2c2c2c 	stccs	12, cr2, [ip], #-176	; 0xffffff50
    2040:	2c2c2d2c 	stccs	13, cr2, [ip], #-176	; 0xffffff50
    2044:	2c2c2c2c 	stccs	12, cr2, [ip], #-176	; 0xffffff50
    2048:	2c2c2c2c 	stccs	12, cr2, [ip], #-176	; 0xffffff50
    204c:	2c2c2c2c 	stccs	12, cr2, [ip], #-176	; 0xffffff50
    2050:	2c2c2c2c 	stccs	12, cr2, [ip], #-176	; 0xffffff50
    2054:	2c2c2c2c 	stccs	12, cr2, [ip], #-176	; 0xffffff50
    2058:	2c2c2c2c 	stccs	12, cr2, [ip], #-176	; 0xffffff50
    205c:	2c2c2c2c 	stccs	12, cr2, [ip], #-176	; 0xffffff50
    2060:	2c2c2c2c 	stccs	12, cr2, [ip], #-176	; 0xffffff50
    2064:	2c2c2c2c 	stccs	12, cr2, [ip], #-176	; 0xffffff50
    2068:	2c2c2c2c 	stccs	12, cr2, [ip], #-176	; 0xffffff50
    206c:	2d2c2c2c 	stccs	12, cr2, [ip, #-176]!	; 0xffffff50
    2070:	2c2c2c2c 	stccs	12, cr2, [ip], #-176	; 0xffffff50
    2074:	2c2c2c2c 	stccs	12, cr2, [ip], #-176	; 0xffffff50
    2078:	2c2c2c2c 	stccs	12, cr2, [ip], #-176	; 0xffffff50
    207c:	2c2c2c2c 	stccs	12, cr2, [ip], #-176	; 0xffffff50
    2080:	2c2c2c2c 	stccs	12, cr2, [ip], #-176	; 0xffffff50
    2084:	2c2c2c2c 	stccs	12, cr2, [ip], #-176	; 0xffffff50
    2088:	2c2c2c2c 	stccs	12, cr2, [ip], #-176	; 0xffffff50
    208c:	2c2d2c2c 	stccs	12, cr2, [sp], #-176	; 0xffffff50
    2090:	2c2c2c2c 	stccs	12, cr2, [ip], #-176	; 0xffffff50
    2094:	2c2c2c2c 	stccs	12, cr2, [ip], #-176	; 0xffffff50
    2098:	2c2c2c2c 	stccs	12, cr2, [ip], #-176	; 0xffffff50
    209c:	2c2c2c2c 	stccs	12, cr2, [ip], #-176	; 0xffffff50
    20a0:	2c2c2c2c 	stccs	12, cr2, [ip], #-176	; 0xffffff50
    20a4:	2d2c2c2c 	stccs	12, cr2, [ip, #-176]!	; 0xffffff50
    20a8:	2c2c2c2c 	stccs	12, cr2, [ip], #-176	; 0xffffff50
    20ac:	2c2c2c2c 	stccs	12, cr2, [ip], #-176	; 0xffffff50
    20b0:	2c2c2c2c 	stccs	12, cr2, [ip], #-176	; 0xffffff50
    20b4:	2c2c2c2c 	stccs	12, cr2, [ip], #-176	; 0xffffff50
    20b8:	2c2c2c2c 	stccs	12, cr2, [ip], #-176	; 0xffffff50
    20bc:	2c2c2c2c 	stccs	12, cr2, [ip], #-176	; 0xffffff50
    20c0:	2c2c2c2c 	stccs	12, cr2, [ip], #-176	; 0xffffff50
    20c4:	2c2c2c2c 	stccs	12, cr2, [ip], #-176	; 0xffffff50
    20c8:	2c2c2c2c 	stccs	12, cr2, [ip], #-176	; 0xffffff50
    20cc:	2c2c2c2c 	stccs	12, cr2, [ip], #-176	; 0xffffff50
    20d0:	2c2c2c2c 	stccs	12, cr2, [ip], #-176	; 0xffffff50
    20d4:	2c2c2c2c 	stccs	12, cr2, [ip], #-176	; 0xffffff50
    20d8:	e2030b04 	and	r0, r3, #4, 22	; 0x1000
    20dc:	0102027c 	tsteq	r2, ip, ror r2
    20e0:	2c2c2c2c 	stccs	12, cr2, [ip], #-176	; 0xffffff50
    20e4:	2c2e2c2c 	stccs	12, cr2, [lr], #-176	; 0xffffff50
    20e8:	2c2c2c2c 	stccs	12, cr2, [ip], #-176	; 0xffffff50
    20ec:	2c2d302c 	stccs	0, cr3, [sp], #-176	; 0xffffff50
    20f0:	2c2c2c2e 	stccs	12, cr2, [ip], #-184	; 0xffffff48
    20f4:	2c2c2c2c 	stccs	12, cr2, [ip], #-176	; 0xffffff50
    20f8:	2c2c2c2c 	stccs	12, cr2, [ip], #-176	; 0xffffff50
    20fc:	2c2c2c2c 	stccs	12, cr2, [ip], #-176	; 0xffffff50
    2100:	2c2c2c2c 	stccs	12, cr2, [ip], #-176	; 0xffffff50
    2104:	2c2c2c2c 	stccs	12, cr2, [ip], #-176	; 0xffffff50
    2108:	2c2c2c2c 	stccs	12, cr2, [ip], #-176	; 0xffffff50
    210c:	2c2d2c2c 	stccs	12, cr2, [sp], #-176	; 0xffffff50
    2110:	2c2c2c2c 	stccs	12, cr2, [ip], #-176	; 0xffffff50
    2114:	2c2c2c2c 	stccs	12, cr2, [ip], #-176	; 0xffffff50
    2118:	2c2c2c2c 	stccs	12, cr2, [ip], #-176	; 0xffffff50
    211c:	2c2c2c2c 	stccs	12, cr2, [ip], #-176	; 0xffffff50
    2120:	2c2c2c2c 	stccs	12, cr2, [ip], #-176	; 0xffffff50
    2124:	2c2c2c2c 	stccs	12, cr2, [ip], #-176	; 0xffffff50
    2128:	2c2c2d2c 	stccs	13, cr2, [ip], #-176	; 0xffffff50
    212c:	2c2c2c2c 	stccs	12, cr2, [ip], #-176	; 0xffffff50
    2130:	2c2c2c2c 	stccs	12, cr2, [ip], #-176	; 0xffffff50
    2134:	2c2c2c2c 	stccs	12, cr2, [ip], #-176	; 0xffffff50
    2138:	2c2c2c2c 	stccs	12, cr2, [ip], #-176	; 0xffffff50
    213c:	2c2c2c2d 	stccs	12, cr2, [ip], #-180	; 0xffffff4c
    2140:	2c2c2c2c 	stccs	12, cr2, [ip], #-176	; 0xffffff50
    2144:	2c2c2c2c 	stccs	12, cr2, [ip], #-176	; 0xffffff50
    2148:	2c2c2c2c 	stccs	12, cr2, [ip], #-176	; 0xffffff50
    214c:	2c2d322c 	sfmcs	f3, 4, [sp], #-176	; 0xffffff50
    2150:	2c2c2c2c 	stccs	12, cr2, [ip], #-176	; 0xffffff50
    2154:	2c2c322c 	sfmcs	f3, 4, [ip], #-176	; 0xffffff50
    2158:	2c2c2c2c 	stccs	12, cr2, [ip], #-176	; 0xffffff50
    215c:	2c2c2c2c 	stccs	12, cr2, [ip], #-176	; 0xffffff50
    2160:	2c2c2e2c 	stccs	14, cr2, [ip], #-176	; 0xffffff50
    2164:	2c2c2c2c 	stccs	12, cr2, [ip], #-176	; 0xffffff50
    2168:	2c2c2c2c 	stccs	12, cr2, [ip], #-176	; 0xffffff50
    216c:	2c2c2c2c 	stccs	12, cr2, [ip], #-176	; 0xffffff50
    2170:	2c2c2d2c 	stccs	13, cr2, [ip], #-176	; 0xffffff50
    2174:	2c2c2c2c 	stccs	12, cr2, [ip], #-176	; 0xffffff50
    2178:	2c2c2c2c 	stccs	12, cr2, [ip], #-176	; 0xffffff50
    217c:	2c2c2c2c 	stccs	12, cr2, [ip], #-176	; 0xffffff50
    2180:	2c2c2c2c 	stccs	12, cr2, [ip], #-176	; 0xffffff50
    2184:	2c2c2c2c 	stccs	12, cr2, [ip], #-176	; 0xffffff50
    2188:	2c2c2c2c 	stccs	12, cr2, [ip], #-176	; 0xffffff50
    218c:	2c2c2c2c 	stccs	12, cr2, [ip], #-176	; 0xffffff50
    2190:	2c2c2c2c 	stccs	12, cr2, [ip], #-176	; 0xffffff50
    2194:	2c2c2e2c 	stccs	14, cr2, [ip], #-176	; 0xffffff50
    2198:	2d2c2c2c 	stccs	12, cr2, [ip, #-176]!	; 0xffffff50
    219c:	2c2c2c2c 	stccs	12, cr2, [ip], #-176	; 0xffffff50
    21a0:	2c2c2c2c 	stccs	12, cr2, [ip], #-176	; 0xffffff50
    21a4:	2c2c2c2c 	stccs	12, cr2, [ip], #-176	; 0xffffff50
    21a8:	2d2c2c2c 	stccs	12, cr2, [ip, #-176]!	; 0xffffff50
    21ac:	2c2c2c2c 	stccs	12, cr2, [ip], #-176	; 0xffffff50
    21b0:	2c2c2c2c 	stccs	12, cr2, [ip], #-176	; 0xffffff50
    21b4:	2c2c2c2c 	stccs	12, cr2, [ip], #-176	; 0xffffff50
    21b8:	2c2c2c2c 	stccs	12, cr2, [ip], #-176	; 0xffffff50
    21bc:	2c2c2c2c 	stccs	12, cr2, [ip], #-176	; 0xffffff50
    21c0:	2c2c2c2c 	stccs	12, cr2, [ip], #-176	; 0xffffff50
    21c4:	2c2c2c2c 	stccs	12, cr2, [ip], #-176	; 0xffffff50
    21c8:	2c2c2c2c 	stccs	12, cr2, [ip], #-176	; 0xffffff50
    21cc:	2c2c2c2c 	stccs	12, cr2, [ip], #-176	; 0xffffff50
    21d0:	2c2c2c2c 	stccs	12, cr2, [ip], #-176	; 0xffffff50
    21d4:	2c2c2c2c 	stccs	12, cr2, [ip], #-176	; 0xffffff50
    21d8:	2c2c2c2c 	stccs	12, cr2, [ip], #-176	; 0xffffff50
    21dc:	2c2c2c2c 	stccs	12, cr2, [ip], #-176	; 0xffffff50
    21e0:	2c2c2c2c 	stccs	12, cr2, [ip], #-176	; 0xffffff50
    21e4:	2c2c2c2c 	stccs	12, cr2, [ip], #-176	; 0xffffff50
    21e8:	2c2c2c2c 	stccs	12, cr2, [ip], #-176	; 0xffffff50
    21ec:	2c2d2d2c 	stccs	13, cr2, [sp], #-176	; 0xffffff50
    21f0:	2c2c2c2c 	stccs	12, cr2, [ip], #-176	; 0xffffff50
    21f4:	2c2c2c2c 	stccs	12, cr2, [ip], #-176	; 0xffffff50
    21f8:	2c2c2c2c 	stccs	12, cr2, [ip], #-176	; 0xffffff50
    21fc:	2c2c2d2d 	stccs	13, cr2, [ip], #-180	; 0xffffff4c
    2200:	2c2e2c2c 	stccs	12, cr2, [lr], #-176	; 0xffffff50
    2204:	2c2c2c2c 	stccs	12, cr2, [ip], #-176	; 0xffffff50
    2208:	2c2c2c2c 	stccs	12, cr2, [ip], #-176	; 0xffffff50
    220c:	2c2c2c2c 	stccs	12, cr2, [ip], #-176	; 0xffffff50
    2210:	2c2c2d31 	stccs	13, cr2, [ip], #-196	; 0xffffff3c
    2214:	2c2c2c2c 	stccs	12, cr2, [ip], #-176	; 0xffffff50
    2218:	2c2c2c2c 	stccs	12, cr2, [ip], #-176	; 0xffffff50
    221c:	2c2c2c2c 	stccs	12, cr2, [ip], #-176	; 0xffffff50
    2220:	2d312c2c 	ldccs	12, cr2, [r1, #-176]!	; 0xffffff50
    2224:	2c2c2c2c 	stccs	12, cr2, [ip], #-176	; 0xffffff50
    2228:	2c2c2c2c 	stccs	12, cr2, [ip], #-176	; 0xffffff50
    222c:	2c2c2c2c 	stccs	12, cr2, [ip], #-176	; 0xffffff50
    2230:	2c2d2c2c 	stccs	12, cr2, [sp], #-176	; 0xffffff50
    2234:	2c2c2c2c 	stccs	12, cr2, [ip], #-176	; 0xffffff50
    2238:	2c2c2c2c 	stccs	12, cr2, [ip], #-176	; 0xffffff50
    223c:	2e2c2c2c 	cdpcs	12, 2, cr2, cr12, cr12, {1}
    2240:	2c2c2c2c 	stccs	12, cr2, [ip], #-176	; 0xffffff50
    2244:	2c2c2c2c 	stccs	12, cr2, [ip], #-176	; 0xffffff50
    2248:	2c2c2c2c 	stccs	12, cr2, [ip], #-176	; 0xffffff50
    224c:	2c2c2c2c 	stccs	12, cr2, [ip], #-176	; 0xffffff50
    2250:	2c2c2c2c 	stccs	12, cr2, [ip], #-176	; 0xffffff50
    2254:	2c2c2c2c 	stccs	12, cr2, [ip], #-176	; 0xffffff50
    2258:	2c2c2c2c 	stccs	12, cr2, [ip], #-176	; 0xffffff50
    225c:	2c2c2d31 	stccs	13, cr2, [ip], #-196	; 0xffffff3c
    2260:	2c2c2c2c 	stccs	12, cr2, [ip], #-176	; 0xffffff50
    2264:	2c2d2c2c 	stccs	12, cr2, [sp], #-176	; 0xffffff50
    2268:	2c2c2c2c 	stccs	12, cr2, [ip], #-176	; 0xffffff50
    226c:	2c2c2c2c 	stccs	12, cr2, [ip], #-176	; 0xffffff50
    2270:	2c2c2c2c 	stccs	12, cr2, [ip], #-176	; 0xffffff50
    2274:	2c2c2c2d 	stccs	12, cr2, [ip], #-180	; 0xffffff4c
    2278:	2c2c2c2c 	stccs	12, cr2, [ip], #-176	; 0xffffff50
    227c:	2c2c2d2c 	stccs	13, cr2, [ip], #-176	; 0xffffff50
    2280:	2c2c2c2c 	stccs	12, cr2, [ip], #-176	; 0xffffff50
    2284:	2c2c2c2c 	stccs	12, cr2, [ip], #-176	; 0xffffff50
    2288:	16032c2c 	strne	r2, [r3], -ip, lsr #24
    228c:	2c010202 	sfmcs	f0, 4, [r1], {2}
    2290:	2c2c2c2c 	stccs	12, cr2, [ip], #-176	; 0xffffff50
    2294:	2d2c2c2c 	stccs	12, cr2, [ip, #-176]!	; 0xffffff50
    2298:	2c2c2c2c 	stccs	12, cr2, [ip], #-176	; 0xffffff50
    229c:	2c2c2c2c 	stccs	12, cr2, [ip], #-176	; 0xffffff50
    22a0:	032c2c2c 			; <UNDEFINED> instruction: 0x032c2c2c
    22a4:	020200c5 	andeq	r0, r2, #197	; 0xc5
    22a8:	2c2c2c01 	stccs	12, cr2, [ip], #-4
    22ac:	2c2c2e2c 	stccs	14, cr2, [ip], #-176	; 0xffffff50
    22b0:	2c2c2c2c 	stccs	12, cr2, [ip], #-176	; 0xffffff50
    22b4:	2c2c2c2c 	stccs	12, cr2, [ip], #-176	; 0xffffff50
    22b8:	2c2c2c2c 	stccs	12, cr2, [ip], #-176	; 0xffffff50
    22bc:	2c2c2c2c 	stccs	12, cr2, [ip], #-176	; 0xffffff50
    22c0:	2c2c2c2c 	stccs	12, cr2, [ip], #-176	; 0xffffff50
    22c4:	2c2c2c2c 	stccs	12, cr2, [ip], #-176	; 0xffffff50
    22c8:	2c2e2c2c 	stccs	12, cr2, [lr], #-176	; 0xffffff50
    22cc:	2c2c2c2c 	stccs	12, cr2, [ip], #-176	; 0xffffff50
    22d0:	2c2c2c2c 	stccs	12, cr2, [ip], #-176	; 0xffffff50
    22d4:	2c2c2d2c 	stccs	13, cr2, [ip], #-176	; 0xffffff50
    22d8:	2c2c2c2c 	stccs	12, cr2, [ip], #-176	; 0xffffff50
    22dc:	2c2d2c2c 	stccs	12, cr2, [sp], #-176	; 0xffffff50
    22e0:	2c2c2c2c 	stccs	12, cr2, [ip], #-176	; 0xffffff50
    22e4:	2c2c2c2c 	stccs	12, cr2, [ip], #-176	; 0xffffff50
    22e8:	2c2c2c2c 	stccs	12, cr2, [ip], #-176	; 0xffffff50
    22ec:	2c2c2c2c 	stccs	12, cr2, [ip], #-176	; 0xffffff50
    22f0:	2c2c2c2c 	stccs	12, cr2, [ip], #-176	; 0xffffff50
    22f4:	2c2c2c2c 	stccs	12, cr2, [ip], #-176	; 0xffffff50
    22f8:	2c2c2c2c 	stccs	12, cr2, [ip], #-176	; 0xffffff50
    22fc:	2c2c2c2c 	stccs	12, cr2, [ip], #-176	; 0xffffff50
    2300:	2c2c2c2c 	stccs	12, cr2, [ip], #-176	; 0xffffff50
    2304:	2c2c2c2c 	stccs	12, cr2, [ip], #-176	; 0xffffff50
    2308:	2c2c2c66 	stccs	12, cr2, [ip], #-408	; 0xfffffe68
    230c:	2c2c2c2c 	stccs	12, cr2, [ip], #-176	; 0xffffff50
    2310:	2c2c2c2c 	stccs	12, cr2, [ip], #-176	; 0xffffff50
    2314:	2c2c2c2c 	stccs	12, cr2, [ip], #-176	; 0xffffff50
    2318:	2c2c2c2c 	stccs	12, cr2, [ip], #-176	; 0xffffff50
    231c:	2c2c2c2c 	stccs	12, cr2, [ip], #-176	; 0xffffff50
    2320:	2c2c2c2c 	stccs	12, cr2, [ip], #-176	; 0xffffff50
    2324:	2c2c2c2c 	stccs	12, cr2, [ip], #-176	; 0xffffff50
    2328:	2c2c2c2c 	stccs	12, cr2, [ip], #-176	; 0xffffff50
    232c:	2c2c2c2c 	stccs	12, cr2, [ip], #-176	; 0xffffff50
    2330:	2c2c2c2c 	stccs	12, cr2, [ip], #-176	; 0xffffff50
    2334:	2c2c2c2c 	stccs	12, cr2, [ip], #-176	; 0xffffff50
    2338:	2c2c2c2c 	stccs	12, cr2, [ip], #-176	; 0xffffff50
    233c:	2c2c2c2c 	stccs	12, cr2, [ip], #-176	; 0xffffff50
    2340:	2c2c2c2c 	stccs	12, cr2, [ip], #-176	; 0xffffff50
    2344:	2c2c2c2c 	stccs	12, cr2, [ip], #-176	; 0xffffff50
    2348:	032c2c2c 			; <UNDEFINED> instruction: 0x032c2c2c
    234c:	0155080b 	cmpeq	r5, fp, lsl #16
    2350:	2c2c2c2c 	stccs	12, cr2, [ip], #-176	; 0xffffff50
    2354:	2f2c2c2c 	svccs	0x002c2c2c
    2358:	2c2c2c2c 	stccs	12, cr2, [ip], #-176	; 0xffffff50
    235c:	2c2c2c2c 	stccs	12, cr2, [ip], #-176	; 0xffffff50
    2360:	2c2c2c2c 	stccs	12, cr2, [ip], #-176	; 0xffffff50
    2364:	2c2c2c2c 	stccs	12, cr2, [ip], #-176	; 0xffffff50
    2368:	2c2c2c2c 	stccs	12, cr2, [ip], #-176	; 0xffffff50
    236c:	2c2c2c2c 	stccs	12, cr2, [ip], #-176	; 0xffffff50
    2370:	2c2c2c2c 	stccs	12, cr2, [ip], #-176	; 0xffffff50
    2374:	2c2c2c2c 	stccs	12, cr2, [ip], #-176	; 0xffffff50
    2378:	2c2c2c2c 	stccs	12, cr2, [ip], #-176	; 0xffffff50
    237c:	2c2c2c2c 	stccs	12, cr2, [ip], #-176	; 0xffffff50
    2380:	2c2c2c2c 	stccs	12, cr2, [ip], #-176	; 0xffffff50
    2384:	2c2c2c2c 	stccs	12, cr2, [ip], #-176	; 0xffffff50
    2388:	2c2c2c2c 	stccs	12, cr2, [ip], #-176	; 0xffffff50
    238c:	2c2c2c2c 	stccs	12, cr2, [ip], #-176	; 0xffffff50
    2390:	2c2c2c2c 	stccs	12, cr2, [ip], #-176	; 0xffffff50
    2394:	2c2c2c2c 	stccs	12, cr2, [ip], #-176	; 0xffffff50
    2398:	2cdb2c2c 	ldclcs	12, cr2, [fp], {44}	; 0x2c
    239c:	2c2c2c2c 	stccs	12, cr2, [ip], #-176	; 0xffffff50
    23a0:	2c2c2c2c 	stccs	12, cr2, [ip], #-176	; 0xffffff50
    23a4:	2c2c2c2c 	stccs	12, cr2, [ip], #-176	; 0xffffff50
    23a8:	2c2c2d2d 	stccs	13, cr2, [ip], #-180	; 0xffffff4c
    23ac:	2c2d2c2c 	stccs	12, cr2, [sp], #-176	; 0xffffff50
    23b0:	2c2c2c2c 	stccs	12, cr2, [ip], #-176	; 0xffffff50
    23b4:	2c2c2c2c 	stccs	12, cr2, [ip], #-176	; 0xffffff50
    23b8:	2c2c2c2c 	stccs	12, cr2, [ip], #-176	; 0xffffff50
    23bc:	2c2c2c2c 	stccs	12, cr2, [ip], #-176	; 0xffffff50
    23c0:	2c2c2c2c 	stccs	12, cr2, [ip], #-176	; 0xffffff50
    23c4:	2c2c2c2c 	stccs	12, cr2, [ip], #-176	; 0xffffff50
    23c8:	2c2c2c2c 	stccs	12, cr2, [ip], #-176	; 0xffffff50
    23cc:	2c2c2c2c 	stccs	12, cr2, [ip], #-176	; 0xffffff50
    23d0:	2c2c2c2c 	stccs	12, cr2, [ip], #-176	; 0xffffff50
    23d4:	2c2c2c2c 	stccs	12, cr2, [ip], #-176	; 0xffffff50
    23d8:	2c2c2c2c 	stccs	12, cr2, [ip], #-176	; 0xffffff50
    23dc:	2c2c2c2c 	stccs	12, cr2, [ip], #-176	; 0xffffff50
    23e0:	2c2c2c2c 	stccs	12, cr2, [ip], #-176	; 0xffffff50
    23e4:	2c2c2c2c 	stccs	12, cr2, [ip], #-176	; 0xffffff50
    23e8:	2c2c2c2c 	stccs	12, cr2, [ip], #-176	; 0xffffff50
    23ec:	2c2c2c2c 	stccs	12, cr2, [ip], #-176	; 0xffffff50
    23f0:	2c2c2c2c 	stccs	12, cr2, [ip], #-176	; 0xffffff50
    23f4:	2c2c2c2c 	stccs	12, cr2, [ip], #-176	; 0xffffff50
    23f8:	2c2c2c2c 	stccs	12, cr2, [ip], #-176	; 0xffffff50
    23fc:	2c2c2c2c 	stccs	12, cr2, [ip], #-176	; 0xffffff50
    2400:	2c2c2c2c 	stccs	12, cr2, [ip], #-176	; 0xffffff50
    2404:	2c2c2c2c 	stccs	12, cr2, [ip], #-176	; 0xffffff50
    2408:	2c2c2c2c 	stccs	12, cr2, [ip], #-176	; 0xffffff50
    240c:	2c2c2c2c 	stccs	12, cr2, [ip], #-176	; 0xffffff50
    2410:	2c2c2c2c 	stccs	12, cr2, [ip], #-176	; 0xffffff50
    2414:	0c042c2c 	stceq	12, cr2, [r4], {44}	; 0x2c
    2418:	02789e03 	rsbseq	r9, r8, #3, 28	; 0x30
    241c:	2c2c0132 	stfcss	f0, [ip], #-200	; 0xffffff38
    2420:	2c2c2c2c 	stccs	12, cr2, [ip], #-176	; 0xffffff50
    2424:	2c2c2c2c 	stccs	12, cr2, [ip], #-176	; 0xffffff50
    2428:	2c2c2c2c 	stccs	12, cr2, [ip], #-176	; 0xffffff50
    242c:	2c2c2c2c 	stccs	12, cr2, [ip], #-176	; 0xffffff50
    2430:	2c2d2c2c 	stccs	12, cr2, [sp], #-176	; 0xffffff50
    2434:	2c2c2c2c 	stccs	12, cr2, [ip], #-176	; 0xffffff50
    2438:	2c2c2c2c 	stccs	12, cr2, [ip], #-176	; 0xffffff50
    243c:	2c2c2c2c 	stccs	12, cr2, [ip], #-176	; 0xffffff50
    2440:	12032c2c 	andne	r2, r3, #44, 24	; 0x2c00
    2444:	2c010202 	sfmcs	f0, 4, [r1], {2}
    2448:	2c2c2c2c 	stccs	12, cr2, [ip], #-176	; 0xffffff50
    244c:	2c2c2c2c 	stccs	12, cr2, [ip], #-176	; 0xffffff50
    2450:	2c2c2c2c 	stccs	12, cr2, [ip], #-176	; 0xffffff50
    2454:	2c2c2c2c 	stccs	12, cr2, [ip], #-176	; 0xffffff50
    2458:	2c2c2c2c 	stccs	12, cr2, [ip], #-176	; 0xffffff50
    245c:	2c2c2c2c 	stccs	12, cr2, [ip], #-176	; 0xffffff50
    2460:	2c2c2c2c 	stccs	12, cr2, [ip], #-176	; 0xffffff50
    2464:	302c2c2c 	eorcc	r2, ip, ip, lsr #24
    2468:	2c2c2c2c 	stccs	12, cr2, [ip], #-176	; 0xffffff50
    246c:	2c2c2c2c 	stccs	12, cr2, [ip], #-176	; 0xffffff50
    2470:	2c2c2c2c 	stccs	12, cr2, [ip], #-176	; 0xffffff50
    2474:	2c2c2c2c 	stccs	12, cr2, [ip], #-176	; 0xffffff50
    2478:	2c2c2c2c 	stccs	12, cr2, [ip], #-176	; 0xffffff50
    247c:	2c2c2c2c 	stccs	12, cr2, [ip], #-176	; 0xffffff50
    2480:	2c2c2c2c 	stccs	12, cr2, [ip], #-176	; 0xffffff50
    2484:	2c2c2c2c 	stccs	12, cr2, [ip], #-176	; 0xffffff50
    2488:	2c2c2c2c 	stccs	12, cr2, [ip], #-176	; 0xffffff50
    248c:	2c2c2c2c 	stccs	12, cr2, [ip], #-176	; 0xffffff50
    2490:	2c2c2c2c 	stccs	12, cr2, [ip], #-176	; 0xffffff50
    2494:	2c2c2c2c 	stccs	12, cr2, [ip], #-176	; 0xffffff50
    2498:	080b032c 	stmdaeq	fp, {r2, r3, r5, r8, r9}
    249c:	2c2c0155 	stfcss	f0, [ip], #-340	; 0xfffffeac
    24a0:	2c2c2c2c 	stccs	12, cr2, [ip], #-176	; 0xffffff50
    24a4:	2c2c2c2c 	stccs	12, cr2, [ip], #-176	; 0xffffff50
    24a8:	2c2c2c2c 	stccs	12, cr2, [ip], #-176	; 0xffffff50
    24ac:	2c2c2c2c 	stccs	12, cr2, [ip], #-176	; 0xffffff50
    24b0:	2c2c2c2c 	stccs	12, cr2, [ip], #-176	; 0xffffff50
    24b4:	2c2c2c2c 	stccs	12, cr2, [ip], #-176	; 0xffffff50
    24b8:	2c2c2c2c 	stccs	12, cr2, [ip], #-176	; 0xffffff50
    24bc:	2c2c2c2c 	stccs	12, cr2, [ip], #-176	; 0xffffff50
    24c0:	2c2c2c2c 	stccs	12, cr2, [ip], #-176	; 0xffffff50
    24c4:	2c2c2c2c 	stccs	12, cr2, [ip], #-176	; 0xffffff50
    24c8:	2c2c2c2c 	stccs	12, cr2, [ip], #-176	; 0xffffff50
    24cc:	2c2c2c2c 	stccs	12, cr2, [ip], #-176	; 0xffffff50
    24d0:	2c2c2c2c 	stccs	12, cr2, [ip], #-176	; 0xffffff50
    24d4:	2c2c2c2c 	stccs	12, cr2, [ip], #-176	; 0xffffff50
    24d8:	2c2c2c2c 	stccs	12, cr2, [ip], #-176	; 0xffffff50
    24dc:	2c2c2c2c 	stccs	12, cr2, [ip], #-176	; 0xffffff50
    24e0:	2c2c2c2c 	stccs	12, cr2, [ip], #-176	; 0xffffff50
    24e4:	032c2c2c 			; <UNDEFINED> instruction: 0x032c2c2c
    24e8:	0155080f 	cmpeq	r5, pc, lsl #16
    24ec:	2c2c2c2c 	stccs	12, cr2, [ip], #-176	; 0xffffff50
    24f0:	2c2c2c2c 	stccs	12, cr2, [ip], #-176	; 0xffffff50
    24f4:	2c2c2c2c 	stccs	12, cr2, [ip], #-176	; 0xffffff50
    24f8:	2c2c2c2c 	stccs	12, cr2, [ip], #-176	; 0xffffff50
    24fc:	2c2c2c2c 	stccs	12, cr2, [ip], #-176	; 0xffffff50
    2500:	2c2c2c2c 	stccs	12, cr2, [ip], #-176	; 0xffffff50
    2504:	2c2c2c2c 	stccs	12, cr2, [ip], #-176	; 0xffffff50
    2508:	2c2c2c2c 	stccs	12, cr2, [ip], #-176	; 0xffffff50
    250c:	2c2c2c32 	stccs	12, cr2, [ip], #-200	; 0xffffff38
    2510:	2c2c2c2c 	stccs	12, cr2, [ip], #-176	; 0xffffff50
    2514:	2c2c2c2c 	stccs	12, cr2, [ip], #-176	; 0xffffff50
    2518:	2c2c2c2c 	stccs	12, cr2, [ip], #-176	; 0xffffff50
    251c:	2c2c2c2c 	stccs	12, cr2, [ip], #-176	; 0xffffff50
    2520:	2c2c2c2c 	stccs	12, cr2, [ip], #-176	; 0xffffff50
    2524:	2c2c2c2c 	stccs	12, cr2, [ip], #-176	; 0xffffff50
    2528:	2c2c2c2c 	stccs	12, cr2, [ip], #-176	; 0xffffff50
    252c:	2c2c2c2c 	stccs	12, cr2, [ip], #-176	; 0xffffff50
    2530:	2c2c2c2c 	stccs	12, cr2, [ip], #-176	; 0xffffff50
    2534:	2c2c2c2c 	stccs	12, cr2, [ip], #-176	; 0xffffff50
    2538:	2c2c2c2c 	stccs	12, cr2, [ip], #-176	; 0xffffff50
    253c:	2c2c2c2c 	stccs	12, cr2, [ip], #-176	; 0xffffff50
    2540:	2c2c2c2c 	stccs	12, cr2, [ip], #-176	; 0xffffff50
    2544:	2c2c2c2c 	stccs	12, cr2, [ip], #-176	; 0xffffff50
    2548:	2c2c2c2c 	stccs	12, cr2, [ip], #-176	; 0xffffff50
    254c:	2c2c2c2c 	stccs	12, cr2, [ip], #-176	; 0xffffff50
    2550:	2f2c2c2c 	svccs	0x002c2c2c
    2554:	2c2c2c2c 	stccs	12, cr2, [ip], #-176	; 0xffffff50
    2558:	2c2c2c2c 	stccs	12, cr2, [ip], #-176	; 0xffffff50
    255c:	2c2c2c2c 	stccs	12, cr2, [ip], #-176	; 0xffffff50
    2560:	2c2c2c2c 	stccs	12, cr2, [ip], #-176	; 0xffffff50
    2564:	2c2c2c2c 	stccs	12, cr2, [ip], #-176	; 0xffffff50
    2568:	2c2c2c2c 	stccs	12, cr2, [ip], #-176	; 0xffffff50
    256c:	2c2c2c2c 	stccs	12, cr2, [ip], #-176	; 0xffffff50
    2570:	2c2c2c2c 	stccs	12, cr2, [ip], #-176	; 0xffffff50
    2574:	2c2c2c2c 	stccs	12, cr2, [ip], #-176	; 0xffffff50
    2578:	2c2c2c2c 	stccs	12, cr2, [ip], #-176	; 0xffffff50
    257c:	2c2c2c2c 	stccs	12, cr2, [ip], #-176	; 0xffffff50
    2580:	2c2c2c2c 	stccs	12, cr2, [ip], #-176	; 0xffffff50
    2584:	2c2c2c2c 	stccs	12, cr2, [ip], #-176	; 0xffffff50
    2588:	2c2c2c2c 	stccs	12, cr2, [ip], #-176	; 0xffffff50
    258c:	2c2c2c2c 	stccs	12, cr2, [ip], #-176	; 0xffffff50
    2590:	2c2c2c2c 	stccs	12, cr2, [ip], #-176	; 0xffffff50
    2594:	2c2c2c2c 	stccs	12, cr2, [ip], #-176	; 0xffffff50
    2598:	2c2c2c2c 	stccs	12, cr2, [ip], #-176	; 0xffffff50
    259c:	2d2c2c2c 	stccs	12, cr2, [ip, #-176]!	; 0xffffff50
    25a0:	2c2c2c2c 	stccs	12, cr2, [ip], #-176	; 0xffffff50
    25a4:	2c2c2c2c 	stccs	12, cr2, [ip], #-176	; 0xffffff50
    25a8:	2c2c2c2c 	stccs	12, cr2, [ip], #-176	; 0xffffff50
    25ac:	2c2c2c2c 	stccs	12, cr2, [ip], #-176	; 0xffffff50
    25b0:	2c2c2c2c 	stccs	12, cr2, [ip], #-176	; 0xffffff50
    25b4:	2c2c2c2d 	stccs	12, cr2, [ip], #-180	; 0xffffff4c
    25b8:	2c2c2c2c 	stccs	12, cr2, [ip], #-176	; 0xffffff50
    25bc:	2c2c2c2c 	stccs	12, cr2, [ip], #-176	; 0xffffff50
    25c0:	2c2c2c2c 	stccs	12, cr2, [ip], #-176	; 0xffffff50
    25c4:	2c2c2c2c 	stccs	12, cr2, [ip], #-176	; 0xffffff50
    25c8:	2c2c2c2c 	stccs	12, cr2, [ip], #-176	; 0xffffff50
    25cc:	2c2c2c2c 	stccs	12, cr2, [ip], #-176	; 0xffffff50
    25d0:	2c2c2c2c 	stccs	12, cr2, [ip], #-176	; 0xffffff50
    25d4:	2c2c2c2c 	stccs	12, cr2, [ip], #-176	; 0xffffff50
    25d8:	2c2c2c2c 	stccs	12, cr2, [ip], #-176	; 0xffffff50
    25dc:	2c2c2c2c 	stccs	12, cr2, [ip], #-176	; 0xffffff50
    25e0:	2c2c2c2c 	stccs	12, cr2, [ip], #-176	; 0xffffff50
    25e4:	2c2c2c2c 	stccs	12, cr2, [ip], #-176	; 0xffffff50
    25e8:	2c2c2c2c 	stccs	12, cr2, [ip], #-176	; 0xffffff50
    25ec:	2c2c2c2c 	stccs	12, cr2, [ip], #-176	; 0xffffff50
    25f0:	2c2c2c2c 	stccs	12, cr2, [ip], #-176	; 0xffffff50
    25f4:	2c2c2c2c 	stccs	12, cr2, [ip], #-176	; 0xffffff50
    25f8:	2c2c2c2c 	stccs	12, cr2, [ip], #-176	; 0xffffff50
    25fc:	2c2c2c2c 	stccs	12, cr2, [ip], #-176	; 0xffffff50
    2600:	2c2c2c2c 	stccs	12, cr2, [ip], #-176	; 0xffffff50
    2604:	2c2c2c2c 	stccs	12, cr2, [ip], #-176	; 0xffffff50
    2608:	2c2c2c2c 	stccs	12, cr2, [ip], #-176	; 0xffffff50
    260c:	2c2c2c2c 	stccs	12, cr2, [ip], #-176	; 0xffffff50
    2610:	2c2c2c2c 	stccs	12, cr2, [ip], #-176	; 0xffffff50
    2614:	2c2c2c2c 	stccs	12, cr2, [ip], #-176	; 0xffffff50
    2618:	2c2c2c2c 	stccs	12, cr2, [ip], #-176	; 0xffffff50
    261c:	0227032c 	eoreq	r0, r7, #44, 6	; 0xb0000000
    2620:	2c2d0102 	stfcss	f0, [sp], #-8
    2624:	2c2c2c2c 	stccs	12, cr2, [ip], #-176	; 0xffffff50
    2628:	2c2c2c2c 	stccs	12, cr2, [ip], #-176	; 0xffffff50
    262c:	662c2c2c 	strtvs	r2, [ip], -ip, lsr #24
    2630:	1d080303 	stcne	3, cr0, [r8, #-12]
    2634:	02030301 	andeq	r0, r3, #67108864	; 0x4000000
    2638:	9e820124 	rmflssp	f0, f2, f4
    263c:	2cd6d682 	ldclcs	6, cr13, [r6], {130}	; 0x82
    2640:	0303d62c 	movweq	sp, #13868	; 0x362c
    2644:	d601e108 	strle	lr, [r1], -r8, lsl #2
    2648:	55080303 	strpl	r0, [r8, #-771]	; 0xfffffcfd
    264c:	08030301 	stmdaeq	r3, {r0, r8, r9}
    2650:	d6ba0171 			; <UNDEFINED> instruction: 0xd6ba0171
    2654:	9e82baf2 			; <UNDEFINED> instruction: 0x9e82baf2
    2658:	1d080303 	stcne	3, cr0, [r8, #-12]
    265c:	82f28201 	rscshi	r8, r2, #268435456	; 0x10000000
    2660:	08030382 	stmdaeq	r3, {r1, r7, r8, r9}
    2664:	0303011d 	movweq	r0, #12573	; 0x311d
    2668:	03015508 	movweq	r5, #5384	; 0x1508
    266c:	011d0803 	tsteq	sp, r3, lsl #16
    2670:	55080303 	strpl	r0, [r8, #-771]	; 0xfffffcfd
    2674:	08030301 	stmdaeq	r3, {r0, r8, r9}
    2678:	0303011d 	movweq	r0, #12573	; 0x311d
    267c:	03011d08 	movweq	r1, #7432	; 0x1d08
    2680:	01390803 	teqeq	r9, r3, lsl #16
    2684:	39080303 	stmdbcc	r8, {r0, r1, r8, r9}
    2688:	08030301 	stmdaeq	r3, {r0, r8, r9}
    268c:	03ba0139 			; <UNDEFINED> instruction: 0x03ba0139
    2690:	011d0803 	tsteq	sp, r3, lsl #16
    2694:	08030382 	stmdaeq	r3, {r1, r7, r8, r9}
    2698:	03f2011d 	mvnseq	r0, #1073741831	; 0x40000007
    269c:	01260203 			; <UNDEFINED> instruction: 0x01260203
    26a0:	f2baf2d6 	vrshr.s64	<illegal reg q7.5>, q3, #6
    26a4:	080303d6 	stmdaeq	r3, {r1, r2, r4, r6, r7, r8, r9}
    26a8:	0303011d 	movweq	r0, #12573	; 0x311d
    26ac:	ba01e108 	blt	7aad4 <.debug_line+0x7aad4>
    26b0:	03039ef2 	movweq	r9, #16114	; 0x3ef2
    26b4:	d6013908 	strle	r3, [r1], -r8, lsl #18
    26b8:	080303d6 	stmdaeq	r3, {r1, r2, r4, r6, r7, r8, r9}
    26bc:	669e011d 			; <UNDEFINED> instruction: 0x669e011d
    26c0:	039ebaba 	orrseq	fp, lr, #761856	; 0xba000
    26c4:	01710803 	cmneq	r1, r3, lsl #16
    26c8:	0303ba9e 	movweq	fp, #15006	; 0x3a9e
    26cc:	9e015508 	cfsh32ls	mvfx5, mvfx1, #8
    26d0:	1d080303 	stcne	3, cr0, [r8, #-12]
    26d4:	08030301 	stmdaeq	r3, {r0, r8, r9}
    26d8:	8282011d 	addhi	r0, r2, #1073741831	; 0x40000007
    26dc:	d6828282 	strle	r8, [r2], r2, lsl #5
    26e0:	0303f282 	movweq	pc, #12930	; 0x3282	; <UNPREDICTABLE>
    26e4:	03011d08 	movweq	r1, #7432	; 0x1d08
    26e8:	01710803 	cmneq	r1, r3, lsl #16
    26ec:	39080303 	stmdbcc	r8, {r0, r1, r8, r9}
    26f0:	08030301 	stmdaeq	r3, {r0, r8, r9}
    26f4:	baba011d 	blt	fee82b70 <.debug_line+0xfee82b70>
    26f8:	d682f2f2 			; <UNDEFINED> instruction: 0xd682f2f2
    26fc:	9e9e8282 	cdpls	2, 9, cr8, cr14, cr2, {4}
    2700:	bad682d6 	blt	ff5a3260 <.debug_line+0xff5a3260>
    2704:	1d080303 	stcne	3, cr0, [r8, #-12]
    2708:	08030301 	stmdaeq	r3, {r0, r8, r9}
    270c:	ba9e01c5 	blt	fe782e28 <.debug_line+0xfe782e28>
    2710:	39080303 	stmdbcc	r8, {r0, r1, r8, r9}
    2714:	08030301 	stmdaeq	r3, {r0, r8, r9}
    2718:	02d60139 	sbcseq	r0, r6, #1073741838	; 0x4000000e
    271c:	0101001a 	tsteq	r1, sl, lsl r0

Disassembly of section .debug_aranges:

00000000 <.debug_aranges>:
   0:	0000001c 	andeq	r0, r0, ip, lsl r0
   4:	00000002 	andeq	r0, r0, r2
   8:	00040000 	andeq	r0, r4, r0
	...
  14:	0000b110 	andeq	fp, r0, r0, lsl r1
	...

Disassembly of section .debug_str:

00000000 <.debug_str>:
   0:	7369642f 	cmnvc	r9, #788529152	; 0x2f000000
   4:	682f316b 	stmdavs	pc!, {r0, r1, r3, r5, r6, r8, ip, sp}	; <UNPREDICTABLE>
   8:	2f656d6f 	svccs	0x00656d6f
   c:	2f626d64 	svccs	0x00626d64
  10:	6d6f7461 	cfstrdvs	mvd7, [pc, #-388]!	; fffffe94 <.debug_str+0xfffffe94>
  14:	7571732f 	ldrbvc	r7, [r1, #-815]!	; 0xfffffcd1
  18:	2d657261 	sfmcs	f7, 2, [r5, #-388]!	; 0xfffffe7c
  1c:	746f6f72 	strbtvc	r6, [pc], #-3954	; 24 <.debug_str+0x24>
  20:	646f632d 	strbtvs	r6, [pc], #-813	; 28 <.debug_str+0x28>
  24:	72612f65 	rsbvc	r2, r1, #404	; 0x194
  28:	61625f6d 	cmnvs	r2, sp, ror #30
  2c:	5f636973 	svcpl	0x00636973
  30:	616f7467 	cmnvs	pc, r7, ror #8
  34:	642f006c 	strtvs	r0, [pc], #-108	; 3c <.debug_str+0x3c>
  38:	316b7369 	cmncc	fp, r9, ror #6
  3c:	6d6f682f 	stclvs	8, cr6, [pc, #-188]!	; ffffff88 <.debug_str+0xffffff88>
  40:	6d642f65 	stclvs	15, cr2, [r4, #-404]!	; 0xfffffe6c
  44:	74612f62 	strbtvc	r2, [r1], #-3938	; 0xfffff09e
  48:	732f6d6f 			; <UNDEFINED> instruction: 0x732f6d6f
  4c:	72617571 	rsbvc	r7, r1, #473956352	; 0x1c400000
  50:	6f722d65 	svcvs	0x00722d65
  54:	632d746f 			; <UNDEFINED> instruction: 0x632d746f
  58:	2f65646f 	svccs	0x0065646f
  5c:	5f6d7261 	svcpl	0x006d7261
  60:	69736162 	ldmdbvs	r3!, {r1, r5, r6, r8, sp, lr}^
  64:	74675f63 	strbtvc	r5, [r7], #-3939	; 0xfffff09d
  68:	2f6c616f 	svccs	0x006c616f
  6c:	69736142 	ldmdbvs	r3!, {r1, r6, r8, sp, lr}^
  70:	43470063 	movtmi	r0, #28771	; 0x7063
  74:	4b445343 	blmi	1114d88 <.debug_str+0x1114d88>
  78:	41534120 	cmpmi	r3, r0, lsr #2
  7c:	41204d53 			; <UNDEFINED> instruction: 0x41204d53
  80:	452f464f 	strmi	r4, [pc, #-1615]!	; fffffa39 <.debug_str+0xfffffa39>
  84:	4120464c 			; <UNDEFINED> instruction: 0x4120464c
  88:	6d657373 	stclvs	3, cr7, [r5, #-460]!	; 0xfffffe34
  8c:	72656c62 	rsbvc	r6, r5, #25088	; 0x6200
  90:	302e3220 	eorcc	r3, lr, r0, lsr #4
  94:	72282031 	eorvc	r2, r8, #49	; 0x31
  98:	36383936 			; <UNDEFINED> instruction: 0x36383936
  9c:	20746120 	rsbscs	r6, r4, r0, lsr #2
  a0:	7572742f 	ldrbvc	r7, [r2, #-1071]!	; 0xfffffbd1
  a4:	742f6b6e 	strtvc	r6, [pc], #-2926	; ac <.debug_str+0xac>
  a8:	736c6f6f 	cmnvc	ip, #444	; 0x1bc
  ac:	6173612f 	cmnvs	r3, pc, lsr #2
  b0:	732f6d73 			; <UNDEFINED> instruction: 0x732f6d73
  b4:	202c6372 	eorcs	r6, ip, r2, ror r3
  b8:	20636544 	rsbcs	r6, r3, r4, asr #10
  bc:	32203820 	eorcc	r3, r0, #32, 16	; 0x200000
  c0:	29353130 	ldmdbcs	r5!, {r4, r5, r8, ip, sp}
	...
